

Microchip MPLAB XC8 Assembler V2.46 build 20240104201356 
                                                                                               Wed Jul 17 07:38:02 2024

Microchip MPLAB XC8 C Compiler v2.46 (Free license) build 20240104201356 Og1 
     1                           	processor	18F4620
     2                           	fnconf	rparam,??,?,0
     3                           	pagewidth 120
     4                           	opt	flic
     5                           	psect	idataCOMRAM,global,class=CODE,delta=1,noexec
     6                           	psect	smallconst,global,reloc=2,class=SMALLCONST,delta=1,noexec
     7                           	psect	nvCOMRAM,global,class=COMRAM,space=1,delta=1,lowdata,noexec
     8                           	psect	cinit,global,reloc=2,class=CODE,delta=1
     9                           	psect	bssCOMRAM,global,class=COMRAM,space=1,delta=1,lowdata,noexec
    10                           	psect	dataCOMRAM,global,class=COMRAM,space=1,delta=1,lowdata,noexec
    11                           	psect	cstackCOMRAM,global,class=COMRAM,space=1,delta=1,lowdata,noexec
    12                           	psect	text0,global,reloc=2,class=CODE,delta=1
    13                           	psect	text1,global,reloc=2,class=CODE,delta=1
    14                           	psect	text2,global,reloc=2,class=CODE,delta=1
    15                           	psect	text3,global,reloc=2,class=CODE,delta=1
    16                           	psect	text4,global,reloc=2,class=CODE,delta=1
    17                           	psect	text5,global,reloc=2,class=CODE,delta=1
    18                           	psect	text6,global,reloc=2,class=CODE,delta=1
    19                           	psect	text7,global,reloc=2,class=CODE,delta=1
    20                           	psect	text8,global,reloc=2,class=CODE,delta=1
    21                           	psect	text9,global,reloc=2,class=CODE,delta=1
    22                           	psect	text10,global,reloc=2,class=CODE,delta=1
    23                           	psect	text11,global,reloc=2,class=CODE,delta=1
    24                           	psect	text12,global,reloc=2,class=CODE,delta=1
    25                           	psect	text13,global,reloc=2,class=CODE,delta=1
    26                           	psect	text14,global,reloc=2,class=CODE,delta=1
    27                           	psect	text15,global,reloc=2,class=CODE,delta=1
    28                           	psect	text16,global,reloc=2,class=CODE,delta=1
    29                           	psect	text17,global,reloc=2,class=CODE,delta=1
    30                           	psect	text18,global,reloc=2,class=CODE,delta=1
    31                           	psect	text19,global,reloc=2,class=CODE,delta=1
    32                           	psect	text20,global,reloc=2,class=CODE,delta=1
    33                           	psect	intcode,global,reloc=2,class=CODE,delta=1
    34                           	psect	intcode_body,global,reloc=2,class=CODE,delta=1
    35                           	psect	text22,global,reloc=2,class=CODE,delta=1
    36                           	psect	text23,global,reloc=2,class=CODE,delta=1
    37                           	psect	text24,global,reloc=2,class=CODE,delta=1
    38                           	psect	text25,global,reloc=2,class=CODE,delta=1
    39                           	psect	text26,global,reloc=2,class=CODE,delta=1
    40                           	psect	text27,global,reloc=2,class=CODE,delta=1
    41                           	psect	text28,global,reloc=2,class=CODE,delta=1
    42                           	psect	text29,global,reloc=2,class=CODE,delta=1
    43                           	psect	text30,global,reloc=2,class=CODE,delta=1
    44                           	psect	intsave_regs,global,class=BIGRAM,space=1,delta=1,noexec
    45                           	psect	rparam,global,class=COMRAM,space=1,delta=1,noexec
    46                           	psect	temp,global,ovrld,common,class=COMRAM,space=1,delta=1,lowdata
    47                           	psect	config,global,abs,ovrld,class=CONFIG,space=4,delta=1,noexec
    48   000000                     
    49                           ; Generated 17/10/2023 GMT
    50                           ; 
    51                           ; Copyright © 2023, Microchip Technology Inc. and its subsidiaries ("Microchip")
    52                           ; All rights reserved.
    53                           ; 
    54                           ; This software is developed by Microchip Technology Inc. and its subsidiaries ("Microch
      +                          ip").
    55                           ; 
    56                           ; Redistribution and use in source and binary forms, with or without modification, are
    57                           ; permitted provided that the following conditions are met:
    58                           ; 
    59                           ;     1. Redistributions of source code must retain the above copyright notice, this lis
      +                          t of
    60                           ;        conditions and the following disclaimer.
    61                           ; 
    62                           ;     2. Redistributions in binary form must reproduce the above copyright notice, this 
      +                          list
    63                           ;        of conditions and the following disclaimer in the documentation and/or other
    64                           ;        materials provided with the distribution. Publication is not required when
    65                           ;        this file is used in an embedded application.
    66                           ; 
    67                           ;     3. Microchip's name may not be used to endorse or promote products derived from th
      +                          is
    68                           ;        software without specific prior written permission.
    69                           ; 
    70                           ; THIS SOFTWARE IS PROVIDED BY MICROCHIP "AS IS" AND ANY EXPRESS OR IMPLIED WARRANTIES,
    71                           ; INCLUDING, BUT NOT LIMITED TO, THE IMPLIED WARRANTIES OF MERCHANTABILITY AND FITNESS F
      +                          OR
    72                           ; PURPOSE ARE DISCLAIMED.  IN NO EVENT SHALL MICROCHIP BE LIABLE FOR ANY DIRECT, INDIREC
      +                          T,
    73                           ; INCIDENTAL, SPECIAL, EXEMPLARY, OR CONSEQUENTIAL DAMAGES (INCLUDING BUT NOT LIMITED TO
    74                           ; PROCUREMENT OF SUBSTITUTE GOODS OR SERVICES; LOSS OF USE, DATA OR PROFITS; OR BUSINESS
    75                           ; INTERRUPTION) HOWSOEVER CAUSED AND ON ANY THEORY OF LIABILITY, WHETHER IN CONTRACT, ST
      +                          RICT
    76                           ; LIABILITY, OR TORT (INCLUDING NEGLIGENCE OR OTHERWISE) ARISING IN ANY WAY OUT OF THE U
      +                          SE OF
    77                           ; THIS SOFTWARE, EVEN IF ADVISED OF THE POSSIBILITY OF SUCH DAMAGE.
    78                           ; 
    79                           ; 
    80                           ; Code-generator required, PIC18F4620 Definitions
    81                           ; 
    82                           ; SFR Addresses
    83   000000                     
    84                           	psect	idataCOMRAM
    85   001A90                     __pidataCOMRAM:
    86                           	callstack 0
    87                           
    88                           ;initializer for _keypad_values
    89   001A90  37                 	db	55
    90   001A91  38                 	db	56
    91   001A92  39                 	db	57
    92   001A93  2F                 	db	47
    93   001A94  34                 	db	52
    94   001A95  35                 	db	53
    95   001A96  36                 	db	54
    96   001A97  2A                 	db	42
    97   001A98  31                 	db	49
    98   001A99  32                 	db	50
    99   001A9A  33                 	db	51
   100   001A9B  2D                 	db	45
   101   001A9C  23                 	db	35
   102   001A9D  30                 	db	48
   103   001A9E  3D                 	db	61
   104   001A9F  2B                 	db	43
   105                           
   106                           ;initializer for _port_registers
   107   001AA0  80                 	db	128
   108   001AA1  0F                 	db	15
   109   001AA2  81                 	db	129
   110   001AA3  0F                 	db	15
   111   001AA4  82                 	db	130
   112   001AA5  0F                 	db	15
   113   001AA6  83                 	db	131
   114   001AA7  0F                 	db	15
   115   001AA8  84                 	db	132
   116   001AA9  0F                 	db	15
   117                           
   118                           ;initializer for _lat_registers
   119   001AAA  89                 	db	137
   120   001AAB  0F                 	db	15
   121   001AAC  8A                 	db	138
   122   001AAD  0F                 	db	15
   123   001AAE  8B                 	db	139
   124   001AAF  0F                 	db	15
   125   001AB0  8C                 	db	140
   126   001AB1  0F                 	db	15
   127   001AB2  8D                 	db	141
   128   001AB3  0F                 	db	15
   129                           
   130                           ;initializer for _tris_registers
   131   001AB4  92                 	db	146
   132   001AB5  0F                 	db	15
   133   001AB6  93                 	db	147
   134   001AB7  0F                 	db	15
   135   001AB8  94                 	db	148
   136   001AB9  0F                 	db	15
   137   001ABA  95                 	db	149
   138   001ABB  0F                 	db	15
   139   001ABC  96                 	db	150
   140   001ABD  0F                 	db	15
   141                           
   142                           ;initializer for _RB7_F
   143   001ABE  01                 	db	1
   144                           
   145                           ;initializer for _RB6_F
   146   001ABF  01                 	db	1
   147                           
   148                           ;initializer for _RB5_F
   149   001AC0  01                 	db	1
   150                           
   151                           ;initializer for _RB4_F
   152   001AC1  01                 	db	1
   153                           
   154                           ;initializer for _int0
   155   001AC2  8C                 	db	low _isr
   156   001AC3  1B                 	db	high _isr
   157   001AC4  01                 	db	1
   158   001AC5  00                 	db	0
   159   001AC6  01                 	db	1
   160   001AC7  01                 	db	1
   161                           
   162                           ;initializer for _led3
   163   001AC8  12                 	db	18
   164                           
   165                           ;initializer for _led2
   166   001AC9  0A                 	db	10
   167                           
   168                           ;initializer for _led1
   169   001ACA  02                 	db	2
   170                           
   171                           	psect	smallconst
   172   001000                     __psmallconst:
   173                           	callstack 0
   174   001000  00                 	db	0
   175   001001                     _customChar7:
   176                           	callstack 0
   177   001001  04                 	db	4
   178   001002  0A                 	db	10
   179   001003  04                 	db	4
   180   001004  04                 	db	4
   181   001005  04                 	db	4
   182   001006  0E                 	db	14
   183   001007  15                 	db	21
   184   001008  0E                 	db	14
   185   001009                     __end_of_customChar7:
   186                           	callstack 0
   187   001009                     _customChar6:
   188                           	callstack 0
   189   001009  0E                 	db	14
   190   00100A  0E                 	db	14
   191   00100B  1F                 	db	31
   192   00100C  1F                 	db	31
   193   00100D  1F                 	db	31
   194   00100E  1F                 	db	31
   195   00100F  1F                 	db	31
   196   001010  00                 	db	0
   197   001011                     __end_of_customChar6:
   198                           	callstack 0
   199   001011                     _customChar5:
   200                           	callstack 0
   201   001011  0E                 	db	14
   202   001012  0A                 	db	10
   203   001013  1F                 	db	31
   204   001014  1F                 	db	31
   205   001015  1F                 	db	31
   206   001016  1F                 	db	31
   207   001017  1F                 	db	31
   208   001018  00                 	db	0
   209   001019                     __end_of_customChar5:
   210                           	callstack 0
   211   001019                     _customChar4:
   212                           	callstack 0
   213   001019  0E                 	db	14
   214   00101A  0A                 	db	10
   215   00101B  11                 	db	17
   216   00101C  1F                 	db	31
   217   00101D  1F                 	db	31
   218   00101E  1F                 	db	31
   219   00101F  1F                 	db	31
   220   001020  00                 	db	0
   221   001021                     __end_of_customChar4:
   222                           	callstack 0
   223   001021                     _customChar3:
   224                           	callstack 0
   225   001021  0E                 	db	14
   226   001022  0A                 	db	10
   227   001023  11                 	db	17
   228   001024  11                 	db	17
   229   001025  1F                 	db	31
   230   001026  1F                 	db	31
   231   001027  1F                 	db	31
   232   001028  00                 	db	0
   233   001029                     __end_of_customChar3:
   234                           	callstack 0
   235   001029                     _customChar2:
   236                           	callstack 0
   237   001029  0E                 	db	14
   238   00102A  0A                 	db	10
   239   00102B  11                 	db	17
   240   00102C  11                 	db	17
   241   00102D  11                 	db	17
   242   00102E  1F                 	db	31
   243   00102F  1F                 	db	31
   244   001030  00                 	db	0
   245   001031                     __end_of_customChar2:
   246                           	callstack 0
   247   001031                     _customChar:
   248                           	callstack 0
   249   001031  0E                 	db	14
   250   001032  0A                 	db	10
   251   001033  11                 	db	17
   252   001034  11                 	db	17
   253   001035  11                 	db	17
   254   001036  11                 	db	17
   255   001037  1F                 	db	31
   256   001038  00                 	db	0
   257   001039                     __end_of_customChar:
   258                           	callstack 0
   259   000000                     _EECON2	set	4007
   260   000000                     _INTCON2bits	set	4081
   261   001039                     STR_2:
   262   001039  25                 	db	37
   263   00103A  69                 	db	105	;'i'
   264   00103B  00                 	db	0
   265   00103C  25                 	db	37
   266   00103D  75                 	db	117	;'u'
   267   00103E  00                 	db	0
   268   00103F  00                 	db	0	; dummy byte at the end
   269   000000                     
   270                           	psect	nvCOMRAM
   271   00006F                     __pnvCOMRAM:
   272                           	callstack 0
   273   00006F                     _ret:
   274                           	callstack 0
   275   00006F                     	ds	1
   276   000000                     _PORTBbits	set	3969
   277   000000                     _PORTE	set	3972
   278   000000                     _PORTD	set	3971
   279   000000                     _PORTC	set	3970
   280   000000                     _PORTB	set	3969
   281   000000                     _PORTA	set	3968
   282   000000                     _LATA	set	3977
   283   000000                     _TRISA	set	3986
   284   000000                     _EECON1bits	set	4006
   285   000000                     _EEDATA	set	4008
   286   000000                     _EEADR	set	4009
   287   000000                     _EEADRH	set	4010
   288   000000                     _INTCON3bits	set	4080
   289   000000                     _INTCONbits	set	4082
   290   000000                     _TRISE	set	3990
   291   000000                     _TRISD	set	3989
   292   000000                     _TRISC	set	3988
   293   000000                     _TRISB	set	3987
   294   000000                     _LATE	set	3981
   295   000000                     _LATD	set	3980
   296   000000                     _LATC	set	3979
   297   000000                     _LATB	set	3978
   298                           
   299                           ; #config settings
   300                           
   301                           	psect	cinit
   302   001ACC                     __pcinit:
   303                           	callstack 0
   304   001ACC                     start_initialization:
   305                           	callstack 0
   306   001ACC                     __initialization:
   307                           	callstack 0
   308                           
   309                           ; Initialize objects allocated to COMRAM (59 bytes)
   310                           ; load TBLPTR registers with __pidataCOMRAM
   311   001ACC  0E90               	movlw	low __pidataCOMRAM
   312   001ACE  6EF6               	movwf	tblptrl,c
   313   001AD0  0E1A               	movlw	high __pidataCOMRAM
   314   001AD2  6EF7               	movwf	tblptrh,c
   315   001AD4  0E00               	movlw	low (__pidataCOMRAM shr (0+16))
   316   001AD6  6EF8               	movwf	tblptru,c
   317   001AD8  EE00  F001         	lfsr	0,__pdataCOMRAM
   318   001ADC  EE10 F03B          	lfsr	1,59
   319   001AE0                     copy_data0:
   320   001AE0  0009               	tblrd		*+
   321   001AE2  CFF5 FFEE          	movff	tablat,postinc0
   322   001AE6  50E5               	movf	postdec1,w,c
   323   001AE8  50E1               	movf	fsr1l,w,c
   324   001AEA  E1FA               	bnz	copy_data0
   325                           
   326                           ; Clear objects allocated to COMRAM (30 bytes)
   327   001AEC  EE00  F03C         	lfsr	0,__pbssCOMRAM
   328   001AF0  0E1E               	movlw	30
   329   001AF2                     clear_0:
   330   001AF2  6AEE               	clrf	postinc0,c
   331   001AF4  06E8               	decf	wreg,f,c
   332   001AF6  E1FD               	bnz	clear_0
   333   001AF8                     end_of_initialization:
   334                           	callstack 0
   335   001AF8                     __end_of__initialization:
   336                           	callstack 0
   337   001AF8  9070               	bcf	int$flags,0,c	;clear compiler interrupt flag (level 1)
   338   001AFA  9270               	bcf	int$flags,1,c	;clear compiler interrupt flag (level 2)
   339   001AFC  0100               	movlb	0
   340   001AFE  EF22  F00B         	goto	_main	;jump to C main() function
   341                           
   342                           	psect	bssCOMRAM
   343   00003C                     __pbssCOMRAM:
   344                           	callstack 0
   345   00003C                     _RB7_INTERRUPTHANDLERLOW:
   346                           	callstack 0
   347   00003C                     	ds	2
   348   00003E                     _RB7_INTERRUPTHANDLERHIGH:
   349                           	callstack 0
   350   00003E                     	ds	2
   351   000040                     _RB6_INTERRUPTHANDLERLOW:
   352                           	callstack 0
   353   000040                     	ds	2
   354   000042                     _RB6_INTERRUPTHANDLERHIGH:
   355                           	callstack 0
   356   000042                     	ds	2
   357   000044                     _RB5_INTERRUPTHANDLERLOW:
   358                           	callstack 0
   359   000044                     	ds	2
   360   000046                     _RB5_INTERRUPTHANDLERHIGH:
   361                           	callstack 0
   362   000046                     	ds	2
   363   000048                     _RB4_INTERRUPTHANDLERLOW:
   364                           	callstack 0
   365   000048                     	ds	2
   366   00004A                     _RB4_INTERRUPTHANDLERHIGH:
   367                           	callstack 0
   368   00004A                     	ds	2
   369   00004C                     _INT2_INTERRUPTHANDLER:
   370                           	callstack 0
   371   00004C                     	ds	2
   372   00004E                     _INT1_INTERRUPTHANDLER:
   373                           	callstack 0
   374   00004E                     	ds	2
   375   000050                     _INT0_INTERRUPTHANDLER:
   376                           	callstack 0
   377   000050                     	ds	2
   378   000052                     relay_turn_off@F3065:
   379                           	callstack 0
   380   000052                     	ds	1
   381   000053                     relay_turn_on@F3060:
   382                           	callstack 0
   383   000053                     	ds	1
   384   000054                     relay_initialization@F3055:
   385                           	callstack 0
   386   000054                     	ds	1
   387   000055                     led_turn_toggle@F3077:
   388                           	callstack 0
   389   000055                     	ds	1
   390   000056                     led_turn_off@F3072:
   391                           	callstack 0
   392   000056                     	ds	1
   393   000057                     led_turn_on@F3067:
   394                           	callstack 0
   395   000057                     	ds	1
   396   000058                     led_initialize@F3062:
   397                           	callstack 0
   398   000058                     	ds	1
   399   000059                     _counter:
   400                           	callstack 0
   401   000059                     	ds	1
   402                           
   403                           	psect	dataCOMRAM
   404   000001                     __pdataCOMRAM:
   405                           	callstack 0
   406   000001                     _keypad_values:
   407                           	callstack 0
   408   000001                     	ds	16
   409   000011                     _port_registers:
   410                           	callstack 0
   411   000011                     	ds	10
   412   00001B                     _lat_registers:
   413                           	callstack 0
   414   00001B                     	ds	10
   415   000025                     _tris_registers:
   416                           	callstack 0
   417   000025                     	ds	10
   418   00002F                     _RB7_F:
   419                           	callstack 0
   420   00002F                     	ds	1
   421   000030                     _RB6_F:
   422                           	callstack 0
   423   000030                     	ds	1
   424   000031                     _RB5_F:
   425                           	callstack 0
   426   000031                     	ds	1
   427   000032                     _RB4_F:
   428                           	callstack 0
   429   000032                     	ds	1
   430   000033                     _int0:
   431                           	callstack 0
   432   000033                     	ds	6
   433   000039                     _led3:
   434                           	callstack 0
   435   000039                     	ds	1
   436   00003A                     _led2:
   437                           	callstack 0
   438   00003A                     	ds	1
   439   00003B                     _led1:
   440                           	callstack 0
   441   00003B                     	ds	1
   442                           
   443                           	psect	cstackCOMRAM
   444   00005A                     __pcstackCOMRAM:
   445                           	callstack 0
   446   00005A                     RB4_ISR@n:
   447                           	callstack 0
   448   00005A                     RB5_ISR@n:
   449                           	callstack 0
   450   00005A                     RB6_ISR@n:
   451                           	callstack 0
   452   00005A                     RB7_ISR@n:
   453                           	callstack 0
   454   00005A                     WRITE_DATA_EEPROM@add:
   455                           	callstack 0
   456                           
   457                           ; 2 bytes @ 0x0
   458   00005A                     	ds	2
   459   00005C                     WRITE_DATA_EEPROM@data:
   460                           	callstack 0
   461                           
   462                           ; 1 bytes @ 0x2
   463   00005C                     	ds	1
   464   00005D                     WRITE_DATA_EEPROM@status:
   465                           	callstack 0
   466                           
   467                           ; 1 bytes @ 0x3
   468   00005D                     	ds	1
   469   00005E                     ??_InterruptMangaer:
   470   00005E                     
   471                           ; 1 bytes @ 0x4
   472   00005E                     	ds	2
   473   000060                     gpio_pin_direction_intialize@_pin_config:
   474                           	callstack 0
   475   000060                     gpio_pin_write_logic@_pin_config:
   476                           	callstack 0
   477   000060                     gpio_pin_toggle_logic@_pin_config:
   478                           	callstack 0
   479   000060                     Interrupt_INTx_Enable@int_obj:
   480                           	callstack 0
   481   000060                     Interrupt_INTx_Disable@int_obj:
   482                           	callstack 0
   483   000060                     Interrupt_INTx_Clear_Flag@int_obj:
   484                           	callstack 0
   485   000060                     Interrupt_INTx_Edge_Src@int_obj:
   486                           	callstack 0
   487   000060                     INT0_INTERRUPT_HANDLER@Interrupt_Handler:
   488                           	callstack 0
   489   000060                     INT1_INTERRUPT_HANDLER@Interrupt_Handler:
   490                           	callstack 0
   491   000060                     INT2_INTERRUPT_HANDLER@Interrupt_Handler:
   492                           	callstack 0
   493   000060                     READ_DATA_EEPROM@add:
   494                           	callstack 0
   495                           
   496                           ; 2 bytes @ 0x6
   497   000060                     	ds	1
   498   000061                     ??_gpio_pin_direction_intialize:
   499   000061                     ??_gpio_pin_toggle_logic:
   500   000061                     ??_Interrupt_INTx_Disable:
   501   000061                     ??_Interrupt_INTx_Clear_Flag:
   502   000061                     ??_Interrupt_INTx_Edge_Src:
   503   000061                     ??_Interrupt_INTx_Enable:
   504   000061                     gpio_pin_write_logic@logic:
   505                           	callstack 0
   506                           
   507                           ; 1 bytes @ 0x7
   508   000061                     	ds	1
   509   000062                     ??_gpio_pin_write_logic:
   510   000062                     Set_Interrupt_Handler@int_obj:
   511                           	callstack 0
   512   000062                     READ_DATA_EEPROM@data:
   513                           	callstack 0
   514                           
   515                           ; 1 bytes @ 0x8
   516   000062                     	ds	1
   517   000063                     ??_Set_Interrupt_Handler:
   518   000063                     Interrupt_INTx_Enable@ret:
   519                           	callstack 0
   520   000063                     Interrupt_INTx_Disable@ret:
   521                           	callstack 0
   522   000063                     Interrupt_INTx_Clear_Flag@ret:
   523                           	callstack 0
   524   000063                     Interrupt_INTx_Edge_Src@ret:
   525                           	callstack 0
   526                           
   527                           ; 1 bytes @ 0x9
   528   000063                     	ds	2
   529   000065                     led_turn_toggle@led:
   530                           	callstack 0
   531   000065                     Set_Interrupt_Handler@ret:
   532                           	callstack 0
   533                           
   534                           ; 1 bytes @ 0xB
   535   000065                     	ds	1
   536   000066                     ??_led_turn_toggle:
   537   000066                     gpio_pin_direction_intialize@ret:
   538                           	callstack 0
   539                           
   540                           ; 1 bytes @ 0xC
   541   000066                     	ds	1
   542   000067                     led_turn_toggle@pin_obj:
   543                           	callstack 0
   544   000067                     gpio_pin_write_logic@ret:
   545                           	callstack 0
   546   000067                     Interrupt_INTx_Pin_Init@int_obj:
   547                           	callstack 0
   548                           
   549                           ; 1 bytes @ 0xD
   550   000067                     	ds	1
   551   000068                     led_turn_off@led:
   552                           	callstack 0
   553   000068                     gpio_pin_initialize@_pin_config:
   554                           	callstack 0
   555   000068                     Interrupt_INTx_Pin_Init@ret:
   556                           	callstack 0
   557                           
   558                           ; 1 bytes @ 0xE
   559   000068                     	ds	1
   560   000069                     ??_led_turn_off:
   561   000069                     gpio_pin_initialize@ret:
   562                           	callstack 0
   563   000069                     Interrupt_INTx_Init@int_obj:
   564                           	callstack 0
   565                           
   566                           ; 1 bytes @ 0xF
   567   000069                     	ds	1
   568   00006A                     led_initialize@led:
   569                           	callstack 0
   570   00006A                     led_turn_off@pin_obj:
   571                           	callstack 0
   572   00006A                     Interrupt_INTx_Init@ret:
   573                           	callstack 0
   574                           
   575                           ; 1 bytes @ 0x10
   576   00006A                     	ds	1
   577   00006B                     ??_led_initialize:
   578                           
   579                           ; 1 bytes @ 0x11
   580   00006B                     	ds	1
   581   00006C                     led_initialize@pin_obj:
   582                           	callstack 0
   583                           
   584                           ; 1 bytes @ 0x12
   585   00006C                     	ds	1
   586   00006D                     ??_main:
   587                           
   588                           ; 1 bytes @ 0x13
   589   00006D                     	ds	2
   590                           
   591 ;;
   592 ;;Main: autosize = 0, tempsize = 2, incstack = 0, save=0
   593 ;;
   594 ;; *************** function _main *****************
   595 ;; Defined at:
   596 ;;		line 27 in file "application.c"
   597 ;; Parameters:    Size  Location     Type
   598 ;;		None
   599 ;; Auto vars:     Size  Location     Type
   600 ;;		None
   601 ;; Return value:  Size  Location     Type
   602 ;;                  2  754[None  ] int 
   603 ;; Registers used:
   604 ;;		wreg, fsr2l, fsr2h, status,2, status,0, prodl, prodh, cstack
   605 ;; Tracked objects:
   606 ;;		On entry : 0/0
   607 ;;		On exit  : 0/0
   608 ;;		Unchanged: 0/0
   609 ;; Data sizes:     COMRAM   BANK0   BANK1   BANK2   BANK3   BANK4   BANK5   BANK6   BANK7   BANK8   BANK9  BANK10  BANK1
      +1  BANK12  BANK13  BANK14  BANK15
   610 ;;      Params:         0       0       0       0       0       0       0       0       0       0       0       0       
      +0       0       0       0       0
   611 ;;      Locals:         0       0       0       0       0       0       0       0       0       0       0       0       
      +0       0       0       0       0
   612 ;;      Temps:          2       0       0       0       0       0       0       0       0       0       0       0       
      +0       0       0       0       0
   613 ;;      Totals:         2       0       0       0       0       0       0       0       0       0       0       0       
      +0       0       0       0       0
   614 ;;Total ram usage:        2 bytes
   615 ;; Hardware stack levels required when called: 9
   616 ;; This function calls:
   617 ;;		_Interrupt_INTx_Init
   618 ;;		_READ_DATA_EEPROM
   619 ;;		_application_initialize
   620 ;;		_led_turn_off
   621 ;;		_led_turn_toggle
   622 ;; This function is called by:
   623 ;;		Startup code after reset
   624 ;; This function uses a non-reentrant model
   625 ;;
   626                           
   627                           	psect	text0
   628   001644                     __ptext0:
   629                           	callstack 0
   630   001644                     _main:
   631                           	callstack 22
   632   001644                     
   633                           ;application.c: 29:     application_initialize();
   634   001644  EC72  F00E         	call	_application_initialize	;wreg free
   635                           
   636                           ;application.c: 30:     Interrupt_INTx_Init(&int0);
   637   001648  0E33               	movlw	low _int0
   638   00164A  6E69               	movwf	Interrupt_INTx_Init@int_obj^0,c
   639   00164C  ECE1  F00C         	call	_Interrupt_INTx_Init	;wreg free
   640   001650                     
   641                           ;application.c: 31:     READ_DATA_EEPROM(0x3FF,&counter);
   642   001650  0E03               	movlw	3
   643   001652  6E61               	movwf	(READ_DATA_EEPROM@add+1)^0,c
   644   001654  6860               	setf	READ_DATA_EEPROM@add^0,c
   645   001656  0E59               	movlw	low _counter
   646   001658  6E62               	movwf	READ_DATA_EEPROM@data^0,c
   647   00165A  ECEF  F00D         	call	_READ_DATA_EEPROM	;wreg free
   648   00165E                     l3833:
   649                           
   650                           ;application.c: 34:         if(!counter){
   651   00165E  5059               	movf	_counter^0,w,c	;volatile
   652   001660  A4D8               	btfss	status,2,c
   653   001662  EF35  F00B         	goto	u2941
   654   001666  EF37  F00B         	goto	u2940
   655   00166A                     u2941:
   656   00166A  EF4C  F00B         	goto	l3839
   657   00166E                     u2940:
   658   00166E                     
   659                           ;application.c: 35:             led_turn_toggle(&led1);
   660   00166E  0E3B               	movlw	low _led1
   661   001670  6E65               	movwf	led_turn_toggle@led^0,c
   662   001672  EC46  F00C         	call	_led_turn_toggle	;wreg free
   663                           
   664                           ;application.c: 36:             led_turn_off(&led2);
   665   001676  0E3A               	movlw	low _led2
   666   001678  6E68               	movwf	led_turn_off@led^0,c
   667   00167A  ECA1  F00B         	call	_led_turn_off	;wreg free
   668   00167E                     
   669                           ;application.c: 37:             _delay((unsigned long)((250)*(8000000/4000.0)));
   670   00167E  0E03               	movlw	3
   671   001680  6E6E               	movwf	(??_main+1)^0,c
   672   001682  0E8A               	movlw	138
   673   001684  6E6D               	movwf	??_main^0,c
   674   001686  0E56               	movlw	86
   675   001688                     u2957:
   676   001688  2EE8               	decfsz	wreg,f,c
   677   00168A  D7FE               	bra	u2957
   678   00168C  2E6D               	decfsz	??_main^0,f,c
   679   00168E  D7FC               	bra	u2957
   680   001690  2E6E               	decfsz	(??_main+1)^0,f,c
   681   001692  D7FA               	bra	u2957
   682                           
   683                           ;application.c: 38:         }
   684   001694  EF2F  F00B         	goto	l3833
   685   001698                     l3839:
   686                           
   687                           ;application.c: 40:             led_turn_toggle(&led2);
   688   001698  0E3A               	movlw	low _led2
   689   00169A  6E65               	movwf	led_turn_toggle@led^0,c
   690   00169C  EC46  F00C         	call	_led_turn_toggle	;wreg free
   691                           
   692                           ;application.c: 41:             led_turn_off(&led1);
   693   0016A0  0E3B               	movlw	low _led1
   694   0016A2  6E68               	movwf	led_turn_off@led^0,c
   695   0016A4  ECA1  F00B         	call	_led_turn_off	;wreg free
   696   0016A8                     
   697                           ;application.c: 42:             _delay((unsigned long)((500)*(8000000/4000.0)));
   698   0016A8  0E06               	movlw	6
   699   0016AA  6E6E               	movwf	(??_main+1)^0,c
   700   0016AC  0E13               	movlw	19
   701   0016AE  6E6D               	movwf	??_main^0,c
   702   0016B0  0EAE               	movlw	174
   703   0016B2                     u2967:
   704   0016B2  2EE8               	decfsz	wreg,f,c
   705   0016B4  D7FE               	bra	u2967
   706   0016B6  2E6D               	decfsz	??_main^0,f,c
   707   0016B8  D7FC               	bra	u2967
   708   0016BA  2E6E               	decfsz	(??_main+1)^0,f,c
   709   0016BC  D7FA               	bra	u2967
   710   0016BE  EF2F  F00B         	goto	l3833
   711   0016C2  EF07  F000         	goto	start
   712   0016C6                     __end_of_main:
   713                           	callstack 0
   714                           
   715 ;; *************** function _led_turn_toggle *****************
   716 ;; Defined at:
   717 ;;		line 54 in file "ECU_Layer/LED/ecu_led.c"
   718 ;; Parameters:    Size  Location     Type
   719 ;;  led             1   11[COMRAM] PTR const struct .
   720 ;;		 -> led2(1), led1(1), 
   721 ;; Auto vars:     Size  Location     Type
   722 ;;  pin_obj         1   13[COMRAM] struct .
   723 ;;  ret             1    0        unsigned char 
   724 ;; Return value:  Size  Location     Type
   725 ;;                  1    wreg      unsigned char 
   726 ;; Registers used:
   727 ;;		wreg, fsr2l, fsr2h, status,2, status,0, prodl, prodh, cstack
   728 ;; Tracked objects:
   729 ;;		On entry : 0/0
   730 ;;		On exit  : 0/0
   731 ;;		Unchanged: 0/0
   732 ;; Data sizes:     COMRAM   BANK0   BANK1   BANK2   BANK3   BANK4   BANK5   BANK6   BANK7   BANK8   BANK9  BANK10  BANK1
      +1  BANK12  BANK13  BANK14  BANK15
   733 ;;      Params:         1       0       0       0       0       0       0       0       0       0       0       0       
      +0       0       0       0       0
   734 ;;      Locals:         1       0       0       0       0       0       0       0       0       0       0       0       
      +0       0       0       0       0
   735 ;;      Temps:          1       0       0       0       0       0       0       0       0       0       0       0       
      +0       0       0       0       0
   736 ;;      Totals:         3       0       0       0       0       0       0       0       0       0       0       0       
      +0       0       0       0       0
   737 ;;Total ram usage:        3 bytes
   738 ;; Hardware stack levels used: 1
   739 ;; Hardware stack levels required when called: 5
   740 ;; This function calls:
   741 ;;		_gpio_pin_toggle_logic
   742 ;; This function is called by:
   743 ;;		_main
   744 ;; This function uses a non-reentrant model
   745 ;;
   746                           
   747                           	psect	text1
   748   00188C                     __ptext1:
   749                           	callstack 0
   750   00188C                     _led_turn_toggle:
   751                           	callstack 25
   752   00188C                     
   753                           ;ECU_Layer/LED/ecu_led.c: 56:     if(led == ((void*)0)){
   754   00188C  5065               	movf	led_turn_toggle@led^0,w,c
   755   00188E  A4D8               	btfss	status,2,c
   756   001890  EF4C  F00C         	goto	u2071
   757   001894  EF4E  F00C         	goto	u2070
   758   001898                     u2071:
   759   001898  EF50  F00C         	goto	l266
   760   00189C                     u2070:
   761   00189C                     
   762                           ;ECU_Layer/LED/ecu_led.c: 58:     }
   763   00189C  EF7A  F00C         	goto	l270
   764   0018A0                     l266:
   765                           
   766                           ;ECU_Layer/LED/ecu_led.c: 60:         pin_config_t pin_obj = {.port = led->port_name, .p
      +                          in = led->pin_name,
   767   0018A0  C055  F067         	movff	led_turn_toggle@F3077,led_turn_toggle@pin_obj
   768   0018A4  5065               	movf	led_turn_toggle@led^0,w,c
   769   0018A6  6ED9               	movwf	fsr2l,c
   770   0018A8  6ADA               	clrf	fsr2h,c
   771   0018AA  50DF               	movf	223,w,c
   772   0018AC  0B07               	andlw	7
   773   0018AE  6E66               	movwf	??_led_turn_toggle^0,c
   774   0018B0  5067               	movf	led_turn_toggle@pin_obj^0,w,c
   775   0018B2  1866               	xorwf	??_led_turn_toggle^0,w,c
   776   0018B4  0BF8               	andlw	-8
   777   0018B6  1866               	xorwf	??_led_turn_toggle^0,w,c
   778   0018B8  6E67               	movwf	led_turn_toggle@pin_obj^0,c
   779   0018BA  5065               	movf	led_turn_toggle@led^0,w,c
   780   0018BC  6ED9               	movwf	fsr2l,c
   781   0018BE  6ADA               	clrf	fsr2h,c
   782   0018C0  30DF               	rrcf	223,w,c
   783   0018C2  32E8               	rrcf	wreg,f,c
   784   0018C4  32E8               	rrcf	wreg,f,c
   785   0018C6  0B07               	andlw	7
   786   0018C8  6E66               	movwf	??_led_turn_toggle^0,c
   787   0018CA  4666               	rlncf	??_led_turn_toggle^0,f,c
   788   0018CC  4666               	rlncf	??_led_turn_toggle^0,f,c
   789   0018CE  4666               	rlncf	??_led_turn_toggle^0,f,c
   790   0018D0  5067               	movf	led_turn_toggle@pin_obj^0,w,c
   791   0018D2  1866               	xorwf	??_led_turn_toggle^0,w,c
   792   0018D4  0BC7               	andlw	-57
   793   0018D6  1866               	xorwf	??_led_turn_toggle^0,w,c
   794   0018D8  6E67               	movwf	led_turn_toggle@pin_obj^0,c
   795   0018DA  9C67               	bcf	led_turn_toggle@pin_obj^0,6,c
   796   0018DC  5065               	movf	led_turn_toggle@led^0,w,c
   797   0018DE  6ED9               	movwf	fsr2l,c
   798   0018E0  6ADA               	clrf	fsr2h,c
   799   0018E2  ACDF               	btfss	indf2,6,c
   800   0018E4  D002               	bra	u2085
   801   0018E6  8E67               	bsf	led_turn_toggle@pin_obj^0,7,c
   802   0018E8  D001               	bra	u2087
   803   0018EA                     u2085:
   804   0018EA  9E67               	bcf	led_turn_toggle@pin_obj^0,7,c
   805   0018EC                     u2087:
   806   0018EC                     
   807                           ;ECU_Layer/LED/ecu_led.c: 62:         gpio_pin_toggle_logic(&pin_obj);
   808   0018EC  0E67               	movlw	low led_turn_toggle@pin_obj
   809   0018EE  6E60               	movwf	gpio_pin_toggle_logic@_pin_config^0,c
   810   0018F0  ECB0  F00C         	call	_gpio_pin_toggle_logic	;wreg free
   811   0018F4                     l270:
   812   0018F4  0012               	return		;funcret
   813   0018F6                     __end_of_led_turn_toggle:
   814                           	callstack 0
   815                           
   816 ;; *************** function _gpio_pin_toggle_logic *****************
   817 ;; Defined at:
   818 ;;		line 116 in file "MCAL_Layer/GPIO/hal_gpio.c"
   819 ;; Parameters:    Size  Location     Type
   820 ;;  _pin_config     1    6[COMRAM] PTR const struct .
   821 ;;		 -> led_turn_toggle@pin_obj(1), 
   822 ;; Auto vars:     Size  Location     Type
   823 ;;  ret             1    0        unsigned char 
   824 ;; Return value:  Size  Location     Type
   825 ;;                  1    wreg      unsigned char 
   826 ;; Registers used:
   827 ;;		wreg, fsr2l, fsr2h, status,2, status,0, prodl, prodh
   828 ;; Tracked objects:
   829 ;;		On entry : 0/0
   830 ;;		On exit  : 0/0
   831 ;;		Unchanged: 0/0
   832 ;; Data sizes:     COMRAM   BANK0   BANK1   BANK2   BANK3   BANK4   BANK5   BANK6   BANK7   BANK8   BANK9  BANK10  BANK1
      +1  BANK12  BANK13  BANK14  BANK15
   833 ;;      Params:         1       0       0       0       0       0       0       0       0       0       0       0       
      +0       0       0       0       0
   834 ;;      Locals:         0       0       0       0       0       0       0       0       0       0       0       0       
      +0       0       0       0       0
   835 ;;      Temps:          4       0       0       0       0       0       0       0       0       0       0       0       
      +0       0       0       0       0
   836 ;;      Totals:         5       0       0       0       0       0       0       0       0       0       0       0       
      +0       0       0       0       0
   837 ;;Total ram usage:        5 bytes
   838 ;; Hardware stack levels used: 1
   839 ;; Hardware stack levels required when called: 4
   840 ;; This function calls:
   841 ;;		Nothing
   842 ;; This function is called by:
   843 ;;		_led_turn_toggle
   844 ;; This function uses a non-reentrant model
   845 ;;
   846                           
   847                           	psect	text2
   848   001960                     __ptext2:
   849                           	callstack 0
   850   001960                     _gpio_pin_toggle_logic:
   851                           	callstack 25
   852   001960                     
   853                           ;MCAL_Layer/GPIO/hal_gpio.c: 118:     if(((void*)0) == _pin_config ){
   854   001960  5060               	movf	gpio_pin_toggle_logic@_pin_config^0,w,c
   855   001962  A4D8               	btfss	status,2,c
   856   001964  EFB6  F00C         	goto	u1831
   857   001968  EFB8  F00C         	goto	u1830
   858   00196C                     u1831:
   859   00196C  EFBA  F00C         	goto	l2969
   860   001970                     u1830:
   861   001970                     
   862                           ;MCAL_Layer/GPIO/hal_gpio.c: 120:     }
   863   001970  EFE0  F00C         	goto	l407
   864   001974                     l2969:
   865                           
   866                           ;MCAL_Layer/GPIO/hal_gpio.c: 122:         (*lat_registers[_pin_config->port] ^= ((uint8)
      +                          1<<_pin_config->pin));
   867   001974  5060               	movf	gpio_pin_toggle_logic@_pin_config^0,w,c
   868   001976  6ED9               	movwf	fsr2l,c
   869   001978  6ADA               	clrf	fsr2h,c
   870   00197A  30DF               	rrcf	223,w,c
   871   00197C  32E8               	rrcf	wreg,f,c
   872   00197E  32E8               	rrcf	wreg,f,c
   873   001980  0B07               	andlw	7
   874   001982  6E61               	movwf	??_gpio_pin_toggle_logic^0,c
   875   001984  0E01               	movlw	1
   876   001986  6E62               	movwf	(??_gpio_pin_toggle_logic+1)^0,c
   877   001988  2A61               	incf	??_gpio_pin_toggle_logic^0,f,c
   878   00198A  EFC9  F00C         	goto	u1844
   879   00198E                     u1845:
   880   00198E  90D8               	bcf	status,0,c
   881   001990  3662               	rlcf	(??_gpio_pin_toggle_logic+1)^0,f,c
   882   001992                     u1844:
   883   001992  2E61               	decfsz	??_gpio_pin_toggle_logic^0,f,c
   884   001994  EFC7  F00C         	goto	u1845
   885   001998  5060               	movf	gpio_pin_toggle_logic@_pin_config^0,w,c
   886   00199A  6ED9               	movwf	fsr2l,c
   887   00199C  6ADA               	clrf	fsr2h,c
   888   00199E  50DF               	movf	223,w,c
   889   0019A0  0B07               	andlw	7
   890   0019A2  0D02               	mullw	2
   891   0019A4  50F3               	movf	243,w,c
   892   0019A6  0F1B               	addlw	low _lat_registers
   893   0019A8  6ED9               	movwf	fsr2l,c
   894   0019AA  6ADA               	clrf	fsr2h,c
   895   0019AC  CFDE F063          	movff	postinc2,??_gpio_pin_toggle_logic+2
   896   0019B0  CFDD F064          	movff	postdec2,??_gpio_pin_toggle_logic+3
   897   0019B4  C063  FFD9         	movff	??_gpio_pin_toggle_logic+2,fsr2l
   898   0019B8  C064  FFDA         	movff	??_gpio_pin_toggle_logic+3,fsr2h
   899   0019BC  5062               	movf	(??_gpio_pin_toggle_logic+1)^0,w,c
   900   0019BE  1ADF               	xorwf	indf2,f,c
   901   0019C0                     l407:
   902   0019C0  0012               	return		;funcret
   903   0019C2                     __end_of_gpio_pin_toggle_logic:
   904                           	callstack 0
   905                           
   906 ;; *************** function _led_turn_off *****************
   907 ;; Defined at:
   908 ;;		line 42 in file "ECU_Layer/LED/ecu_led.c"
   909 ;; Parameters:    Size  Location     Type
   910 ;;  led             1   14[COMRAM] PTR const struct .
   911 ;;		 -> led2(1), led1(1), 
   912 ;; Auto vars:     Size  Location     Type
   913 ;;  pin_obj         1   16[COMRAM] struct .
   914 ;;  ret             1    0        unsigned char 
   915 ;; Return value:  Size  Location     Type
   916 ;;                  1    wreg      unsigned char 
   917 ;; Registers used:
   918 ;;		wreg, fsr2l, fsr2h, status,2, status,0, prodl, prodh, cstack
   919 ;; Tracked objects:
   920 ;;		On entry : 0/0
   921 ;;		On exit  : 0/0
   922 ;;		Unchanged: 0/0
   923 ;; Data sizes:     COMRAM   BANK0   BANK1   BANK2   BANK3   BANK4   BANK5   BANK6   BANK7   BANK8   BANK9  BANK10  BANK1
      +1  BANK12  BANK13  BANK14  BANK15
   924 ;;      Params:         1       0       0       0       0       0       0       0       0       0       0       0       
      +0       0       0       0       0
   925 ;;      Locals:         1       0       0       0       0       0       0       0       0       0       0       0       
      +0       0       0       0       0
   926 ;;      Temps:          1       0       0       0       0       0       0       0       0       0       0       0       
      +0       0       0       0       0
   927 ;;      Totals:         3       0       0       0       0       0       0       0       0       0       0       0       
      +0       0       0       0       0
   928 ;;Total ram usage:        3 bytes
   929 ;; Hardware stack levels used: 1
   930 ;; Hardware stack levels required when called: 5
   931 ;; This function calls:
   932 ;;		_gpio_pin_write_logic
   933 ;; This function is called by:
   934 ;;		_main
   935 ;; This function uses a non-reentrant model
   936 ;;
   937                           
   938                           	psect	text3
   939   001742                     __ptext3:
   940                           	callstack 0
   941   001742                     _led_turn_off:
   942                           	callstack 25
   943   001742                     
   944                           ;ECU_Layer/LED/ecu_led.c: 44:     if(led == ((void*)0)){
   945   001742  5068               	movf	led_turn_off@led^0,w,c
   946   001744  A4D8               	btfss	status,2,c
   947   001746  EFA7  F00B         	goto	u2051
   948   00174A  EFA9  F00B         	goto	u2050
   949   00174E                     u2051:
   950   00174E  EFAB  F00B         	goto	l259
   951   001752                     u2050:
   952   001752                     
   953                           ;ECU_Layer/LED/ecu_led.c: 46:     }
   954   001752  EFD7  F00B         	goto	l263
   955   001756                     l259:
   956                           
   957                           ;ECU_Layer/LED/ecu_led.c: 48:         pin_config_t pin_obj = {.port = led->port_name, .p
      +                          in = led->pin_name,
   958   001756  C056  F06A         	movff	led_turn_off@F3072,led_turn_off@pin_obj
   959   00175A  5068               	movf	led_turn_off@led^0,w,c
   960   00175C  6ED9               	movwf	fsr2l,c
   961   00175E  6ADA               	clrf	fsr2h,c
   962   001760  50DF               	movf	223,w,c
   963   001762  0B07               	andlw	7
   964   001764  6E69               	movwf	??_led_turn_off^0,c
   965   001766  506A               	movf	led_turn_off@pin_obj^0,w,c
   966   001768  1869               	xorwf	??_led_turn_off^0,w,c
   967   00176A  0BF8               	andlw	-8
   968   00176C  1869               	xorwf	??_led_turn_off^0,w,c
   969   00176E  6E6A               	movwf	led_turn_off@pin_obj^0,c
   970   001770  5068               	movf	led_turn_off@led^0,w,c
   971   001772  6ED9               	movwf	fsr2l,c
   972   001774  6ADA               	clrf	fsr2h,c
   973   001776  30DF               	rrcf	223,w,c
   974   001778  32E8               	rrcf	wreg,f,c
   975   00177A  32E8               	rrcf	wreg,f,c
   976   00177C  0B07               	andlw	7
   977   00177E  6E69               	movwf	??_led_turn_off^0,c
   978   001780  4669               	rlncf	??_led_turn_off^0,f,c
   979   001782  4669               	rlncf	??_led_turn_off^0,f,c
   980   001784  4669               	rlncf	??_led_turn_off^0,f,c
   981   001786  506A               	movf	led_turn_off@pin_obj^0,w,c
   982   001788  1869               	xorwf	??_led_turn_off^0,w,c
   983   00178A  0BC7               	andlw	-57
   984   00178C  1869               	xorwf	??_led_turn_off^0,w,c
   985   00178E  6E6A               	movwf	led_turn_off@pin_obj^0,c
   986   001790  9C6A               	bcf	led_turn_off@pin_obj^0,6,c
   987   001792  5068               	movf	led_turn_off@led^0,w,c
   988   001794  6ED9               	movwf	fsr2l,c
   989   001796  6ADA               	clrf	fsr2h,c
   990   001798  ACDF               	btfss	indf2,6,c
   991   00179A  D002               	bra	u2065
   992   00179C  8E6A               	bsf	led_turn_off@pin_obj^0,7,c
   993   00179E  D001               	bra	u2067
   994   0017A0                     u2065:
   995   0017A0  9E6A               	bcf	led_turn_off@pin_obj^0,7,c
   996   0017A2                     u2067:
   997   0017A2                     
   998                           ;ECU_Layer/LED/ecu_led.c: 50:         gpio_pin_write_logic(&pin_obj,GPIO_LOW);
   999   0017A2  0E6A               	movlw	low led_turn_off@pin_obj
  1000   0017A4  6E60               	movwf	gpio_pin_write_logic@_pin_config^0,c
  1001   0017A6  0E00               	movlw	0
  1002   0017A8  6E61               	movwf	gpio_pin_write_logic@logic^0,c
  1003   0017AA  ECF4  F009         	call	_gpio_pin_write_logic	;wreg free
  1004   0017AE                     l263:
  1005   0017AE  0012               	return		;funcret
  1006   0017B0                     __end_of_led_turn_off:
  1007                           	callstack 0
  1008                           
  1009 ;; *************** function _application_initialize *****************
  1010 ;; Defined at:
  1011 ;;		line 48 in file "application.c"
  1012 ;; Parameters:    Size  Location     Type
  1013 ;;		None
  1014 ;; Auto vars:     Size  Location     Type
  1015 ;;		None
  1016 ;; Return value:  Size  Location     Type
  1017 ;;                  1    wreg      void 
  1018 ;; Registers used:
  1019 ;;		wreg, fsr2l, fsr2h, status,2, status,0, prodl, prodh, cstack
  1020 ;; Tracked objects:
  1021 ;;		On entry : 0/0
  1022 ;;		On exit  : 0/0
  1023 ;;		Unchanged: 0/0
  1024 ;; Data sizes:     COMRAM   BANK0   BANK1   BANK2   BANK3   BANK4   BANK5   BANK6   BANK7   BANK8   BANK9  BANK10  BANK1
      +1  BANK12  BANK13  BANK14  BANK15
  1025 ;;      Params:         0       0       0       0       0       0       0       0       0       0       0       0       
      +0       0       0       0       0
  1026 ;;      Locals:         0       0       0       0       0       0       0       0       0       0       0       0       
      +0       0       0       0       0
  1027 ;;      Temps:          0       0       0       0       0       0       0       0       0       0       0       0       
      +0       0       0       0       0
  1028 ;;      Totals:         0       0       0       0       0       0       0       0       0       0       0       0       
      +0       0       0       0       0
  1029 ;;Total ram usage:        0 bytes
  1030 ;; Hardware stack levels used: 1
  1031 ;; Hardware stack levels required when called: 8
  1032 ;; This function calls:
  1033 ;;		_Ecu_initialize
  1034 ;; This function is called by:
  1035 ;;		_main
  1036 ;; This function uses a non-reentrant model
  1037 ;;
  1038                           
  1039                           	psect	text4
  1040   001CE4                     __ptext4:
  1041                           	callstack 0
  1042   001CE4                     _application_initialize:
  1043                           	callstack 22
  1044   001CE4                     
  1045                           ;application.c: 49:     ret = Ecu_initialize();
  1046   001CE4  EC3E  F00E         	call	_Ecu_initialize	;wreg free
  1047   001CE8  6E6F               	movwf	_ret^0,c
  1048   001CEA  0012               	return		;funcret
  1049   001CEC                     __end_of_application_initialize:
  1050                           	callstack 0
  1051                           
  1052 ;; *************** function _Ecu_initialize *****************
  1053 ;; Defined at:
  1054 ;;		line 42 in file "ECU_Layer/ECU_LAYER.c"
  1055 ;; Parameters:    Size  Location     Type
  1056 ;;		None
  1057 ;; Auto vars:     Size  Location     Type
  1058 ;;		None
  1059 ;; Return value:  Size  Location     Type
  1060 ;;                  1    wreg      unsigned char 
  1061 ;; Registers used:
  1062 ;;		wreg, fsr2l, fsr2h, status,2, status,0, prodl, prodh, cstack
  1063 ;; Tracked objects:
  1064 ;;		On entry : 0/0
  1065 ;;		On exit  : 0/0
  1066 ;;		Unchanged: 0/0
  1067 ;; Data sizes:     COMRAM   BANK0   BANK1   BANK2   BANK3   BANK4   BANK5   BANK6   BANK7   BANK8   BANK9  BANK10  BANK1
      +1  BANK12  BANK13  BANK14  BANK15
  1068 ;;      Params:         0       0       0       0       0       0       0       0       0       0       0       0       
      +0       0       0       0       0
  1069 ;;      Locals:         0       0       0       0       0       0       0       0       0       0       0       0       
      +0       0       0       0       0
  1070 ;;      Temps:          0       0       0       0       0       0       0       0       0       0       0       0       
      +0       0       0       0       0
  1071 ;;      Totals:         0       0       0       0       0       0       0       0       0       0       0       0       
      +0       0       0       0       0
  1072 ;;Total ram usage:        0 bytes
  1073 ;; Hardware stack levels used: 1
  1074 ;; Hardware stack levels required when called: 7
  1075 ;; This function calls:
  1076 ;;		_led_initialize
  1077 ;; This function is called by:
  1078 ;;		_application_initialize
  1079 ;; This function uses a non-reentrant model
  1080 ;;
  1081                           
  1082                           	psect	text5
  1083   001C7C                     __ptext5:
  1084                           	callstack 0
  1085   001C7C                     _Ecu_initialize:
  1086                           	callstack 22
  1087   001C7C                     
  1088                           ;ECU_Layer/ECU_LAYER.c: 44:     led_initialize(&led1);
  1089   001C7C  0E3B               	movlw	low _led1
  1090   001C7E  6E6A               	movwf	led_initialize@led^0,c
  1091   001C80  EC7B  F00C         	call	_led_initialize	;wreg free
  1092                           
  1093                           ;ECU_Layer/ECU_LAYER.c: 45:     led_initialize(&led2);
  1094   001C84  0E3A               	movlw	low _led2
  1095   001C86  6E6A               	movwf	led_initialize@led^0,c
  1096   001C88  EC7B  F00C         	call	_led_initialize	;wreg free
  1097                           
  1098                           ;ECU_Layer/ECU_LAYER.c: 46:     led_initialize(&led3);
  1099   001C8C  0E39               	movlw	low _led3
  1100   001C8E  6E6A               	movwf	led_initialize@led^0,c
  1101   001C90  EC7B  F00C         	call	_led_initialize	;wreg free
  1102   001C94  0012               	return		;funcret
  1103   001C96                     __end_of_Ecu_initialize:
  1104                           	callstack 0
  1105                           
  1106 ;; *************** function _led_initialize *****************
  1107 ;; Defined at:
  1108 ;;		line 13 in file "ECU_Layer/LED/ecu_led.c"
  1109 ;; Parameters:    Size  Location     Type
  1110 ;;  led             1   16[COMRAM] PTR const struct .
  1111 ;;		 -> led3(1), led2(1), led1(1), 
  1112 ;; Auto vars:     Size  Location     Type
  1113 ;;  pin_obj         1   18[COMRAM] struct .
  1114 ;;  ret             1    0        unsigned char 
  1115 ;; Return value:  Size  Location     Type
  1116 ;;                  1    wreg      unsigned char 
  1117 ;; Registers used:
  1118 ;;		wreg, fsr2l, fsr2h, status,2, status,0, prodl, prodh, cstack
  1119 ;; Tracked objects:
  1120 ;;		On entry : 0/0
  1121 ;;		On exit  : 0/0
  1122 ;;		Unchanged: 0/0
  1123 ;; Data sizes:     COMRAM   BANK0   BANK1   BANK2   BANK3   BANK4   BANK5   BANK6   BANK7   BANK8   BANK9  BANK10  BANK1
      +1  BANK12  BANK13  BANK14  BANK15
  1124 ;;      Params:         1       0       0       0       0       0       0       0       0       0       0       0       
      +0       0       0       0       0
  1125 ;;      Locals:         1       0       0       0       0       0       0       0       0       0       0       0       
      +0       0       0       0       0
  1126 ;;      Temps:          1       0       0       0       0       0       0       0       0       0       0       0       
      +0       0       0       0       0
  1127 ;;      Totals:         3       0       0       0       0       0       0       0       0       0       0       0       
      +0       0       0       0       0
  1128 ;;Total ram usage:        3 bytes
  1129 ;; Hardware stack levels used: 1
  1130 ;; Hardware stack levels required when called: 6
  1131 ;; This function calls:
  1132 ;;		_gpio_pin_initialize
  1133 ;; This function is called by:
  1134 ;;		_Ecu_initialize
  1135 ;; This function uses a non-reentrant model
  1136 ;;
  1137                           
  1138                           	psect	text6
  1139   0018F6                     __ptext6:
  1140                           	callstack 0
  1141   0018F6                     _led_initialize:
  1142                           	callstack 22
  1143   0018F6                     
  1144                           ;ECU_Layer/LED/ecu_led.c: 15:     if(led == ((void*)0)){
  1145   0018F6  506A               	movf	led_initialize@led^0,w,c
  1146   0018F8  A4D8               	btfss	status,2,c
  1147   0018FA  EF81  F00C         	goto	u1691
  1148   0018FE  EF83  F00C         	goto	u1690
  1149   001902                     u1691:
  1150   001902  EF85  F00C         	goto	l245
  1151   001906                     u1690:
  1152   001906                     
  1153                           ;ECU_Layer/LED/ecu_led.c: 17:     }
  1154   001906  EFAF  F00C         	goto	l249
  1155   00190A                     l245:
  1156                           
  1157                           ;ECU_Layer/LED/ecu_led.c: 19:         pin_config_t pin_obj = {.port = led->port_name, .p
      +                          in = led->pin_name,
  1158   00190A  C058  F06C         	movff	led_initialize@F3062,led_initialize@pin_obj
  1159   00190E  506A               	movf	led_initialize@led^0,w,c
  1160   001910  6ED9               	movwf	fsr2l,c
  1161   001912  6ADA               	clrf	fsr2h,c
  1162   001914  50DF               	movf	223,w,c
  1163   001916  0B07               	andlw	7
  1164   001918  6E6B               	movwf	??_led_initialize^0,c
  1165   00191A  506C               	movf	led_initialize@pin_obj^0,w,c
  1166   00191C  186B               	xorwf	??_led_initialize^0,w,c
  1167   00191E  0BF8               	andlw	-8
  1168   001920  186B               	xorwf	??_led_initialize^0,w,c
  1169   001922  6E6C               	movwf	led_initialize@pin_obj^0,c
  1170   001924  506A               	movf	led_initialize@led^0,w,c
  1171   001926  6ED9               	movwf	fsr2l,c
  1172   001928  6ADA               	clrf	fsr2h,c
  1173   00192A  30DF               	rrcf	223,w,c
  1174   00192C  32E8               	rrcf	wreg,f,c
  1175   00192E  32E8               	rrcf	wreg,f,c
  1176   001930  0B07               	andlw	7
  1177   001932  6E6B               	movwf	??_led_initialize^0,c
  1178   001934  466B               	rlncf	??_led_initialize^0,f,c
  1179   001936  466B               	rlncf	??_led_initialize^0,f,c
  1180   001938  466B               	rlncf	??_led_initialize^0,f,c
  1181   00193A  506C               	movf	led_initialize@pin_obj^0,w,c
  1182   00193C  186B               	xorwf	??_led_initialize^0,w,c
  1183   00193E  0BC7               	andlw	-57
  1184   001940  186B               	xorwf	??_led_initialize^0,w,c
  1185   001942  6E6C               	movwf	led_initialize@pin_obj^0,c
  1186   001944  9C6C               	bcf	led_initialize@pin_obj^0,6,c
  1187   001946  506A               	movf	led_initialize@led^0,w,c
  1188   001948  6ED9               	movwf	fsr2l,c
  1189   00194A  6ADA               	clrf	fsr2h,c
  1190   00194C  ACDF               	btfss	indf2,6,c
  1191   00194E  D002               	bra	u1705
  1192   001950  8E6C               	bsf	led_initialize@pin_obj^0,7,c
  1193   001952  D001               	bra	u1707
  1194   001954                     u1705:
  1195   001954  9E6C               	bcf	led_initialize@pin_obj^0,7,c
  1196   001956                     u1707:
  1197   001956                     
  1198                           ;ECU_Layer/LED/ecu_led.c: 21:         gpio_pin_initialize(&pin_obj);
  1199   001956  0E6C               	movlw	low led_initialize@pin_obj
  1200   001958  6E68               	movwf	gpio_pin_initialize@_pin_config^0,c
  1201   00195A  EC29  F00D         	call	_gpio_pin_initialize	;wreg free
  1202   00195E                     l249:
  1203   00195E  0012               	return		;funcret
  1204   001960                     __end_of_led_initialize:
  1205                           	callstack 0
  1206                           
  1207 ;; *************** function _gpio_pin_initialize *****************
  1208 ;; Defined at:
  1209 ;;		line 134 in file "MCAL_Layer/GPIO/hal_gpio.c"
  1210 ;; Parameters:    Size  Location     Type
  1211 ;;  _pin_config     1   14[COMRAM] PTR const struct .
  1212 ;;		 -> relay_initialization@pin_obj(1), led_initialize@pin_obj(1), 
  1213 ;; Auto vars:     Size  Location     Type
  1214 ;;  ret             1   15[COMRAM] unsigned char 
  1215 ;; Return value:  Size  Location     Type
  1216 ;;                  1    wreg      unsigned char 
  1217 ;; Registers used:
  1218 ;;		wreg, fsr2l, fsr2h, status,2, status,0, prodl, prodh, cstack
  1219 ;; Tracked objects:
  1220 ;;		On entry : 0/0
  1221 ;;		On exit  : 0/0
  1222 ;;		Unchanged: 0/0
  1223 ;; Data sizes:     COMRAM   BANK0   BANK1   BANK2   BANK3   BANK4   BANK5   BANK6   BANK7   BANK8   BANK9  BANK10  BANK1
      +1  BANK12  BANK13  BANK14  BANK15
  1224 ;;      Params:         1       0       0       0       0       0       0       0       0       0       0       0       
      +0       0       0       0       0
  1225 ;;      Locals:         1       0       0       0       0       0       0       0       0       0       0       0       
      +0       0       0       0       0
  1226 ;;      Temps:          0       0       0       0       0       0       0       0       0       0       0       0       
      +0       0       0       0       0
  1227 ;;      Totals:         2       0       0       0       0       0       0       0       0       0       0       0       
      +0       0       0       0       0
  1228 ;;Total ram usage:        2 bytes
  1229 ;; Hardware stack levels used: 1
  1230 ;; Hardware stack levels required when called: 5
  1231 ;; This function calls:
  1232 ;;		_gpio_pin_direction_intialize
  1233 ;;		_gpio_pin_write_logic
  1234 ;; This function is called by:
  1235 ;;		_led_initialize
  1236 ;;		_sev_seg_initialize
  1237 ;;		_keypad_initialize
  1238 ;;		_lcd_8bit_initialize
  1239 ;;		_lcd_4bit_initialize
  1240 ;;		_motor_initialize
  1241 ;;		_relay_initialization
  1242 ;; This function uses a non-reentrant model
  1243 ;;
  1244                           
  1245                           	psect	text7
  1246   001A52                     __ptext7:
  1247                           	callstack 0
  1248   001A52                     _gpio_pin_initialize:
  1249                           	callstack 22
  1250   001A52                     
  1251                           ;MCAL_Layer/GPIO/hal_gpio.c: 135:     std_ReturnType ret = (std_ReturnType)0x01;
  1252   001A52  0E01               	movlw	1
  1253   001A54  6E69               	movwf	gpio_pin_initialize@ret^0,c
  1254                           
  1255                           ;MCAL_Layer/GPIO/hal_gpio.c: 136:     if(((void*)0) == _pin_config ){
  1256   001A56  5068               	movf	gpio_pin_initialize@_pin_config^0,w,c
  1257   001A58  A4D8               	btfss	status,2,c
  1258   001A5A  EF31  F00D         	goto	u1681
  1259   001A5E  EF33  F00D         	goto	u1680
  1260   001A62                     u1681:
  1261   001A62  EF37  F00D         	goto	l2813
  1262   001A66                     u1680:
  1263   001A66                     
  1264                           ;MCAL_Layer/GPIO/hal_gpio.c: 137:         ret = (std_ReturnType)0x00;
  1265   001A66  0E00               	movlw	0
  1266   001A68  6E69               	movwf	gpio_pin_initialize@ret^0,c
  1267                           
  1268                           ;MCAL_Layer/GPIO/hal_gpio.c: 138:     }
  1269   001A6A  EF46  F00D         	goto	l2815
  1270   001A6E                     l2813:
  1271                           
  1272                           ;MCAL_Layer/GPIO/hal_gpio.c: 140:         gpio_pin_direction_intialize(_pin_config);
  1273   001A6E  C068  F060         	movff	gpio_pin_initialize@_pin_config,gpio_pin_direction_intialize@_pin_config
  1274   001A72  EC6B  F009         	call	_gpio_pin_direction_intialize	;wreg free
  1275                           
  1276                           ;MCAL_Layer/GPIO/hal_gpio.c: 141:         gpio_pin_write_logic(_pin_config,_pin_config->
      +                          logic);
  1277   001A76  C068  F060         	movff	gpio_pin_initialize@_pin_config,gpio_pin_write_logic@_pin_config
  1278   001A7A  5068               	movf	gpio_pin_initialize@_pin_config^0,w,c
  1279   001A7C  6ED9               	movwf	fsr2l,c
  1280   001A7E  6ADA               	clrf	fsr2h,c
  1281   001A80  0E00               	movlw	0
  1282   001A82  BEDF               	btfsc	indf2,7,c
  1283   001A84  0E01               	movlw	1
  1284   001A86  6E61               	movwf	gpio_pin_write_logic@logic^0,c
  1285   001A88  ECF4  F009         	call	_gpio_pin_write_logic	;wreg free
  1286   001A8C                     l2815:
  1287                           
  1288                           ;MCAL_Layer/GPIO/hal_gpio.c: 143:     return ret;
  1289   001A8C  5069               	movf	gpio_pin_initialize@ret^0,w,c
  1290   001A8E  0012               	return		;funcret
  1291   001A90                     __end_of_gpio_pin_initialize:
  1292                           	callstack 0
  1293                           
  1294 ;; *************** function _gpio_pin_write_logic *****************
  1295 ;; Defined at:
  1296 ;;		line 68 in file "MCAL_Layer/GPIO/hal_gpio.c"
  1297 ;; Parameters:    Size  Location     Type
  1298 ;;  _pin_config     1    6[COMRAM] PTR const struct .
  1299 ;;		 -> relay_turn_off@pin_obj(1), relay_turn_on@pin_obj(1), relay_initialization@pin_obj(1), led_turn_off@pin_obj(1), 
  1300 ;;		 -> led_turn_on@pin_obj(1), led_initialize@pin_obj(1), 
  1301 ;;  logic           1    7[COMRAM] enum E2981
  1302 ;; Auto vars:     Size  Location     Type
  1303 ;;  ret             1   13[COMRAM] unsigned char 
  1304 ;; Return value:  Size  Location     Type
  1305 ;;                  1    wreg      unsigned char 
  1306 ;; Registers used:
  1307 ;;		wreg, fsr2l, fsr2h, status,2, status,0, prodl, prodh
  1308 ;; Tracked objects:
  1309 ;;		On entry : 0/0
  1310 ;;		On exit  : 0/0
  1311 ;;		Unchanged: 0/0
  1312 ;; Data sizes:     COMRAM   BANK0   BANK1   BANK2   BANK3   BANK4   BANK5   BANK6   BANK7   BANK8   BANK9  BANK10  BANK1
      +1  BANK12  BANK13  BANK14  BANK15
  1313 ;;      Params:         2       0       0       0       0       0       0       0       0       0       0       0       
      +0       0       0       0       0
  1314 ;;      Locals:         1       0       0       0       0       0       0       0       0       0       0       0       
      +0       0       0       0       0
  1315 ;;      Temps:          5       0       0       0       0       0       0       0       0       0       0       0       
      +0       0       0       0       0
  1316 ;;      Totals:         8       0       0       0       0       0       0       0       0       0       0       0       
      +0       0       0       0       0
  1317 ;;Total ram usage:        8 bytes
  1318 ;; Hardware stack levels used: 1
  1319 ;; Hardware stack levels required when called: 4
  1320 ;; This function calls:
  1321 ;;		Nothing
  1322 ;; This function is called by:
  1323 ;;		_led_turn_off
  1324 ;;		_gpio_pin_initialize
  1325 ;;		_sev_seg_write_number
  1326 ;;		_keypad_read_value
  1327 ;;		_lcd_8bit_send_command
  1328 ;;		_lcd_8bit_send_char
  1329 ;;		_lcd_4bit_send_command
  1330 ;;		_lcd_4bit_send_char
  1331 ;;		_lcd_send_8bits
  1332 ;;		_lcd_send_4bits
  1333 ;;		_enable_signal_8bits
  1334 ;;		_enable_signal_4bits
  1335 ;;		_led_turn_on
  1336 ;;		_motor_turn_right
  1337 ;;		_motor_turn_left
  1338 ;;		_motor_stop
  1339 ;;		_relay_turn_on
  1340 ;;		_relay_turn_off
  1341 ;; This function uses a non-reentrant model
  1342 ;;
  1343                           
  1344                           	psect	text8
  1345   0013E8                     __ptext8:
  1346                           	callstack 0
  1347   0013E8                     _gpio_pin_write_logic:
  1348                           	callstack 25
  1349   0013E8                     
  1350                           ;MCAL_Layer/GPIO/hal_gpio.c: 69:     std_ReturnType ret = (std_ReturnType)0x01;
  1351   0013E8  0E01               	movlw	1
  1352   0013EA  6E67               	movwf	gpio_pin_write_logic@ret^0,c
  1353                           
  1354                           ;MCAL_Layer/GPIO/hal_gpio.c: 70:     if(((void*)0) == _pin_config){
  1355   0013EC  5060               	movf	gpio_pin_write_logic@_pin_config^0,w,c
  1356   0013EE  A4D8               	btfss	status,2,c
  1357   0013F0  EFFC  F009         	goto	u1601
  1358   0013F4  EFFE  F009         	goto	u1600
  1359   0013F8                     u1601:
  1360   0013F8  EF55  F00A         	goto	l2781
  1361   0013FC                     u1600:
  1362   0013FC                     
  1363                           ;MCAL_Layer/GPIO/hal_gpio.c: 71:         ret = (std_ReturnType)0x00;
  1364   0013FC  0E00               	movlw	0
  1365   0013FE  6E67               	movwf	gpio_pin_write_logic@ret^0,c
  1366                           
  1367                           ;MCAL_Layer/GPIO/hal_gpio.c: 72:     }
  1368   001400  EF6A  F00A         	goto	l2783
  1369   001404                     l2775:
  1370                           
  1371                           ;MCAL_Layer/GPIO/hal_gpio.c: 76:                 (*lat_registers[_pin_config->port] &= ~
      +                          ((uint8)1<<_pin_config->pin));
  1372   001404  5060               	movf	gpio_pin_write_logic@_pin_config^0,w,c
  1373   001406  6ED9               	movwf	fsr2l,c
  1374   001408  6ADA               	clrf	fsr2h,c
  1375   00140A  30DF               	rrcf	223,w,c
  1376   00140C  32E8               	rrcf	wreg,f,c
  1377   00140E  32E8               	rrcf	wreg,f,c
  1378   001410  0B07               	andlw	7
  1379   001412  6E62               	movwf	??_gpio_pin_write_logic^0,c
  1380   001414  0E01               	movlw	1
  1381   001416  6E63               	movwf	(??_gpio_pin_write_logic+1)^0,c
  1382   001418  2A62               	incf	??_gpio_pin_write_logic^0,f,c
  1383   00141A  EF11  F00A         	goto	u1614
  1384   00141E                     u1615:
  1385   00141E  90D8               	bcf	status,0,c
  1386   001420  3663               	rlcf	(??_gpio_pin_write_logic+1)^0,f,c
  1387   001422                     u1614:
  1388   001422  2E62               	decfsz	??_gpio_pin_write_logic^0,f,c
  1389   001424  EF0F  F00A         	goto	u1615
  1390   001428  5063               	movf	(??_gpio_pin_write_logic+1)^0,w,c
  1391   00142A  0AFF               	xorlw	255
  1392   00142C  6E64               	movwf	(??_gpio_pin_write_logic+2)^0,c
  1393   00142E  5060               	movf	gpio_pin_write_logic@_pin_config^0,w,c
  1394   001430  6ED9               	movwf	fsr2l,c
  1395   001432  6ADA               	clrf	fsr2h,c
  1396   001434  50DF               	movf	223,w,c
  1397   001436  0B07               	andlw	7
  1398   001438  0D02               	mullw	2
  1399   00143A  50F3               	movf	243,w,c
  1400   00143C  0F1B               	addlw	low _lat_registers
  1401   00143E  6ED9               	movwf	fsr2l,c
  1402   001440  6ADA               	clrf	fsr2h,c
  1403   001442  CFDE F065          	movff	postinc2,??_gpio_pin_write_logic+3
  1404   001446  CFDD F066          	movff	postdec2,??_gpio_pin_write_logic+4
  1405   00144A  C065  FFD9         	movff	??_gpio_pin_write_logic+3,fsr2l
  1406   00144E  C066  FFDA         	movff	??_gpio_pin_write_logic+4,fsr2h
  1407   001452  5064               	movf	(??_gpio_pin_write_logic+2)^0,w,c
  1408   001454  16DF               	andwf	indf2,f,c
  1409                           
  1410                           ;MCAL_Layer/GPIO/hal_gpio.c: 77:                 break;
  1411   001456  EF6A  F00A         	goto	l2783
  1412   00145A                     l2777:
  1413                           
  1414                           ;MCAL_Layer/GPIO/hal_gpio.c: 79:                 (*lat_registers[_pin_config->port] |= (
      +                          (uint8)1<<_pin_config->pin));
  1415   00145A  5060               	movf	gpio_pin_write_logic@_pin_config^0,w,c
  1416   00145C  6ED9               	movwf	fsr2l,c
  1417   00145E  6ADA               	clrf	fsr2h,c
  1418   001460  30DF               	rrcf	223,w,c
  1419   001462  32E8               	rrcf	wreg,f,c
  1420   001464  32E8               	rrcf	wreg,f,c
  1421   001466  0B07               	andlw	7
  1422   001468  6E62               	movwf	??_gpio_pin_write_logic^0,c
  1423   00146A  0E01               	movlw	1
  1424   00146C  6E63               	movwf	(??_gpio_pin_write_logic+1)^0,c
  1425   00146E  2A62               	incf	??_gpio_pin_write_logic^0,f,c
  1426   001470  EF3C  F00A         	goto	u1624
  1427   001474                     u1625:
  1428   001474  90D8               	bcf	status,0,c
  1429   001476  3663               	rlcf	(??_gpio_pin_write_logic+1)^0,f,c
  1430   001478                     u1624:
  1431   001478  2E62               	decfsz	??_gpio_pin_write_logic^0,f,c
  1432   00147A  EF3A  F00A         	goto	u1625
  1433   00147E  5060               	movf	gpio_pin_write_logic@_pin_config^0,w,c
  1434   001480  6ED9               	movwf	fsr2l,c
  1435   001482  6ADA               	clrf	fsr2h,c
  1436   001484  50DF               	movf	223,w,c
  1437   001486  0B07               	andlw	7
  1438   001488  0D02               	mullw	2
  1439   00148A  50F3               	movf	243,w,c
  1440   00148C  0F1B               	addlw	low _lat_registers
  1441   00148E  6ED9               	movwf	fsr2l,c
  1442   001490  6ADA               	clrf	fsr2h,c
  1443   001492  CFDE F064          	movff	postinc2,??_gpio_pin_write_logic+2
  1444   001496  CFDD F065          	movff	postdec2,??_gpio_pin_write_logic+3
  1445   00149A  C064  FFD9         	movff	??_gpio_pin_write_logic+2,fsr2l
  1446   00149E  C065  FFDA         	movff	??_gpio_pin_write_logic+3,fsr2h
  1447   0014A2  5063               	movf	(??_gpio_pin_write_logic+1)^0,w,c
  1448   0014A4  12DF               	iorwf	indf2,f,c
  1449                           
  1450                           ;MCAL_Layer/GPIO/hal_gpio.c: 80:                 break;
  1451   0014A6  EF6A  F00A         	goto	l2783
  1452   0014AA                     l2781:
  1453   0014AA  5061               	movf	gpio_pin_write_logic@logic^0,w,c
  1454   0014AC  6E62               	movwf	??_gpio_pin_write_logic^0,c
  1455   0014AE  6A63               	clrf	(??_gpio_pin_write_logic+1)^0,c
  1456                           
  1457                           ; Switch on 2 bytes has been partitioned into a top level switch of size 1, and 1 sub-sw
      +                          itches
  1458                           ; Switch size 1, requested type "simple"
  1459                           ; Number of cases is 1, Range of values is 0 to 0
  1460                           ; switch strategies available:
  1461                           ; Name         Instructions Cycles
  1462                           ; simple_byte            4     3 (average)
  1463                           ;	Chosen strategy is simple_byte
  1464   0014B0  5063               	movf	(??_gpio_pin_write_logic+1)^0,w,c
  1465   0014B2  0A00               	xorlw	0	; case 0
  1466   0014B4  B4D8               	btfsc	status,2,c
  1467   0014B6  EF5F  F00A         	goto	l3867
  1468   0014BA  EF6A  F00A         	goto	l2783
  1469   0014BE                     l3867:
  1470                           
  1471                           ; Switch size 1, requested type "simple"
  1472                           ; Number of cases is 2, Range of values is 0 to 1
  1473                           ; switch strategies available:
  1474                           ; Name         Instructions Cycles
  1475                           ; simple_byte            7     4 (average)
  1476                           ;	Chosen strategy is simple_byte
  1477   0014BE  5062               	movf	??_gpio_pin_write_logic^0,w,c
  1478   0014C0  0A00               	xorlw	0	; case 0
  1479   0014C2  B4D8               	btfsc	status,2,c
  1480   0014C4  EF02  F00A         	goto	l2775
  1481   0014C8  0A01               	xorlw	1	; case 1
  1482   0014CA  B4D8               	btfsc	status,2,c
  1483   0014CC  EF2D  F00A         	goto	l2777
  1484   0014D0  EF6A  F00A         	goto	l2783
  1485   0014D4                     l2783:
  1486                           
  1487                           ;MCAL_Layer/GPIO/hal_gpio.c: 86:     return ret;
  1488   0014D4  5067               	movf	gpio_pin_write_logic@ret^0,w,c
  1489   0014D6  0012               	return		;funcret
  1490   0014D8                     __end_of_gpio_pin_write_logic:
  1491                           	callstack 0
  1492                           
  1493 ;; *************** function _READ_DATA_EEPROM *****************
  1494 ;; Defined at:
  1495 ;;		line 28 in file "MCAL_Layer/EEPROM/hal_eeprom.c"
  1496 ;; Parameters:    Size  Location     Type
  1497 ;;  add             2    6[COMRAM] unsigned short 
  1498 ;;  data            1    8[COMRAM] PTR unsigned char 
  1499 ;;		 -> counter(1), 
  1500 ;; Auto vars:     Size  Location     Type
  1501 ;;  ret             1    0        unsigned char 
  1502 ;;  status          1    0        unsigned char 
  1503 ;; Return value:  Size  Location     Type
  1504 ;;                  1    wreg      unsigned char 
  1505 ;; Registers used:
  1506 ;;		wreg, fsr2l, fsr2h, status,2, status,0
  1507 ;; Tracked objects:
  1508 ;;		On entry : 0/0
  1509 ;;		On exit  : 0/0
  1510 ;;		Unchanged: 0/0
  1511 ;; Data sizes:     COMRAM   BANK0   BANK1   BANK2   BANK3   BANK4   BANK5   BANK6   BANK7   BANK8   BANK9  BANK10  BANK1
      +1  BANK12  BANK13  BANK14  BANK15
  1512 ;;      Params:         3       0       0       0       0       0       0       0       0       0       0       0       
      +0       0       0       0       0
  1513 ;;      Locals:         0       0       0       0       0       0       0       0       0       0       0       0       
      +0       0       0       0       0
  1514 ;;      Temps:          0       0       0       0       0       0       0       0       0       0       0       0       
      +0       0       0       0       0
  1515 ;;      Totals:         3       0       0       0       0       0       0       0       0       0       0       0       
      +0       0       0       0       0
  1516 ;;Total ram usage:        3 bytes
  1517 ;; Hardware stack levels used: 1
  1518 ;; Hardware stack levels required when called: 4
  1519 ;; This function calls:
  1520 ;;		Nothing
  1521 ;; This function is called by:
  1522 ;;		_main
  1523 ;; This function uses a non-reentrant model
  1524 ;;
  1525                           
  1526                           	psect	text9
  1527   001BDE                     __ptext9:
  1528                           	callstack 0
  1529   001BDE                     _READ_DATA_EEPROM:
  1530                           	callstack 26
  1531   001BDE  50F2               	movf	242,w,c	;volatile
  1532   001BE0                     
  1533                           ;MCAL_Layer/EEPROM/hal_eeprom.c: 33:         EEADRH = (uint8)((add >> 8) & 0x03);
  1534   001BE0  5061               	movf	(READ_DATA_EEPROM@add+1)^0,w,c
  1535   001BE2  0B03               	andlw	3
  1536   001BE4  6EAA               	movwf	170,c	;volatile
  1537   001BE6                     
  1538                           ;MCAL_Layer/EEPROM/hal_eeprom.c: 34:         EEADR = (uint8)(add & 0xFF);
  1539   001BE6  C060  FFA9         	movff	READ_DATA_EEPROM@add,4009	;volatile
  1540   001BEA                     
  1541                           ;MCAL_Layer/EEPROM/hal_eeprom.c: 35:         EECON1bits.EEPGD = 0;
  1542   001BEA  9EA6               	bcf	166,7,c	;volsfr
  1543   001BEC                     
  1544                           ;MCAL_Layer/EEPROM/hal_eeprom.c: 36:         EECON1bits.CFGS = 0;
  1545   001BEC  9CA6               	bcf	166,6,c	;volsfr
  1546   001BEE                     
  1547                           ;MCAL_Layer/EEPROM/hal_eeprom.c: 37:         EECON1bits.RD = 1;
  1548   001BEE  80A6               	bsf	166,0,c	;volsfr
  1549   001BF0                     
  1550                           ;MCAL_Layer/EEPROM/hal_eeprom.c: 38:         __nop();
  1551   001BF0  0000               	nop	
  1552   001BF2                     
  1553                           ;MCAL_Layer/EEPROM/hal_eeprom.c: 39:         __nop();
  1554   001BF2  0000               	nop	
  1555   001BF4                     
  1556                           ;MCAL_Layer/EEPROM/hal_eeprom.c: 40:         *data = EEDATA;
  1557   001BF4  5062               	movf	READ_DATA_EEPROM@data^0,w,c
  1558   001BF6  6ED9               	movwf	fsr2l,c
  1559   001BF8  6ADA               	clrf	fsr2h,c
  1560   001BFA  CFA8 FFDF          	movff	4008,indf2	;volatile
  1561   001BFE  0012               	return		;funcret
  1562   001C00                     __end_of_READ_DATA_EEPROM:
  1563                           	callstack 0
  1564                           
  1565 ;; *************** function _Interrupt_INTx_Init *****************
  1566 ;; Defined at:
  1567 ;;		line 36 in file "MCAL_Layer/Interrupt/mcal_external_interrupt.c"
  1568 ;; Parameters:    Size  Location     Type
  1569 ;;  int_obj         1   15[COMRAM] PTR const struct .
  1570 ;;		 -> int0(6), 
  1571 ;; Auto vars:     Size  Location     Type
  1572 ;;  ret             1   16[COMRAM] unsigned char 
  1573 ;; Return value:  Size  Location     Type
  1574 ;;                  1    wreg      unsigned char 
  1575 ;; Registers used:
  1576 ;;		wreg, fsr2l, fsr2h, status,2, status,0, prodl, prodh, cstack
  1577 ;; Tracked objects:
  1578 ;;		On entry : 0/0
  1579 ;;		On exit  : 0/0
  1580 ;;		Unchanged: 0/0
  1581 ;; Data sizes:     COMRAM   BANK0   BANK1   BANK2   BANK3   BANK4   BANK5   BANK6   BANK7   BANK8   BANK9  BANK10  BANK1
      +1  BANK12  BANK13  BANK14  BANK15
  1582 ;;      Params:         1       0       0       0       0       0       0       0       0       0       0       0       
      +0       0       0       0       0
  1583 ;;      Locals:         1       0       0       0       0       0       0       0       0       0       0       0       
      +0       0       0       0       0
  1584 ;;      Temps:          0       0       0       0       0       0       0       0       0       0       0       0       
      +0       0       0       0       0
  1585 ;;      Totals:         2       0       0       0       0       0       0       0       0       0       0       0       
      +0       0       0       0       0
  1586 ;;Total ram usage:        2 bytes
  1587 ;; Hardware stack levels used: 1
  1588 ;; Hardware stack levels required when called: 6
  1589 ;; This function calls:
  1590 ;;		_Interrupt_INTx_Clear_Flag
  1591 ;;		_Interrupt_INTx_Disable
  1592 ;;		_Interrupt_INTx_Edge_Src
  1593 ;;		_Interrupt_INTx_Enable
  1594 ;;		_Interrupt_INTx_Pin_Init
  1595 ;;		_Set_Interrupt_Handler
  1596 ;; This function is called by:
  1597 ;;		_main
  1598 ;; This function uses a non-reentrant model
  1599 ;;
  1600                           
  1601                           	psect	text10
  1602   0019C2                     __ptext10:
  1603                           	callstack 0
  1604   0019C2                     _Interrupt_INTx_Init:
  1605                           	callstack 24
  1606   0019C2                     
  1607                           ;MCAL_Layer/Interrupt/mcal_external_interrupt.c: 38:     if(int_obj == ((void*)0)){
  1608   0019C2  5069               	movf	Interrupt_INTx_Init@int_obj^0,w,c
  1609   0019C4  A4D8               	btfss	status,2,c
  1610   0019C6  EFE7  F00C         	goto	u2091
  1611   0019CA  EFE9  F00C         	goto	u2090
  1612   0019CE                     u2091:
  1613   0019CE  EFEB  F00C         	goto	l3217
  1614   0019D2                     u2090:
  1615   0019D2                     
  1616                           ;MCAL_Layer/Interrupt/mcal_external_interrupt.c: 40:     }
  1617   0019D2  EF06  F00D         	goto	l488
  1618   0019D6                     l3217:
  1619                           
  1620                           ;MCAL_Layer/Interrupt/mcal_external_interrupt.c: 42:         ret = Interrupt_INTx_Disabl
      +                          e(int_obj);
  1621   0019D6  C069  F060         	movff	Interrupt_INTx_Init@int_obj,Interrupt_INTx_Disable@int_obj
  1622   0019DA  ECD8  F00B         	call	_Interrupt_INTx_Disable	;wreg free
  1623   0019DE  6E6A               	movwf	Interrupt_INTx_Init@ret^0,c
  1624                           
  1625                           ;MCAL_Layer/Interrupt/mcal_external_interrupt.c: 43:         ret = Interrupt_INTx_Clear_
      +                          Flag(int_obj);
  1626   0019E0  C069  F060         	movff	Interrupt_INTx_Init@int_obj,Interrupt_INTx_Clear_Flag@int_obj
  1627   0019E4  EC0F  F00C         	call	_Interrupt_INTx_Clear_Flag	;wreg free
  1628   0019E8  6E6A               	movwf	Interrupt_INTx_Init@ret^0,c
  1629                           
  1630                           ;MCAL_Layer/Interrupt/mcal_external_interrupt.c: 44:         ret = Interrupt_INTx_Edge_S
      +                          rc(int_obj);
  1631   0019EA  C069  F060         	movff	Interrupt_INTx_Init@int_obj,Interrupt_INTx_Edge_Src@int_obj
  1632   0019EE  EC6C  F00A         	call	_Interrupt_INTx_Edge_Src	;wreg free
  1633   0019F2  6E6A               	movwf	Interrupt_INTx_Init@ret^0,c
  1634   0019F4  C069  F067         	movff	Interrupt_INTx_Init@int_obj,Interrupt_INTx_Pin_Init@int_obj
  1635   0019F8  ECDB  F00D         	call	_Interrupt_INTx_Pin_Init	;wreg free
  1636   0019FC  C069  F062         	movff	Interrupt_INTx_Init@int_obj,Set_Interrupt_Handler@int_obj
  1637   001A00  ECD3  F00A         	call	_Set_Interrupt_Handler	;wreg free
  1638   001A04  C069  F060         	movff	Interrupt_INTx_Init@int_obj,Interrupt_INTx_Enable@int_obj
  1639   001A08  EC63  F00B         	call	_Interrupt_INTx_Enable	;wreg free
  1640   001A0C                     l488:
  1641   001A0C  0012               	return		;funcret
  1642   001A0E                     __end_of_Interrupt_INTx_Init:
  1643                           	callstack 0
  1644                           
  1645 ;; *************** function _Set_Interrupt_Handler *****************
  1646 ;; Defined at:
  1647 ;;		line 437 in file "MCAL_Layer/Interrupt/mcal_external_interrupt.c"
  1648 ;; Parameters:    Size  Location     Type
  1649 ;;  int_obj         1    8[COMRAM] PTR const struct .
  1650 ;;		 -> int0(6), 
  1651 ;; Auto vars:     Size  Location     Type
  1652 ;;  ret             1   11[COMRAM] unsigned char 
  1653 ;; Return value:  Size  Location     Type
  1654 ;;                  1    wreg      unsigned char 
  1655 ;; Registers used:
  1656 ;;		wreg, fsr2l, fsr2h, status,2, status,0, cstack
  1657 ;; Tracked objects:
  1658 ;;		On entry : 0/0
  1659 ;;		On exit  : 0/0
  1660 ;;		Unchanged: 0/0
  1661 ;; Data sizes:     COMRAM   BANK0   BANK1   BANK2   BANK3   BANK4   BANK5   BANK6   BANK7   BANK8   BANK9  BANK10  BANK1
      +1  BANK12  BANK13  BANK14  BANK15
  1662 ;;      Params:         1       0       0       0       0       0       0       0       0       0       0       0       
      +0       0       0       0       0
  1663 ;;      Locals:         1       0       0       0       0       0       0       0       0       0       0       0       
      +0       0       0       0       0
  1664 ;;      Temps:          2       0       0       0       0       0       0       0       0       0       0       0       
      +0       0       0       0       0
  1665 ;;      Totals:         4       0       0       0       0       0       0       0       0       0       0       0       
      +0       0       0       0       0
  1666 ;;Total ram usage:        4 bytes
  1667 ;; Hardware stack levels used: 1
  1668 ;; Hardware stack levels required when called: 5
  1669 ;; This function calls:
  1670 ;;		_INT0_INTERRUPT_HANDLER
  1671 ;;		_INT1_INTERRUPT_HANDLER
  1672 ;;		_INT2_INTERRUPT_HANDLER
  1673 ;; This function is called by:
  1674 ;;		_Interrupt_INTx_Init
  1675 ;; This function uses a non-reentrant model
  1676 ;;
  1677                           
  1678                           	psect	text11
  1679   0015A6                     __ptext11:
  1680                           	callstack 0
  1681   0015A6                     _Set_Interrupt_Handler:
  1682                           	callstack 24
  1683   0015A6                     
  1684                           ;MCAL_Layer/Interrupt/mcal_external_interrupt.c: 438:     std_ReturnType ret = (std_Retu
      +                          rnType)0x01;
  1685   0015A6  0E01               	movlw	1
  1686   0015A8  6E65               	movwf	Set_Interrupt_Handler@ret^0,c
  1687                           
  1688                           ;MCAL_Layer/Interrupt/mcal_external_interrupt.c: 439:     if(int_obj == ((void*)0)){
  1689   0015AA  5062               	movf	Set_Interrupt_Handler@int_obj^0,w,c
  1690   0015AC  A4D8               	btfss	status,2,c
  1691   0015AE  EFDB  F00A         	goto	u1921
  1692   0015B2  EFDD  F00A         	goto	u1920
  1693   0015B6                     u1921:
  1694   0015B6  EF02  F00B         	goto	l3057
  1695   0015BA                     u1920:
  1696   0015BA                     l3047:
  1697                           
  1698                           ;MCAL_Layer/Interrupt/mcal_external_interrupt.c: 440:         ret = (std_ReturnType)0x00
      +                          ;
  1699   0015BA  0E00               	movlw	0
  1700   0015BC  6E65               	movwf	Set_Interrupt_Handler@ret^0,c
  1701                           
  1702                           ;MCAL_Layer/Interrupt/mcal_external_interrupt.c: 441:     }
  1703   0015BE  EF20  F00B         	goto	l3059
  1704   0015C2                     l3049:
  1705   0015C2  5062               	movf	Set_Interrupt_Handler@int_obj^0,w,c
  1706   0015C4  6ED9               	movwf	fsr2l,c
  1707   0015C6  6ADA               	clrf	fsr2h,c
  1708   0015C8  CFDE F060          	movff	postinc2,INT0_INTERRUPT_HANDLER@Interrupt_Handler
  1709   0015CC  CFDD F061          	movff	postdec2,INT0_INTERRUPT_HANDLER@Interrupt_Handler+1
  1710   0015D0  EC20  F00E         	call	_INT0_INTERRUPT_HANDLER	;wreg free
  1711   0015D4  EF20  F00B         	goto	l3059
  1712   0015D8                     l3051:
  1713   0015D8  5062               	movf	Set_Interrupt_Handler@int_obj^0,w,c
  1714   0015DA  6ED9               	movwf	fsr2l,c
  1715   0015DC  6ADA               	clrf	fsr2h,c
  1716   0015DE  CFDE F060          	movff	postinc2,INT1_INTERRUPT_HANDLER@Interrupt_Handler
  1717   0015E2  CFDD F061          	movff	postdec2,INT1_INTERRUPT_HANDLER@Interrupt_Handler+1
  1718   0015E6  EC10  F00E         	call	_INT1_INTERRUPT_HANDLER	;wreg free
  1719   0015EA  EF20  F00B         	goto	l3059
  1720   0015EE                     l3053:
  1721   0015EE  5062               	movf	Set_Interrupt_Handler@int_obj^0,w,c
  1722   0015F0  6ED9               	movwf	fsr2l,c
  1723   0015F2  6ADA               	clrf	fsr2h,c
  1724   0015F4  CFDE F060          	movff	postinc2,INT2_INTERRUPT_HANDLER@Interrupt_Handler
  1725   0015F8  CFDD F061          	movff	postdec2,INT2_INTERRUPT_HANDLER@Interrupt_Handler+1
  1726   0015FC  EC00  F00E         	call	_INT2_INTERRUPT_HANDLER	;wreg free
  1727   001600  EF20  F00B         	goto	l3059
  1728   001604                     l3057:
  1729   001604  5062               	movf	Set_Interrupt_Handler@int_obj^0,w,c
  1730   001606  6ED9               	movwf	fsr2l,c
  1731   001608  6ADA               	clrf	fsr2h,c
  1732   00160A  0E03               	movlw	3
  1733   00160C  26D9               	addwf	fsr2l,f,c
  1734   00160E  50DF               	movf	indf2,w,c
  1735   001610  6E63               	movwf	??_Set_Interrupt_Handler^0,c
  1736   001612  6A64               	clrf	(??_Set_Interrupt_Handler+1)^0,c
  1737                           
  1738                           ; Switch on 2 bytes has been partitioned into a top level switch of size 1, and 1 sub-sw
      +                          itches
  1739                           ; Switch size 1, requested type "simple"
  1740                           ; Number of cases is 1, Range of values is 0 to 0
  1741                           ; switch strategies available:
  1742                           ; Name         Instructions Cycles
  1743                           ; simple_byte            4     3 (average)
  1744                           ;	Chosen strategy is simple_byte
  1745   001614  5064               	movf	(??_Set_Interrupt_Handler+1)^0,w,c
  1746   001616  0A00               	xorlw	0	; case 0
  1747   001618  B4D8               	btfsc	status,2,c
  1748   00161A  EF11  F00B         	goto	l3869
  1749   00161E  EFDD  F00A         	goto	l3047
  1750   001622                     l3869:
  1751                           
  1752                           ; Switch size 1, requested type "simple"
  1753                           ; Number of cases is 3, Range of values is 0 to 2
  1754                           ; switch strategies available:
  1755                           ; Name         Instructions Cycles
  1756                           ; simple_byte           10     6 (average)
  1757                           ;	Chosen strategy is simple_byte
  1758   001622  5063               	movf	??_Set_Interrupt_Handler^0,w,c
  1759   001624  0A00               	xorlw	0	; case 0
  1760   001626  B4D8               	btfsc	status,2,c
  1761   001628  EFE1  F00A         	goto	l3049
  1762   00162C  0A01               	xorlw	1	; case 1
  1763   00162E  B4D8               	btfsc	status,2,c
  1764   001630  EFEC  F00A         	goto	l3051
  1765   001634  0A03               	xorlw	3	; case 2
  1766   001636  B4D8               	btfsc	status,2,c
  1767   001638  EFF7  F00A         	goto	l3053
  1768   00163C  EFDD  F00A         	goto	l3047
  1769   001640                     l3059:
  1770                           
  1771                           ;MCAL_Layer/Interrupt/mcal_external_interrupt.c: 451:     return ret;
  1772   001640  5065               	movf	Set_Interrupt_Handler@ret^0,w,c
  1773   001642  0012               	return		;funcret
  1774   001644                     __end_of_Set_Interrupt_Handler:
  1775                           	callstack 0
  1776                           
  1777 ;; *************** function _INT2_INTERRUPT_HANDLER *****************
  1778 ;; Defined at:
  1779 ;;		line 427 in file "MCAL_Layer/Interrupt/mcal_external_interrupt.c"
  1780 ;; Parameters:    Size  Location     Type
  1781 ;;  Interrupt_Ha    2    6[COMRAM] PTR FTN()void 
  1782 ;;		 -> isr(1), 
  1783 ;; Auto vars:     Size  Location     Type
  1784 ;;  ret             1    0        unsigned char 
  1785 ;; Return value:  Size  Location     Type
  1786 ;;                  1    wreg      unsigned char 
  1787 ;; Registers used:
  1788 ;;		wreg, status,2, status,0
  1789 ;; Tracked objects:
  1790 ;;		On entry : 0/0
  1791 ;;		On exit  : 0/0
  1792 ;;		Unchanged: 0/0
  1793 ;; Data sizes:     COMRAM   BANK0   BANK1   BANK2   BANK3   BANK4   BANK5   BANK6   BANK7   BANK8   BANK9  BANK10  BANK1
      +1  BANK12  BANK13  BANK14  BANK15
  1794 ;;      Params:         2       0       0       0       0       0       0       0       0       0       0       0       
      +0       0       0       0       0
  1795 ;;      Locals:         0       0       0       0       0       0       0       0       0       0       0       0       
      +0       0       0       0       0
  1796 ;;      Temps:          0       0       0       0       0       0       0       0       0       0       0       0       
      +0       0       0       0       0
  1797 ;;      Totals:         2       0       0       0       0       0       0       0       0       0       0       0       
      +0       0       0       0       0
  1798 ;;Total ram usage:        2 bytes
  1799 ;; Hardware stack levels used: 1
  1800 ;; Hardware stack levels required when called: 4
  1801 ;; This function calls:
  1802 ;;		Nothing
  1803 ;; This function is called by:
  1804 ;;		_Set_Interrupt_Handler
  1805 ;; This function uses a non-reentrant model
  1806 ;;
  1807                           
  1808                           	psect	text12
  1809   001C00                     __ptext12:
  1810                           	callstack 0
  1811   001C00                     _INT2_INTERRUPT_HANDLER:
  1812                           	callstack 24
  1813   001C00                     
  1814                           ;MCAL_Layer/Interrupt/mcal_external_interrupt.c: 429:     if(Interrupt_Handler == ((void
      +                          *)0)){
  1815   001C00  5060               	movf	INT2_INTERRUPT_HANDLER@Interrupt_Handler^0,w,c
  1816   001C02  1061               	iorwf	(INT2_INTERRUPT_HANDLER@Interrupt_Handler+1)^0,w,c
  1817   001C04  A4D8               	btfss	status,2,c
  1818   001C06  EF07  F00E         	goto	u1731
  1819   001C0A  EF09  F00E         	goto	u1730
  1820   001C0E                     u1731:
  1821   001C0E  EF0B  F00E         	goto	l2859
  1822   001C12                     u1730:
  1823   001C12                     
  1824                           ;MCAL_Layer/Interrupt/mcal_external_interrupt.c: 431:     }
  1825   001C12  EF0F  F00E         	goto	l639
  1826   001C16                     l2859:
  1827                           
  1828                           ;MCAL_Layer/Interrupt/mcal_external_interrupt.c: 433:         INT2_INTERRUPTHANDLER = In
      +                          terrupt_Handler;
  1829   001C16  C060  F04C         	movff	INT2_INTERRUPT_HANDLER@Interrupt_Handler,_INT2_INTERRUPTHANDLER
  1830   001C1A  C061  F04D         	movff	INT2_INTERRUPT_HANDLER@Interrupt_Handler+1,_INT2_INTERRUPTHANDLER+1
  1831   001C1E                     l639:
  1832   001C1E  0012               	return		;funcret
  1833   001C20                     __end_of_INT2_INTERRUPT_HANDLER:
  1834                           	callstack 0
  1835                           
  1836 ;; *************** function _INT1_INTERRUPT_HANDLER *****************
  1837 ;; Defined at:
  1838 ;;		line 417 in file "MCAL_Layer/Interrupt/mcal_external_interrupt.c"
  1839 ;; Parameters:    Size  Location     Type
  1840 ;;  Interrupt_Ha    2    6[COMRAM] PTR FTN()void 
  1841 ;;		 -> isr(1), 
  1842 ;; Auto vars:     Size  Location     Type
  1843 ;;  ret             1    0        unsigned char 
  1844 ;; Return value:  Size  Location     Type
  1845 ;;                  1    wreg      unsigned char 
  1846 ;; Registers used:
  1847 ;;		wreg, status,2, status,0
  1848 ;; Tracked objects:
  1849 ;;		On entry : 0/0
  1850 ;;		On exit  : 0/0
  1851 ;;		Unchanged: 0/0
  1852 ;; Data sizes:     COMRAM   BANK0   BANK1   BANK2   BANK3   BANK4   BANK5   BANK6   BANK7   BANK8   BANK9  BANK10  BANK1
      +1  BANK12  BANK13  BANK14  BANK15
  1853 ;;      Params:         2       0       0       0       0       0       0       0       0       0       0       0       
      +0       0       0       0       0
  1854 ;;      Locals:         0       0       0       0       0       0       0       0       0       0       0       0       
      +0       0       0       0       0
  1855 ;;      Temps:          0       0       0       0       0       0       0       0       0       0       0       0       
      +0       0       0       0       0
  1856 ;;      Totals:         2       0       0       0       0       0       0       0       0       0       0       0       
      +0       0       0       0       0
  1857 ;;Total ram usage:        2 bytes
  1858 ;; Hardware stack levels used: 1
  1859 ;; Hardware stack levels required when called: 4
  1860 ;; This function calls:
  1861 ;;		Nothing
  1862 ;; This function is called by:
  1863 ;;		_Set_Interrupt_Handler
  1864 ;; This function uses a non-reentrant model
  1865 ;;
  1866                           
  1867                           	psect	text13
  1868   001C20                     __ptext13:
  1869                           	callstack 0
  1870   001C20                     _INT1_INTERRUPT_HANDLER:
  1871                           	callstack 24
  1872   001C20                     
  1873                           ;MCAL_Layer/Interrupt/mcal_external_interrupt.c: 419:     if(Interrupt_Handler == ((void
      +                          *)0)){
  1874   001C20  5060               	movf	INT1_INTERRUPT_HANDLER@Interrupt_Handler^0,w,c
  1875   001C22  1061               	iorwf	(INT1_INTERRUPT_HANDLER@Interrupt_Handler+1)^0,w,c
  1876   001C24  A4D8               	btfss	status,2,c
  1877   001C26  EF17  F00E         	goto	u1721
  1878   001C2A  EF19  F00E         	goto	u1720
  1879   001C2E                     u1721:
  1880   001C2E  EF1B  F00E         	goto	l2849
  1881   001C32                     u1720:
  1882   001C32                     
  1883                           ;MCAL_Layer/Interrupt/mcal_external_interrupt.c: 421:     }
  1884   001C32  EF1F  F00E         	goto	l634
  1885   001C36                     l2849:
  1886                           
  1887                           ;MCAL_Layer/Interrupt/mcal_external_interrupt.c: 423:         INT1_INTERRUPTHANDLER = In
      +                          terrupt_Handler;
  1888   001C36  C060  F04E         	movff	INT1_INTERRUPT_HANDLER@Interrupt_Handler,_INT1_INTERRUPTHANDLER
  1889   001C3A  C061  F04F         	movff	INT1_INTERRUPT_HANDLER@Interrupt_Handler+1,_INT1_INTERRUPTHANDLER+1
  1890   001C3E                     l634:
  1891   001C3E  0012               	return		;funcret
  1892   001C40                     __end_of_INT1_INTERRUPT_HANDLER:
  1893                           	callstack 0
  1894                           
  1895 ;; *************** function _INT0_INTERRUPT_HANDLER *****************
  1896 ;; Defined at:
  1897 ;;		line 407 in file "MCAL_Layer/Interrupt/mcal_external_interrupt.c"
  1898 ;; Parameters:    Size  Location     Type
  1899 ;;  Interrupt_Ha    2    6[COMRAM] PTR FTN()void 
  1900 ;;		 -> isr(1), 
  1901 ;; Auto vars:     Size  Location     Type
  1902 ;;  ret             1    0        unsigned char 
  1903 ;; Return value:  Size  Location     Type
  1904 ;;                  1    wreg      unsigned char 
  1905 ;; Registers used:
  1906 ;;		wreg, status,2, status,0
  1907 ;; Tracked objects:
  1908 ;;		On entry : 0/0
  1909 ;;		On exit  : 0/0
  1910 ;;		Unchanged: 0/0
  1911 ;; Data sizes:     COMRAM   BANK0   BANK1   BANK2   BANK3   BANK4   BANK5   BANK6   BANK7   BANK8   BANK9  BANK10  BANK1
      +1  BANK12  BANK13  BANK14  BANK15
  1912 ;;      Params:         2       0       0       0       0       0       0       0       0       0       0       0       
      +0       0       0       0       0
  1913 ;;      Locals:         0       0       0       0       0       0       0       0       0       0       0       0       
      +0       0       0       0       0
  1914 ;;      Temps:          0       0       0       0       0       0       0       0       0       0       0       0       
      +0       0       0       0       0
  1915 ;;      Totals:         2       0       0       0       0       0       0       0       0       0       0       0       
      +0       0       0       0       0
  1916 ;;Total ram usage:        2 bytes
  1917 ;; Hardware stack levels used: 1
  1918 ;; Hardware stack levels required when called: 4
  1919 ;; This function calls:
  1920 ;;		Nothing
  1921 ;; This function is called by:
  1922 ;;		_Set_Interrupt_Handler
  1923 ;; This function uses a non-reentrant model
  1924 ;;
  1925                           
  1926                           	psect	text14
  1927   001C40                     __ptext14:
  1928                           	callstack 0
  1929   001C40                     _INT0_INTERRUPT_HANDLER:
  1930                           	callstack 24
  1931   001C40                     
  1932                           ;MCAL_Layer/Interrupt/mcal_external_interrupt.c: 409:     if(Interrupt_Handler == ((void
      +                          *)0)){
  1933   001C40  5060               	movf	INT0_INTERRUPT_HANDLER@Interrupt_Handler^0,w,c
  1934   001C42  1061               	iorwf	(INT0_INTERRUPT_HANDLER@Interrupt_Handler+1)^0,w,c
  1935   001C44  A4D8               	btfss	status,2,c
  1936   001C46  EF27  F00E         	goto	u1711
  1937   001C4A  EF29  F00E         	goto	u1710
  1938   001C4E                     u1711:
  1939   001C4E  EF2B  F00E         	goto	l2839
  1940   001C52                     u1710:
  1941   001C52                     
  1942                           ;MCAL_Layer/Interrupt/mcal_external_interrupt.c: 411:     }
  1943   001C52  EF2F  F00E         	goto	l629
  1944   001C56                     l2839:
  1945                           
  1946                           ;MCAL_Layer/Interrupt/mcal_external_interrupt.c: 413:         INT0_INTERRUPTHANDLER = In
      +                          terrupt_Handler;
  1947   001C56  C060  F050         	movff	INT0_INTERRUPT_HANDLER@Interrupt_Handler,_INT0_INTERRUPTHANDLER
  1948   001C5A  C061  F051         	movff	INT0_INTERRUPT_HANDLER@Interrupt_Handler+1,_INT0_INTERRUPTHANDLER+1
  1949   001C5E                     l629:
  1950   001C5E  0012               	return		;funcret
  1951   001C60                     __end_of_INT0_INTERRUPT_HANDLER:
  1952                           	callstack 0
  1953                           
  1954 ;; *************** function _Interrupt_INTx_Pin_Init *****************
  1955 ;; Defined at:
  1956 ;;		line 397 in file "MCAL_Layer/Interrupt/mcal_external_interrupt.c"
  1957 ;; Parameters:    Size  Location     Type
  1958 ;;  int_obj         1   13[COMRAM] PTR const struct .
  1959 ;;		 -> int0(6), 
  1960 ;; Auto vars:     Size  Location     Type
  1961 ;;  ret             1   14[COMRAM] unsigned char 
  1962 ;; Return value:  Size  Location     Type
  1963 ;;                  1    wreg      unsigned char 
  1964 ;; Registers used:
  1965 ;;		wreg, fsr2l, fsr2h, status,2, status,0, prodl, prodh, cstack
  1966 ;; Tracked objects:
  1967 ;;		On entry : 0/0
  1968 ;;		On exit  : 0/0
  1969 ;;		Unchanged: 0/0
  1970 ;; Data sizes:     COMRAM   BANK0   BANK1   BANK2   BANK3   BANK4   BANK5   BANK6   BANK7   BANK8   BANK9  BANK10  BANK1
      +1  BANK12  BANK13  BANK14  BANK15
  1971 ;;      Params:         1       0       0       0       0       0       0       0       0       0       0       0       
      +0       0       0       0       0
  1972 ;;      Locals:         1       0       0       0       0       0       0       0       0       0       0       0       
      +0       0       0       0       0
  1973 ;;      Temps:          0       0       0       0       0       0       0       0       0       0       0       0       
      +0       0       0       0       0
  1974 ;;      Totals:         2       0       0       0       0       0       0       0       0       0       0       0       
      +0       0       0       0       0
  1975 ;;Total ram usage:        2 bytes
  1976 ;; Hardware stack levels used: 1
  1977 ;; Hardware stack levels required when called: 5
  1978 ;; This function calls:
  1979 ;;		_gpio_pin_direction_intialize
  1980 ;; This function is called by:
  1981 ;;		_Interrupt_INTx_Init
  1982 ;; This function uses a non-reentrant model
  1983 ;;
  1984                           
  1985                           	psect	text15
  1986   001BB6                     __ptext15:
  1987                           	callstack 0
  1988   001BB6                     _Interrupt_INTx_Pin_Init:
  1989                           	callstack 24
  1990   001BB6                     
  1991                           ;MCAL_Layer/Interrupt/mcal_external_interrupt.c: 399:     if(int_obj == ((void*)0)){
  1992   001BB6  5067               	movf	Interrupt_INTx_Pin_Init@int_obj^0,w,c
  1993   001BB8  A4D8               	btfss	status,2,c
  1994   001BBA  EFE1  F00D         	goto	u1911
  1995   001BBE  EFE3  F00D         	goto	u1910
  1996   001BC2                     u1911:
  1997   001BC2  EFE7  F00D         	goto	l3039
  1998   001BC6                     u1910:
  1999   001BC6                     
  2000                           ;MCAL_Layer/Interrupt/mcal_external_interrupt.c: 400:         ret = (std_ReturnType)0x00
      +                          ;
  2001   001BC6  0E00               	movlw	0
  2002   001BC8  6E68               	movwf	Interrupt_INTx_Pin_Init@ret^0,c
  2003                           
  2004                           ;MCAL_Layer/Interrupt/mcal_external_interrupt.c: 401:     }
  2005   001BCA  EFED  F00D         	goto	l3041
  2006   001BCE                     l3039:
  2007                           
  2008                           ;MCAL_Layer/Interrupt/mcal_external_interrupt.c: 403:         ret = gpio_pin_direction_i
      +                          ntialize(&(int_obj->pin));
  2009   001BCE  5067               	movf	Interrupt_INTx_Pin_Init@int_obj^0,w,c
  2010   001BD0  0F02               	addlw	2
  2011   001BD2  6E60               	movwf	gpio_pin_direction_intialize@_pin_config^0,c
  2012   001BD4  EC6B  F009         	call	_gpio_pin_direction_intialize	;wreg free
  2013   001BD8  6E68               	movwf	Interrupt_INTx_Pin_Init@ret^0,c
  2014   001BDA                     l3041:
  2015                           
  2016                           ;MCAL_Layer/Interrupt/mcal_external_interrupt.c: 405:     return ret;
  2017   001BDA  5068               	movf	Interrupt_INTx_Pin_Init@ret^0,w,c
  2018   001BDC  0012               	return		;funcret
  2019   001BDE                     __end_of_Interrupt_INTx_Pin_Init:
  2020                           	callstack 0
  2021                           
  2022 ;; *************** function _gpio_pin_direction_intialize *****************
  2023 ;; Defined at:
  2024 ;;		line 21 in file "MCAL_Layer/GPIO/hal_gpio.c"
  2025 ;; Parameters:    Size  Location     Type
  2026 ;;  _pin_config     1    6[COMRAM] PTR const struct .
  2027 ;;		 -> int0(6), relay_initialization@pin_obj(1), led_initialize@pin_obj(1), 
  2028 ;; Auto vars:     Size  Location     Type
  2029 ;;  ret             1   12[COMRAM] unsigned char 
  2030 ;; Return value:  Size  Location     Type
  2031 ;;                  1    wreg      unsigned char 
  2032 ;; Registers used:
  2033 ;;		wreg, fsr2l, fsr2h, status,2, status,0, prodl, prodh
  2034 ;; Tracked objects:
  2035 ;;		On entry : 0/0
  2036 ;;		On exit  : 0/0
  2037 ;;		Unchanged: 0/0
  2038 ;; Data sizes:     COMRAM   BANK0   BANK1   BANK2   BANK3   BANK4   BANK5   BANK6   BANK7   BANK8   BANK9  BANK10  BANK1
      +1  BANK12  BANK13  BANK14  BANK15
  2039 ;;      Params:         1       0       0       0       0       0       0       0       0       0       0       0       
      +0       0       0       0       0
  2040 ;;      Locals:         1       0       0       0       0       0       0       0       0       0       0       0       
      +0       0       0       0       0
  2041 ;;      Temps:          5       0       0       0       0       0       0       0       0       0       0       0       
      +0       0       0       0       0
  2042 ;;      Totals:         7       0       0       0       0       0       0       0       0       0       0       0       
      +0       0       0       0       0
  2043 ;;Total ram usage:        7 bytes
  2044 ;; Hardware stack levels used: 1
  2045 ;; Hardware stack levels required when called: 4
  2046 ;; This function calls:
  2047 ;;		Nothing
  2048 ;; This function is called by:
  2049 ;;		_gpio_pin_initialize
  2050 ;;		_Interrupt_INTx_Pin_Init
  2051 ;;		_button_initialize
  2052 ;;		_Interrupt_RBx_Init
  2053 ;; This function uses a non-reentrant model
  2054 ;;
  2055                           
  2056                           	psect	text16
  2057   0012D6                     __ptext16:
  2058                           	callstack 0
  2059   0012D6                     _gpio_pin_direction_intialize:
  2060                           	callstack 22
  2061   0012D6                     
  2062                           ;MCAL_Layer/GPIO/hal_gpio.c: 22:     std_ReturnType ret = (std_ReturnType)0x01;
  2063   0012D6  0E01               	movlw	1
  2064   0012D8  6E66               	movwf	gpio_pin_direction_intialize@ret^0,c
  2065                           
  2066                           ;MCAL_Layer/GPIO/hal_gpio.c: 23:     if(((void*)0) == _pin_config || _pin_config->pin > 
      +                          8 - 1){
  2067   0012DA  5060               	movf	gpio_pin_direction_intialize@_pin_config^0,w,c
  2068   0012DC  B4D8               	btfsc	status,2,c
  2069   0012DE  EF73  F009         	goto	u1631
  2070   0012E2  EF75  F009         	goto	u1630
  2071   0012E6                     u1631:
  2072   0012E6  EF85  F009         	goto	l2795
  2073   0012EA                     u1630:
  2074   0012EA  5060               	movf	gpio_pin_direction_intialize@_pin_config^0,w,c
  2075   0012EC  6ED9               	movwf	fsr2l,c
  2076   0012EE  6ADA               	clrf	fsr2h,c
  2077   0012F0  30DF               	rrcf	223,w,c
  2078   0012F2  32E8               	rrcf	wreg,f,c
  2079   0012F4  32E8               	rrcf	wreg,f,c
  2080   0012F6  0B07               	andlw	7
  2081   0012F8  6E61               	movwf	??_gpio_pin_direction_intialize^0,c
  2082   0012FA  0E07               	movlw	7
  2083   0012FC  6461               	cpfsgt	??_gpio_pin_direction_intialize^0,c
  2084   0012FE  EF83  F009         	goto	u1641
  2085   001302  EF85  F009         	goto	u1640
  2086   001306                     u1641:
  2087   001306  EFDC  F009         	goto	l2803
  2088   00130A                     u1640:
  2089   00130A                     l2795:
  2090                           
  2091                           ;MCAL_Layer/GPIO/hal_gpio.c: 24:         ret = (std_ReturnType)0x00;
  2092   00130A  0E00               	movlw	0
  2093   00130C  6E66               	movwf	gpio_pin_direction_intialize@ret^0,c
  2094                           
  2095                           ;MCAL_Layer/GPIO/hal_gpio.c: 25:     }
  2096   00130E  EFF2  F009         	goto	l2805
  2097   001312                     l2797:
  2098                           
  2099                           ;MCAL_Layer/GPIO/hal_gpio.c: 30:             (*tris_registers[_pin_config->port] &= ~((u
      +                          int8)1<<_pin_config->pin));
  2100   001312  5060               	movf	gpio_pin_direction_intialize@_pin_config^0,w,c
  2101   001314  6ED9               	movwf	fsr2l,c
  2102   001316  6ADA               	clrf	fsr2h,c
  2103   001318  30DF               	rrcf	223,w,c
  2104   00131A  32E8               	rrcf	wreg,f,c
  2105   00131C  32E8               	rrcf	wreg,f,c
  2106   00131E  0B07               	andlw	7
  2107   001320  6E61               	movwf	??_gpio_pin_direction_intialize^0,c
  2108   001322  0E01               	movlw	1
  2109   001324  6E62               	movwf	(??_gpio_pin_direction_intialize+1)^0,c
  2110   001326  2A61               	incf	??_gpio_pin_direction_intialize^0,f,c
  2111   001328  EF98  F009         	goto	u1654
  2112   00132C                     u1655:
  2113   00132C  90D8               	bcf	status,0,c
  2114   00132E  3662               	rlcf	(??_gpio_pin_direction_intialize+1)^0,f,c
  2115   001330                     u1654:
  2116   001330  2E61               	decfsz	??_gpio_pin_direction_intialize^0,f,c
  2117   001332  EF96  F009         	goto	u1655
  2118   001336  5062               	movf	(??_gpio_pin_direction_intialize+1)^0,w,c
  2119   001338  0AFF               	xorlw	255
  2120   00133A  6E63               	movwf	(??_gpio_pin_direction_intialize+2)^0,c
  2121   00133C  5060               	movf	gpio_pin_direction_intialize@_pin_config^0,w,c
  2122   00133E  6ED9               	movwf	fsr2l,c
  2123   001340  6ADA               	clrf	fsr2h,c
  2124   001342  50DF               	movf	223,w,c
  2125   001344  0B07               	andlw	7
  2126   001346  0D02               	mullw	2
  2127   001348  50F3               	movf	243,w,c
  2128   00134A  0F25               	addlw	low _tris_registers
  2129   00134C  6ED9               	movwf	fsr2l,c
  2130   00134E  6ADA               	clrf	fsr2h,c
  2131   001350  CFDE F064          	movff	postinc2,??_gpio_pin_direction_intialize+3
  2132   001354  CFDD F065          	movff	postdec2,??_gpio_pin_direction_intialize+4
  2133   001358  C064  FFD9         	movff	??_gpio_pin_direction_intialize+3,fsr2l
  2134   00135C  C065  FFDA         	movff	??_gpio_pin_direction_intialize+4,fsr2h
  2135   001360  5063               	movf	(??_gpio_pin_direction_intialize+2)^0,w,c
  2136   001362  16DF               	andwf	indf2,f,c
  2137                           
  2138                           ;MCAL_Layer/GPIO/hal_gpio.c: 31:             break;
  2139   001364  EFF2  F009         	goto	l2805
  2140   001368                     l2799:
  2141                           
  2142                           ;MCAL_Layer/GPIO/hal_gpio.c: 33:             (*tris_registers[_pin_config->port] |= ((ui
      +                          nt8)1<<_pin_config->pin));
  2143   001368  5060               	movf	gpio_pin_direction_intialize@_pin_config^0,w,c
  2144   00136A  6ED9               	movwf	fsr2l,c
  2145   00136C  6ADA               	clrf	fsr2h,c
  2146   00136E  30DF               	rrcf	223,w,c
  2147   001370  32E8               	rrcf	wreg,f,c
  2148   001372  32E8               	rrcf	wreg,f,c
  2149   001374  0B07               	andlw	7
  2150   001376  6E61               	movwf	??_gpio_pin_direction_intialize^0,c
  2151   001378  0E01               	movlw	1
  2152   00137A  6E62               	movwf	(??_gpio_pin_direction_intialize+1)^0,c
  2153   00137C  2A61               	incf	??_gpio_pin_direction_intialize^0,f,c
  2154   00137E  EFC3  F009         	goto	u1664
  2155   001382                     u1665:
  2156   001382  90D8               	bcf	status,0,c
  2157   001384  3662               	rlcf	(??_gpio_pin_direction_intialize+1)^0,f,c
  2158   001386                     u1664:
  2159   001386  2E61               	decfsz	??_gpio_pin_direction_intialize^0,f,c
  2160   001388  EFC1  F009         	goto	u1665
  2161   00138C  5060               	movf	gpio_pin_direction_intialize@_pin_config^0,w,c
  2162   00138E  6ED9               	movwf	fsr2l,c
  2163   001390  6ADA               	clrf	fsr2h,c
  2164   001392  50DF               	movf	223,w,c
  2165   001394  0B07               	andlw	7
  2166   001396  0D02               	mullw	2
  2167   001398  50F3               	movf	243,w,c
  2168   00139A  0F25               	addlw	low _tris_registers
  2169   00139C  6ED9               	movwf	fsr2l,c
  2170   00139E  6ADA               	clrf	fsr2h,c
  2171   0013A0  CFDE F063          	movff	postinc2,??_gpio_pin_direction_intialize+2
  2172   0013A4  CFDD F064          	movff	postdec2,??_gpio_pin_direction_intialize+3
  2173   0013A8  C063  FFD9         	movff	??_gpio_pin_direction_intialize+2,fsr2l
  2174   0013AC  C064  FFDA         	movff	??_gpio_pin_direction_intialize+3,fsr2h
  2175   0013B0  5062               	movf	(??_gpio_pin_direction_intialize+1)^0,w,c
  2176   0013B2  12DF               	iorwf	indf2,f,c
  2177                           
  2178                           ;MCAL_Layer/GPIO/hal_gpio.c: 34:             break;
  2179   0013B4  EFF2  F009         	goto	l2805
  2180   0013B8                     l2803:
  2181   0013B8  5060               	movf	gpio_pin_direction_intialize@_pin_config^0,w,c
  2182   0013BA  6ED9               	movwf	fsr2l,c
  2183   0013BC  6ADA               	clrf	fsr2h,c
  2184   0013BE  BCDF               	btfsc	indf2,6,c
  2185   0013C0  EFE4  F009         	goto	u1671
  2186   0013C4  EFE7  F009         	goto	u1670
  2187   0013C8                     u1671:
  2188   0013C8  0E01               	movlw	1
  2189   0013CA  EFE8  F009         	goto	u1676
  2190   0013CE                     u1670:
  2191   0013CE  0E00               	movlw	0
  2192   0013D0                     u1676:
  2193                           
  2194                           ; Switch size 1, requested type "simple"
  2195                           ; Number of cases is 2, Range of values is 0 to 1
  2196                           ; switch strategies available:
  2197                           ; Name         Instructions Cycles
  2198                           ; simple_byte            7     4 (average)
  2199                           ;	Chosen strategy is simple_byte
  2200   0013D0  0A00               	xorlw	0	; case 0
  2201   0013D2  B4D8               	btfsc	status,2,c
  2202   0013D4  EF89  F009         	goto	l2797
  2203   0013D8  0A01               	xorlw	1	; case 1
  2204   0013DA  B4D8               	btfsc	status,2,c
  2205   0013DC  EFB4  F009         	goto	l2799
  2206   0013E0  EF85  F009         	goto	l2795
  2207   0013E4                     l2805:
  2208                           
  2209                           ;MCAL_Layer/GPIO/hal_gpio.c: 39:     return ret;
  2210   0013E4  5066               	movf	gpio_pin_direction_intialize@ret^0,w,c
  2211   0013E6  0012               	return		;funcret
  2212   0013E8                     __end_of_gpio_pin_direction_intialize:
  2213                           	callstack 0
  2214                           
  2215 ;; *************** function _Interrupt_INTx_Enable *****************
  2216 ;; Defined at:
  2217 ;;		line 270 in file "MCAL_Layer/Interrupt/mcal_external_interrupt.c"
  2218 ;; Parameters:    Size  Location     Type
  2219 ;;  int_obj         1    6[COMRAM] PTR const struct .
  2220 ;;		 -> int0(6), 
  2221 ;; Auto vars:     Size  Location     Type
  2222 ;;  ret             1    9[COMRAM] unsigned char 
  2223 ;; Return value:  Size  Location     Type
  2224 ;;                  1    wreg      unsigned char 
  2225 ;; Registers used:
  2226 ;;		wreg, fsr2l, fsr2h, status,2, status,0
  2227 ;; Tracked objects:
  2228 ;;		On entry : 0/0
  2229 ;;		On exit  : 0/0
  2230 ;;		Unchanged: 0/0
  2231 ;; Data sizes:     COMRAM   BANK0   BANK1   BANK2   BANK3   BANK4   BANK5   BANK6   BANK7   BANK8   BANK9  BANK10  BANK1
      +1  BANK12  BANK13  BANK14  BANK15
  2232 ;;      Params:         1       0       0       0       0       0       0       0       0       0       0       0       
      +0       0       0       0       0
  2233 ;;      Locals:         1       0       0       0       0       0       0       0       0       0       0       0       
      +0       0       0       0       0
  2234 ;;      Temps:          2       0       0       0       0       0       0       0       0       0       0       0       
      +0       0       0       0       0
  2235 ;;      Totals:         4       0       0       0       0       0       0       0       0       0       0       0       
      +0       0       0       0       0
  2236 ;;Total ram usage:        4 bytes
  2237 ;; Hardware stack levels used: 1
  2238 ;; Hardware stack levels required when called: 4
  2239 ;; This function calls:
  2240 ;;		Nothing
  2241 ;; This function is called by:
  2242 ;;		_Interrupt_INTx_Init
  2243 ;; This function uses a non-reentrant model
  2244 ;;
  2245                           
  2246                           	psect	text17
  2247   0016C6                     __ptext17:
  2248                           	callstack 0
  2249   0016C6                     _Interrupt_INTx_Enable:
  2250                           	callstack 25
  2251   0016C6                     
  2252                           ;MCAL_Layer/Interrupt/mcal_external_interrupt.c: 271:     std_ReturnType ret = (std_Retu
      +                          rnType)0x01;
  2253   0016C6  0E01               	movlw	1
  2254   0016C8  6E63               	movwf	Interrupt_INTx_Enable@ret^0,c
  2255                           
  2256                           ;MCAL_Layer/Interrupt/mcal_external_interrupt.c: 272:     if(int_obj == ((void*)0)){
  2257   0016CA  5060               	movf	Interrupt_INTx_Enable@int_obj^0,w,c
  2258   0016CC  A4D8               	btfss	status,2,c
  2259   0016CE  EF6B  F00B         	goto	u1931
  2260   0016D2  EF6D  F00B         	goto	u1930
  2261   0016D6                     u1931:
  2262   0016D6  EF81  F00B         	goto	l3073
  2263   0016DA                     u1930:
  2264   0016DA                     l3069:
  2265                           
  2266                           ;MCAL_Layer/Interrupt/mcal_external_interrupt.c: 273:         ret = (std_ReturnType)0x00
      +                          ;
  2267   0016DA  0E00               	movlw	0
  2268   0016DC  6E63               	movwf	Interrupt_INTx_Enable@ret^0,c
  2269                           
  2270                           ;MCAL_Layer/Interrupt/mcal_external_interrupt.c: 274:     }
  2271   0016DE  EF9F  F00B         	goto	l3075
  2272   0016E2                     l575:
  2273                           
  2274                           ;MCAL_Layer/Interrupt/mcal_external_interrupt.c: 281:                 (INTCONbits.GIEH =
      +                           1);
  2275   0016E2  8EF2               	bsf	242,7,c	;volatile
  2276                           
  2277                           ;MCAL_Layer/Interrupt/mcal_external_interrupt.c: 282:                 (INTCONbits.GIEH =
      +                           1);
  2278   0016E4  8EF2               	bsf	242,7,c	;volatile
  2279                           
  2280                           ;MCAL_Layer/Interrupt/mcal_external_interrupt.c: 283:                 (INTCONbits.PEIE =
      +                           1);
  2281   0016E6  8CF2               	bsf	242,6,c	;volatile
  2282                           
  2283                           ;MCAL_Layer/Interrupt/mcal_external_interrupt.c: 285:                 (INTCONbits.INT0IE
      +                           = 1);
  2284   0016E8  88F2               	bsf	242,4,c	;volatile
  2285                           
  2286                           ;MCAL_Layer/Interrupt/mcal_external_interrupt.c: 286:                 break;
  2287   0016EA  EF9F  F00B         	goto	l3075
  2288   0016EE                     l577:
  2289                           
  2290                           ;MCAL_Layer/Interrupt/mcal_external_interrupt.c: 298:                 (INTCONbits.GIEH =
      +                           1);
  2291   0016EE  8EF2               	bsf	242,7,c	;volatile
  2292                           
  2293                           ;MCAL_Layer/Interrupt/mcal_external_interrupt.c: 299:                 (INTCONbits.PEIE =
      +                           1);
  2294   0016F0  8CF2               	bsf	242,6,c	;volatile
  2295                           
  2296                           ;MCAL_Layer/Interrupt/mcal_external_interrupt.c: 301:                 (INTCON3bits.INT1I
      +                          E = 1);
  2297   0016F2  86F0               	bsf	240,3,c	;volatile
  2298                           
  2299                           ;MCAL_Layer/Interrupt/mcal_external_interrupt.c: 303:                 break;
  2300   0016F4  EF9F  F00B         	goto	l3075
  2301   0016F8                     l578:
  2302                           
  2303                           ;MCAL_Layer/Interrupt/mcal_external_interrupt.c: 315:                 (INTCONbits.GIEH =
      +                           1);
  2304   0016F8  8EF2               	bsf	242,7,c	;volatile
  2305                           
  2306                           ;MCAL_Layer/Interrupt/mcal_external_interrupt.c: 316:                 (INTCONbits.PEIE =
      +                           1);
  2307   0016FA  8CF2               	bsf	242,6,c	;volatile
  2308                           
  2309                           ;MCAL_Layer/Interrupt/mcal_external_interrupt.c: 318:                 (INTCON3bits.INT2I
      +                          E = 1);
  2310   0016FC  88F0               	bsf	240,4,c	;volatile
  2311                           
  2312                           ;MCAL_Layer/Interrupt/mcal_external_interrupt.c: 319:                 break;
  2313   0016FE  EF9F  F00B         	goto	l3075
  2314   001702                     l3073:
  2315   001702  5060               	movf	Interrupt_INTx_Enable@int_obj^0,w,c
  2316   001704  6ED9               	movwf	fsr2l,c
  2317   001706  6ADA               	clrf	fsr2h,c
  2318   001708  0E03               	movlw	3
  2319   00170A  26D9               	addwf	fsr2l,f,c
  2320   00170C  50DF               	movf	indf2,w,c
  2321   00170E  6E61               	movwf	??_Interrupt_INTx_Enable^0,c
  2322   001710  6A62               	clrf	(??_Interrupt_INTx_Enable+1)^0,c
  2323                           
  2324                           ; Switch on 2 bytes has been partitioned into a top level switch of size 1, and 1 sub-sw
      +                          itches
  2325                           ; Switch size 1, requested type "simple"
  2326                           ; Number of cases is 1, Range of values is 0 to 0
  2327                           ; switch strategies available:
  2328                           ; Name         Instructions Cycles
  2329                           ; simple_byte            4     3 (average)
  2330                           ;	Chosen strategy is simple_byte
  2331   001712  5062               	movf	(??_Interrupt_INTx_Enable+1)^0,w,c
  2332   001714  0A00               	xorlw	0	; case 0
  2333   001716  B4D8               	btfsc	status,2,c
  2334   001718  EF90  F00B         	goto	l3871
  2335   00171C  EF6D  F00B         	goto	l3069
  2336   001720                     l3871:
  2337                           
  2338                           ; Switch size 1, requested type "simple"
  2339                           ; Number of cases is 3, Range of values is 0 to 2
  2340                           ; switch strategies available:
  2341                           ; Name         Instructions Cycles
  2342                           ; simple_byte           10     6 (average)
  2343                           ;	Chosen strategy is simple_byte
  2344   001720  5061               	movf	??_Interrupt_INTx_Enable^0,w,c
  2345   001722  0A00               	xorlw	0	; case 0
  2346   001724  B4D8               	btfsc	status,2,c
  2347   001726  EF71  F00B         	goto	l575
  2348   00172A  0A01               	xorlw	1	; case 1
  2349   00172C  B4D8               	btfsc	status,2,c
  2350   00172E  EF77  F00B         	goto	l577
  2351   001732  0A03               	xorlw	3	; case 2
  2352   001734  B4D8               	btfsc	status,2,c
  2353   001736  EF7C  F00B         	goto	l578
  2354   00173A  EF6D  F00B         	goto	l3069
  2355   00173E                     l3075:
  2356                           
  2357                           ;MCAL_Layer/Interrupt/mcal_external_interrupt.c: 324:     return ret;
  2358   00173E  5063               	movf	Interrupt_INTx_Enable@ret^0,w,c
  2359   001740  0012               	return		;funcret
  2360   001742                     __end_of_Interrupt_INTx_Enable:
  2361                           	callstack 0
  2362                           
  2363 ;; *************** function _Interrupt_INTx_Edge_Src *****************
  2364 ;; Defined at:
  2365 ;;		line 360 in file "MCAL_Layer/Interrupt/mcal_external_interrupt.c"
  2366 ;; Parameters:    Size  Location     Type
  2367 ;;  int_obj         1    6[COMRAM] PTR const struct .
  2368 ;;		 -> int0(6), 
  2369 ;; Auto vars:     Size  Location     Type
  2370 ;;  ret             1    9[COMRAM] unsigned char 
  2371 ;; Return value:  Size  Location     Type
  2372 ;;                  1    wreg      unsigned char 
  2373 ;; Registers used:
  2374 ;;		wreg, fsr2l, fsr2h, status,2, status,0
  2375 ;; Tracked objects:
  2376 ;;		On entry : 0/0
  2377 ;;		On exit  : 0/0
  2378 ;;		Unchanged: 0/0
  2379 ;; Data sizes:     COMRAM   BANK0   BANK1   BANK2   BANK3   BANK4   BANK5   BANK6   BANK7   BANK8   BANK9  BANK10  BANK1
      +1  BANK12  BANK13  BANK14  BANK15
  2380 ;;      Params:         1       0       0       0       0       0       0       0       0       0       0       0       
      +0       0       0       0       0
  2381 ;;      Locals:         1       0       0       0       0       0       0       0       0       0       0       0       
      +0       0       0       0       0
  2382 ;;      Temps:          2       0       0       0       0       0       0       0       0       0       0       0       
      +0       0       0       0       0
  2383 ;;      Totals:         4       0       0       0       0       0       0       0       0       0       0       0       
      +0       0       0       0       0
  2384 ;;Total ram usage:        4 bytes
  2385 ;; Hardware stack levels used: 1
  2386 ;; Hardware stack levels required when called: 4
  2387 ;; This function calls:
  2388 ;;		Nothing
  2389 ;; This function is called by:
  2390 ;;		_Interrupt_INTx_Init
  2391 ;; This function uses a non-reentrant model
  2392 ;;
  2393                           
  2394                           	psect	text18
  2395   0014D8                     __ptext18:
  2396                           	callstack 0
  2397   0014D8                     _Interrupt_INTx_Edge_Src:
  2398                           	callstack 25
  2399   0014D8                     
  2400                           ;MCAL_Layer/Interrupt/mcal_external_interrupt.c: 361:     std_ReturnType ret = (std_Retu
      +                          rnType)0x01;
  2401   0014D8  0E01               	movlw	1
  2402   0014DA  6E63               	movwf	Interrupt_INTx_Edge_Src@ret^0,c
  2403                           
  2404                           ;MCAL_Layer/Interrupt/mcal_external_interrupt.c: 362:     if(int_obj == ((void*)0)){
  2405   0014DC  5060               	movf	Interrupt_INTx_Edge_Src@int_obj^0,w,c
  2406   0014DE  A4D8               	btfss	status,2,c
  2407   0014E0  EF74  F00A         	goto	u1871
  2408   0014E4  EF76  F00A         	goto	u1870
  2409   0014E8                     u1871:
  2410   0014E8  EFB3  F00A         	goto	l3025
  2411   0014EC                     u1870:
  2412   0014EC                     l3009:
  2413                           
  2414                           ;MCAL_Layer/Interrupt/mcal_external_interrupt.c: 363:         ret = (std_ReturnType)0x00
      +                          ;
  2415   0014EC  0E00               	movlw	0
  2416   0014EE  6E63               	movwf	Interrupt_INTx_Edge_Src@ret^0,c
  2417                           
  2418                           ;MCAL_Layer/Interrupt/mcal_external_interrupt.c: 364:     }
  2419   0014F0  EFD1  F00A         	goto	l3027
  2420   0014F4                     l3011:
  2421                           
  2422                           ;MCAL_Layer/Interrupt/mcal_external_interrupt.c: 368:                 if(int_obj->edge =
      +                          = Falling_Edge){
  2423   0014F4  5060               	movf	Interrupt_INTx_Edge_Src@int_obj^0,w,c
  2424   0014F6  6ED9               	movwf	fsr2l,c
  2425   0014F8  6ADA               	clrf	fsr2h,c
  2426   0014FA  0E04               	movlw	4
  2427   0014FC  26D9               	addwf	fsr2l,f,c
  2428   0014FE  50DF               	movf	indf2,w,c
  2429   001500  A4D8               	btfss	status,2,c
  2430   001502  EF85  F00A         	goto	u1881
  2431   001506  EF87  F00A         	goto	u1880
  2432   00150A                     u1881:
  2433   00150A  EF8A  F00A         	goto	l609
  2434   00150E                     u1880:
  2435   00150E                     
  2436                           ;MCAL_Layer/Interrupt/mcal_external_interrupt.c: 369:                     (INTCON2bits.I
      +                          NTEDG0 = 0);
  2437   00150E  9CF1               	bcf	241,6,c	;volatile
  2438                           
  2439                           ;MCAL_Layer/Interrupt/mcal_external_interrupt.c: 370:                 }
  2440   001510  EFD1  F00A         	goto	l3027
  2441   001514                     l609:
  2442                           
  2443                           ;MCAL_Layer/Interrupt/mcal_external_interrupt.c: 372:                     (INTCON2bits.I
      +                          NTEDG0 = 1);
  2444   001514  8CF1               	bsf	241,6,c	;volatile
  2445   001516  EFD1  F00A         	goto	l3027
  2446   00151A                     l3015:
  2447                           
  2448                           ;MCAL_Layer/Interrupt/mcal_external_interrupt.c: 376:                 if(int_obj->edge =
      +                          = Falling_Edge){
  2449   00151A  5060               	movf	Interrupt_INTx_Edge_Src@int_obj^0,w,c
  2450   00151C  6ED9               	movwf	fsr2l,c
  2451   00151E  6ADA               	clrf	fsr2h,c
  2452   001520  0E04               	movlw	4
  2453   001522  26D9               	addwf	fsr2l,f,c
  2454   001524  50DF               	movf	indf2,w,c
  2455   001526  A4D8               	btfss	status,2,c
  2456   001528  EF98  F00A         	goto	u1891
  2457   00152C  EF9A  F00A         	goto	u1890
  2458   001530                     u1891:
  2459   001530  EF9D  F00A         	goto	l613
  2460   001534                     u1890:
  2461   001534                     
  2462                           ;MCAL_Layer/Interrupt/mcal_external_interrupt.c: 377:                     (INTCON2bits.I
      +                          NTEDG1 = 0);
  2463   001534  9AF1               	bcf	241,5,c	;volatile
  2464                           
  2465                           ;MCAL_Layer/Interrupt/mcal_external_interrupt.c: 378:                 }
  2466   001536  EFD1  F00A         	goto	l3027
  2467   00153A                     l613:
  2468                           
  2469                           ;MCAL_Layer/Interrupt/mcal_external_interrupt.c: 380:                     (INTCON2bits.I
      +                          NTEDG1 = 1);
  2470   00153A  8AF1               	bsf	241,5,c	;volatile
  2471   00153C  EFD1  F00A         	goto	l3027
  2472   001540                     l3019:
  2473                           
  2474                           ;MCAL_Layer/Interrupt/mcal_external_interrupt.c: 384:                 if(int_obj->edge =
      +                          = Falling_Edge){
  2475   001540  5060               	movf	Interrupt_INTx_Edge_Src@int_obj^0,w,c
  2476   001542  6ED9               	movwf	fsr2l,c
  2477   001544  6ADA               	clrf	fsr2h,c
  2478   001546  0E04               	movlw	4
  2479   001548  26D9               	addwf	fsr2l,f,c
  2480   00154A  50DF               	movf	indf2,w,c
  2481   00154C  A4D8               	btfss	status,2,c
  2482   00154E  EFAB  F00A         	goto	u1901
  2483   001552  EFAD  F00A         	goto	u1900
  2484   001556                     u1901:
  2485   001556  EFB0  F00A         	goto	l616
  2486   00155A                     u1900:
  2487   00155A                     
  2488                           ;MCAL_Layer/Interrupt/mcal_external_interrupt.c: 385:                     (INTCON2bits.I
      +                          NTEDG2 = 0);
  2489   00155A  98F1               	bcf	241,4,c	;volatile
  2490                           
  2491                           ;MCAL_Layer/Interrupt/mcal_external_interrupt.c: 386:                 }
  2492   00155C  EFD1  F00A         	goto	l3027
  2493   001560                     l616:
  2494                           
  2495                           ;MCAL_Layer/Interrupt/mcal_external_interrupt.c: 388:                     (INTCON2bits.I
      +                          NTEDG2 = 1);
  2496   001560  88F1               	bsf	241,4,c	;volatile
  2497   001562  EFD1  F00A         	goto	l3027
  2498   001566                     l3025:
  2499   001566  5060               	movf	Interrupt_INTx_Edge_Src@int_obj^0,w,c
  2500   001568  6ED9               	movwf	fsr2l,c
  2501   00156A  6ADA               	clrf	fsr2h,c
  2502   00156C  0E03               	movlw	3
  2503   00156E  26D9               	addwf	fsr2l,f,c
  2504   001570  50DF               	movf	indf2,w,c
  2505   001572  6E61               	movwf	??_Interrupt_INTx_Edge_Src^0,c
  2506   001574  6A62               	clrf	(??_Interrupt_INTx_Edge_Src+1)^0,c
  2507                           
  2508                           ; Switch on 2 bytes has been partitioned into a top level switch of size 1, and 1 sub-sw
      +                          itches
  2509                           ; Switch size 1, requested type "simple"
  2510                           ; Number of cases is 1, Range of values is 0 to 0
  2511                           ; switch strategies available:
  2512                           ; Name         Instructions Cycles
  2513                           ; simple_byte            4     3 (average)
  2514                           ;	Chosen strategy is simple_byte
  2515   001576  5062               	movf	(??_Interrupt_INTx_Edge_Src+1)^0,w,c
  2516   001578  0A00               	xorlw	0	; case 0
  2517   00157A  B4D8               	btfsc	status,2,c
  2518   00157C  EFC2  F00A         	goto	l3873
  2519   001580  EF76  F00A         	goto	l3009
  2520   001584                     l3873:
  2521                           
  2522                           ; Switch size 1, requested type "simple"
  2523                           ; Number of cases is 3, Range of values is 0 to 2
  2524                           ; switch strategies available:
  2525                           ; Name         Instructions Cycles
  2526                           ; simple_byte           10     6 (average)
  2527                           ;	Chosen strategy is simple_byte
  2528   001584  5061               	movf	??_Interrupt_INTx_Edge_Src^0,w,c
  2529   001586  0A00               	xorlw	0	; case 0
  2530   001588  B4D8               	btfsc	status,2,c
  2531   00158A  EF7A  F00A         	goto	l3011
  2532   00158E  0A01               	xorlw	1	; case 1
  2533   001590  B4D8               	btfsc	status,2,c
  2534   001592  EF8D  F00A         	goto	l3015
  2535   001596  0A03               	xorlw	3	; case 2
  2536   001598  B4D8               	btfsc	status,2,c
  2537   00159A  EFA0  F00A         	goto	l3019
  2538   00159E  EF76  F00A         	goto	l3009
  2539   0015A2                     l3027:
  2540                           
  2541                           ;MCAL_Layer/Interrupt/mcal_external_interrupt.c: 395:     return ret;
  2542   0015A2  5063               	movf	Interrupt_INTx_Edge_Src@ret^0,w,c
  2543   0015A4  0012               	return		;funcret
  2544   0015A6                     __end_of_Interrupt_INTx_Edge_Src:
  2545                           	callstack 0
  2546                           
  2547 ;; *************** function _Interrupt_INTx_Disable *****************
  2548 ;; Defined at:
  2549 ;;		line 327 in file "MCAL_Layer/Interrupt/mcal_external_interrupt.c"
  2550 ;; Parameters:    Size  Location     Type
  2551 ;;  int_obj         1    6[COMRAM] PTR const struct .
  2552 ;;		 -> int0(6), 
  2553 ;; Auto vars:     Size  Location     Type
  2554 ;;  ret             1    9[COMRAM] unsigned char 
  2555 ;; Return value:  Size  Location     Type
  2556 ;;                  1    wreg      unsigned char 
  2557 ;; Registers used:
  2558 ;;		wreg, fsr2l, fsr2h, status,2, status,0
  2559 ;; Tracked objects:
  2560 ;;		On entry : 0/0
  2561 ;;		On exit  : 0/0
  2562 ;;		Unchanged: 0/0
  2563 ;; Data sizes:     COMRAM   BANK0   BANK1   BANK2   BANK3   BANK4   BANK5   BANK6   BANK7   BANK8   BANK9  BANK10  BANK1
      +1  BANK12  BANK13  BANK14  BANK15
  2564 ;;      Params:         1       0       0       0       0       0       0       0       0       0       0       0       
      +0       0       0       0       0
  2565 ;;      Locals:         1       0       0       0       0       0       0       0       0       0       0       0       
      +0       0       0       0       0
  2566 ;;      Temps:          2       0       0       0       0       0       0       0       0       0       0       0       
      +0       0       0       0       0
  2567 ;;      Totals:         4       0       0       0       0       0       0       0       0       0       0       0       
      +0       0       0       0       0
  2568 ;;Total ram usage:        4 bytes
  2569 ;; Hardware stack levels used: 1
  2570 ;; Hardware stack levels required when called: 4
  2571 ;; This function calls:
  2572 ;;		Nothing
  2573 ;; This function is called by:
  2574 ;;		_Interrupt_INTx_Init
  2575 ;;		_Interrupt_INTx_DeInit
  2576 ;; This function uses a non-reentrant model
  2577 ;;
  2578                           
  2579                           	psect	text19
  2580   0017B0                     __ptext19:
  2581                           	callstack 0
  2582   0017B0                     _Interrupt_INTx_Disable:
  2583                           	callstack 25
  2584   0017B0                     
  2585                           ;MCAL_Layer/Interrupt/mcal_external_interrupt.c: 328:     std_ReturnType ret = (std_Retu
      +                          rnType)0x01;
  2586   0017B0  0E01               	movlw	1
  2587   0017B2  6E63               	movwf	Interrupt_INTx_Disable@ret^0,c
  2588                           
  2589                           ;MCAL_Layer/Interrupt/mcal_external_interrupt.c: 329:     if(int_obj == ((void*)0)){
  2590   0017B4  5060               	movf	Interrupt_INTx_Disable@int_obj^0,w,c
  2591   0017B6  A4D8               	btfss	status,2,c
  2592   0017B8  EFE0  F00B         	goto	u1851
  2593   0017BC  EFE2  F00B         	goto	u1850
  2594   0017C0                     u1851:
  2595   0017C0  EFEF  F00B         	goto	l2981
  2596   0017C4                     u1850:
  2597   0017C4                     l2977:
  2598                           
  2599                           ;MCAL_Layer/Interrupt/mcal_external_interrupt.c: 330:         ret = (std_ReturnType)0x00
      +                          ;
  2600   0017C4  0E00               	movlw	0
  2601   0017C6  6E63               	movwf	Interrupt_INTx_Disable@ret^0,c
  2602                           
  2603                           ;MCAL_Layer/Interrupt/mcal_external_interrupt.c: 331:     }
  2604   0017C8  EF0D  F00C         	goto	l2983
  2605   0017CC                     l586:
  2606   0017CC  98F2               	bcf	242,4,c	;volatile
  2607   0017CE  EF0D  F00C         	goto	l2983
  2608   0017D2                     l588:
  2609   0017D2  96F0               	bcf	240,3,c	;volatile
  2610   0017D4  EF0D  F00C         	goto	l2983
  2611   0017D8                     l589:
  2612   0017D8  98F0               	bcf	240,4,c	;volatile
  2613   0017DA  EF0D  F00C         	goto	l2983
  2614   0017DE                     l2981:
  2615   0017DE  5060               	movf	Interrupt_INTx_Disable@int_obj^0,w,c
  2616   0017E0  6ED9               	movwf	fsr2l,c
  2617   0017E2  6ADA               	clrf	fsr2h,c
  2618   0017E4  0E03               	movlw	3
  2619   0017E6  26D9               	addwf	fsr2l,f,c
  2620   0017E8  50DF               	movf	indf2,w,c
  2621   0017EA  6E61               	movwf	??_Interrupt_INTx_Disable^0,c
  2622   0017EC  6A62               	clrf	(??_Interrupt_INTx_Disable+1)^0,c
  2623                           
  2624                           ; Switch on 2 bytes has been partitioned into a top level switch of size 1, and 1 sub-sw
      +                          itches
  2625                           ; Switch size 1, requested type "simple"
  2626                           ; Number of cases is 1, Range of values is 0 to 0
  2627                           ; switch strategies available:
  2628                           ; Name         Instructions Cycles
  2629                           ; simple_byte            4     3 (average)
  2630                           ;	Chosen strategy is simple_byte
  2631   0017EE  5062               	movf	(??_Interrupt_INTx_Disable+1)^0,w,c
  2632   0017F0  0A00               	xorlw	0	; case 0
  2633   0017F2  B4D8               	btfsc	status,2,c
  2634   0017F4  EFFE  F00B         	goto	l3875
  2635   0017F8  EFE2  F00B         	goto	l2977
  2636   0017FC                     l3875:
  2637                           
  2638                           ; Switch size 1, requested type "simple"
  2639                           ; Number of cases is 3, Range of values is 0 to 2
  2640                           ; switch strategies available:
  2641                           ; Name         Instructions Cycles
  2642                           ; simple_byte           10     6 (average)
  2643                           ;	Chosen strategy is simple_byte
  2644   0017FC  5061               	movf	??_Interrupt_INTx_Disable^0,w,c
  2645   0017FE  0A00               	xorlw	0	; case 0
  2646   001800  B4D8               	btfsc	status,2,c
  2647   001802  EFE6  F00B         	goto	l586
  2648   001806  0A01               	xorlw	1	; case 1
  2649   001808  B4D8               	btfsc	status,2,c
  2650   00180A  EFE9  F00B         	goto	l588
  2651   00180E  0A03               	xorlw	3	; case 2
  2652   001810  B4D8               	btfsc	status,2,c
  2653   001812  EFEC  F00B         	goto	l589
  2654   001816  EFE2  F00B         	goto	l2977
  2655   00181A                     l2983:
  2656                           
  2657                           ;MCAL_Layer/Interrupt/mcal_external_interrupt.c: 341:     return ret;
  2658   00181A  5063               	movf	Interrupt_INTx_Disable@ret^0,w,c
  2659   00181C  0012               	return		;funcret
  2660   00181E                     __end_of_Interrupt_INTx_Disable:
  2661                           	callstack 0
  2662                           
  2663 ;; *************** function _Interrupt_INTx_Clear_Flag *****************
  2664 ;; Defined at:
  2665 ;;		line 343 in file "MCAL_Layer/Interrupt/mcal_external_interrupt.c"
  2666 ;; Parameters:    Size  Location     Type
  2667 ;;  int_obj         1    6[COMRAM] PTR const struct .
  2668 ;;		 -> int0(6), 
  2669 ;; Auto vars:     Size  Location     Type
  2670 ;;  ret             1    9[COMRAM] unsigned char 
  2671 ;; Return value:  Size  Location     Type
  2672 ;;                  1    wreg      unsigned char 
  2673 ;; Registers used:
  2674 ;;		wreg, fsr2l, fsr2h, status,2, status,0
  2675 ;; Tracked objects:
  2676 ;;		On entry : 0/0
  2677 ;;		On exit  : 0/0
  2678 ;;		Unchanged: 0/0
  2679 ;; Data sizes:     COMRAM   BANK0   BANK1   BANK2   BANK3   BANK4   BANK5   BANK6   BANK7   BANK8   BANK9  BANK10  BANK1
      +1  BANK12  BANK13  BANK14  BANK15
  2680 ;;      Params:         1       0       0       0       0       0       0       0       0       0       0       0       
      +0       0       0       0       0
  2681 ;;      Locals:         1       0       0       0       0       0       0       0       0       0       0       0       
      +0       0       0       0       0
  2682 ;;      Temps:          2       0       0       0       0       0       0       0       0       0       0       0       
      +0       0       0       0       0
  2683 ;;      Totals:         4       0       0       0       0       0       0       0       0       0       0       0       
      +0       0       0       0       0
  2684 ;;Total ram usage:        4 bytes
  2685 ;; Hardware stack levels used: 1
  2686 ;; Hardware stack levels required when called: 4
  2687 ;; This function calls:
  2688 ;;		Nothing
  2689 ;; This function is called by:
  2690 ;;		_Interrupt_INTx_Init
  2691 ;; This function uses a non-reentrant model
  2692 ;;
  2693                           
  2694                           	psect	text20
  2695   00181E                     __ptext20:
  2696                           	callstack 0
  2697   00181E                     _Interrupt_INTx_Clear_Flag:
  2698                           	callstack 25
  2699   00181E                     
  2700                           ;MCAL_Layer/Interrupt/mcal_external_interrupt.c: 344:     std_ReturnType ret = (std_Retu
      +                          rnType)0x01;
  2701   00181E  0E01               	movlw	1
  2702   001820  6E63               	movwf	Interrupt_INTx_Clear_Flag@ret^0,c
  2703                           
  2704                           ;MCAL_Layer/Interrupt/mcal_external_interrupt.c: 345:     if(int_obj == ((void*)0)){
  2705   001822  5060               	movf	Interrupt_INTx_Clear_Flag@int_obj^0,w,c
  2706   001824  A4D8               	btfss	status,2,c
  2707   001826  EF17  F00C         	goto	u1861
  2708   00182A  EF19  F00C         	goto	u1860
  2709   00182E                     u1861:
  2710   00182E  EF26  F00C         	goto	l2997
  2711   001832                     u1860:
  2712   001832                     l2993:
  2713                           
  2714                           ;MCAL_Layer/Interrupt/mcal_external_interrupt.c: 346:         ret = (std_ReturnType)0x00
      +                          ;
  2715   001832  0E00               	movlw	0
  2716   001834  6E63               	movwf	Interrupt_INTx_Clear_Flag@ret^0,c
  2717                           
  2718                           ;MCAL_Layer/Interrupt/mcal_external_interrupt.c: 347:     }
  2719   001836  EF44  F00C         	goto	l2999
  2720   00183A                     l597:
  2721   00183A  92F2               	bcf	242,1,c	;volatile
  2722   00183C  EF44  F00C         	goto	l2999
  2723   001840                     l599:
  2724   001840  90F0               	bcf	240,0,c	;volatile
  2725   001842  EF44  F00C         	goto	l2999
  2726   001846                     l600:
  2727   001846  92F0               	bcf	240,1,c	;volatile
  2728   001848  EF44  F00C         	goto	l2999
  2729   00184C                     l2997:
  2730   00184C  5060               	movf	Interrupt_INTx_Clear_Flag@int_obj^0,w,c
  2731   00184E  6ED9               	movwf	fsr2l,c
  2732   001850  6ADA               	clrf	fsr2h,c
  2733   001852  0E03               	movlw	3
  2734   001854  26D9               	addwf	fsr2l,f,c
  2735   001856  50DF               	movf	indf2,w,c
  2736   001858  6E61               	movwf	??_Interrupt_INTx_Clear_Flag^0,c
  2737   00185A  6A62               	clrf	(??_Interrupt_INTx_Clear_Flag+1)^0,c
  2738                           
  2739                           ; Switch on 2 bytes has been partitioned into a top level switch of size 1, and 1 sub-sw
      +                          itches
  2740                           ; Switch size 1, requested type "simple"
  2741                           ; Number of cases is 1, Range of values is 0 to 0
  2742                           ; switch strategies available:
  2743                           ; Name         Instructions Cycles
  2744                           ; simple_byte            4     3 (average)
  2745                           ;	Chosen strategy is simple_byte
  2746   00185C  5062               	movf	(??_Interrupt_INTx_Clear_Flag+1)^0,w,c
  2747   00185E  0A00               	xorlw	0	; case 0
  2748   001860  B4D8               	btfsc	status,2,c
  2749   001862  EF35  F00C         	goto	l3877
  2750   001866  EF19  F00C         	goto	l2993
  2751   00186A                     l3877:
  2752                           
  2753                           ; Switch size 1, requested type "simple"
  2754                           ; Number of cases is 3, Range of values is 0 to 2
  2755                           ; switch strategies available:
  2756                           ; Name         Instructions Cycles
  2757                           ; simple_byte           10     6 (average)
  2758                           ;	Chosen strategy is simple_byte
  2759   00186A  5061               	movf	??_Interrupt_INTx_Clear_Flag^0,w,c
  2760   00186C  0A00               	xorlw	0	; case 0
  2761   00186E  B4D8               	btfsc	status,2,c
  2762   001870  EF1D  F00C         	goto	l597
  2763   001874  0A01               	xorlw	1	; case 1
  2764   001876  B4D8               	btfsc	status,2,c
  2765   001878  EF20  F00C         	goto	l599
  2766   00187C  0A03               	xorlw	3	; case 2
  2767   00187E  B4D8               	btfsc	status,2,c
  2768   001880  EF23  F00C         	goto	l600
  2769   001884  EF19  F00C         	goto	l2993
  2770   001888                     l2999:
  2771                           
  2772                           ;MCAL_Layer/Interrupt/mcal_external_interrupt.c: 357:     return ret;
  2773   001888  5063               	movf	Interrupt_INTx_Clear_Flag@ret^0,w,c
  2774   00188A  0012               	return		;funcret
  2775   00188C                     __end_of_Interrupt_INTx_Clear_Flag:
  2776                           	callstack 0
  2777                           
  2778 ;; *************** function _InterruptMangaer *****************
  2779 ;; Defined at:
  2780 ;;		line 38 in file "MCAL_Layer/Interrupt/mcal_interrupt_manager.c"
  2781 ;; Parameters:    Size  Location     Type
  2782 ;;		None
  2783 ;; Auto vars:     Size  Location     Type
  2784 ;;		None
  2785 ;; Return value:  Size  Location     Type
  2786 ;;                  1    wreg      void 
  2787 ;; Registers used:
  2788 ;;		wreg, status,2, status,0, pcl, pclath, pclatu, tosl, cstack
  2789 ;; Tracked objects:
  2790 ;;		On entry : 0/0
  2791 ;;		On exit  : 0/0
  2792 ;;		Unchanged: 0/0
  2793 ;; Data sizes:     COMRAM   BANK0   BANK1   BANK2   BANK3   BANK4   BANK5   BANK6   BANK7   BANK8   BANK9  BANK10  BANK1
      +1  BANK12  BANK13  BANK14  BANK15
  2794 ;;      Params:         0       0       0       0       0       0       0       0       0       0       0       0       
      +0       0       0       0       0
  2795 ;;      Locals:         0       0       0       0       0       0       0       0       0       0       0       0       
      +0       0       0       0       0
  2796 ;;      Temps:          2       0       0       0       0       0       0       0       0       0       0       0       
      +0       0       0       0       0
  2797 ;;      Totals:         2       0       0       0       0       0       0       0       0       0       0       0       
      +0       0       0       0       0
  2798 ;;Total ram usage:        2 bytes
  2799 ;; Hardware stack levels used: 1
  2800 ;; Hardware stack levels required when called: 3
  2801 ;; This function calls:
  2802 ;;		_INT0_ISR
  2803 ;;		_INT1_ISR
  2804 ;;		_INT2_ISR
  2805 ;;		_RB4_ISR
  2806 ;;		_RB5_ISR
  2807 ;;		_RB6_ISR
  2808 ;;		_RB7_ISR
  2809 ;; This function is called by:
  2810 ;;		Interrupt level 2
  2811 ;; This function uses a non-reentrant model
  2812 ;;
  2813                           
  2814                           	psect	intcode
  2815   000008                     __pintcode:
  2816                           	callstack 0
  2817   000008                     _InterruptMangaer:
  2818                           	callstack 22
  2819                           
  2820                           ;incstack = 0
  2821   000008  8270               	bsf	int$flags,1,c	;set compiler interrupt flag (level 2)
  2822   00000A  ED20  F008         	call	int_func,f	;refresh shadow registers
  2823                           
  2824                           	psect	intcode_body
  2825   001040                     __pintcode_body:
  2826                           	callstack 22
  2827   001040                     int_func:
  2828                           	callstack 22
  2829   001040  0006               	pop		; remove dummy address from shadow register refresh
  2830   001042  CFFA F05E          	movff	pclath,??_InterruptMangaer
  2831   001046  CFFB F05F          	movff	pclatu,??_InterruptMangaer+1
  2832   00104A                     
  2833                           ;MCAL_Layer/Interrupt/mcal_interrupt_manager.c: 39:     if((INTCONbits.INT0IE == 1) && (
      +                          INTCONbits.INT0IF == 1)){
  2834   00104A  A8F2               	btfss	242,4,c	;volatile
  2835   00104C  EF2A  F008         	goto	i2u256_41
  2836   001050  EF2C  F008         	goto	i2u256_40
  2837   001054                     i2u256_41:
  2838   001054  EF35  F008         	goto	i2l684
  2839   001058                     i2u256_40:
  2840   001058  A2F2               	btfss	242,1,c	;volatile
  2841   00105A  EF31  F008         	goto	i2u257_41
  2842   00105E  EF33  F008         	goto	i2u257_40
  2843   001062                     i2u257_41:
  2844   001062  EF35  F008         	goto	i2l684
  2845   001066                     i2u257_40:
  2846   001066                     
  2847                           ;MCAL_Layer/Interrupt/mcal_interrupt_manager.c: 40:         INT0_ISR();
  2848   001066  ECAF  F00D         	call	_INT0_ISR	;wreg free
  2849   00106A                     i2l684:
  2850                           
  2851                           ;MCAL_Layer/Interrupt/mcal_interrupt_manager.c: 45:     if((1 == INTCON3bits.INT1E) && (
      +                          1 == INTCON3bits.INT1F)){
  2852   00106A  A6F0               	btfss	240,3,c	;volatile
  2853   00106C  EF3A  F008         	goto	i2u258_41
  2854   001070  EF3C  F008         	goto	i2u258_40
  2855   001074                     i2u258_41:
  2856   001074  EF45  F008         	goto	i2l686
  2857   001078                     i2u258_40:
  2858   001078  A0F0               	btfss	240,0,c	;volatile
  2859   00107A  EF41  F008         	goto	i2u259_41
  2860   00107E  EF43  F008         	goto	i2u259_40
  2861   001082                     i2u259_41:
  2862   001082  EF45  F008         	goto	i2l686
  2863   001086                     i2u259_40:
  2864   001086                     
  2865                           ;MCAL_Layer/Interrupt/mcal_interrupt_manager.c: 46:         INT1_ISR();
  2866   001086  EC98  F00D         	call	_INT1_ISR	;wreg free
  2867   00108A                     i2l686:
  2868                           
  2869                           ;MCAL_Layer/Interrupt/mcal_interrupt_manager.c: 49:     if((1 == INTCON3bits.INT2IE) && 
      +                          (1 == INTCON3bits.INT2IF)){
  2870   00108A  A8F0               	btfss	240,4,c	;volatile
  2871   00108C  EF4A  F008         	goto	i2u260_41
  2872   001090  EF4C  F008         	goto	i2u260_40
  2873   001094                     i2u260_41:
  2874   001094  EF55  F008         	goto	i2l688
  2875   001098                     i2u260_40:
  2876   001098  A2F0               	btfss	240,1,c	;volatile
  2877   00109A  EF51  F008         	goto	i2u261_41
  2878   00109E  EF53  F008         	goto	i2u261_40
  2879   0010A2                     i2u261_41:
  2880   0010A2  EF55  F008         	goto	i2l688
  2881   0010A6                     i2u261_40:
  2882   0010A6                     
  2883                           ;MCAL_Layer/Interrupt/mcal_interrupt_manager.c: 50:         INT2_ISR();
  2884   0010A6  EC81  F00D         	call	_INT2_ISR	;wreg free
  2885   0010AA                     i2l688:
  2886                           
  2887                           ;MCAL_Layer/Interrupt/mcal_interrupt_manager.c: 53:     if((INTCONbits.RBIE == 1) && (IN
      +                          TCONbits.RBIF == 1) && (PORTBbits.RB4 == GPIO_HIGH) && (RB4_F == 1)){
  2888   0010AA  A6F2               	btfss	242,3,c	;volatile
  2889   0010AC  EF5A  F008         	goto	i2u262_41
  2890   0010B0  EF5C  F008         	goto	i2u262_40
  2891   0010B4                     i2u262_41:
  2892   0010B4  EF77  F008         	goto	i2l690
  2893   0010B8                     i2u262_40:
  2894   0010B8  A0F2               	btfss	242,0,c	;volatile
  2895   0010BA  EF61  F008         	goto	i2u263_41
  2896   0010BE  EF63  F008         	goto	i2u263_40
  2897   0010C2                     i2u263_41:
  2898   0010C2  EF77  F008         	goto	i2l690
  2899   0010C6                     i2u263_40:
  2900   0010C6  A881               	btfss	129,4,c	;volatile
  2901   0010C8  EF68  F008         	goto	i2u264_41
  2902   0010CC  EF6A  F008         	goto	i2u264_40
  2903   0010D0                     i2u264_41:
  2904   0010D0  EF77  F008         	goto	i2l690
  2905   0010D4                     i2u264_40:
  2906   0010D4  0432               	decf	_RB4_F^0,w,c	;volatile
  2907   0010D6  A4D8               	btfss	status,2,c
  2908   0010D8  EF70  F008         	goto	i2u265_41
  2909   0010DC  EF72  F008         	goto	i2u265_40
  2910   0010E0                     i2u265_41:
  2911   0010E0  EF77  F008         	goto	i2l690
  2912   0010E4                     i2u265_40:
  2913   0010E4                     
  2914                           ;MCAL_Layer/Interrupt/mcal_interrupt_manager.c: 54:         RB4_F = 0;
  2915   0010E4  0E00               	movlw	0
  2916   0010E6  6E32               	movwf	_RB4_F^0,c	;volatile
  2917   0010E8                     
  2918                           ;MCAL_Layer/Interrupt/mcal_interrupt_manager.c: 55:         RB4_ISR(0);
  2919   0010E8  0E00               	movlw	0
  2920   0010EA  EC30  F00E         	call	_RB4_ISR
  2921   0010EE                     i2l690:
  2922                           
  2923                           ;MCAL_Layer/Interrupt/mcal_interrupt_manager.c: 58:     if((INTCONbits.RBIE == 1) && (IN
      +                          TCONbits.RBIF == 1) && (PORTBbits.RB4 == GPIO_LOW) && (RB4_F == 0)){
  2924   0010EE  A6F2               	btfss	242,3,c	;volatile
  2925   0010F0  EF7C  F008         	goto	i2u266_41
  2926   0010F4  EF7E  F008         	goto	i2u266_40
  2927   0010F8                     i2u266_41:
  2928   0010F8  EF99  F008         	goto	i2l692
  2929   0010FC                     i2u266_40:
  2930   0010FC  A0F2               	btfss	242,0,c	;volatile
  2931   0010FE  EF83  F008         	goto	i2u267_41
  2932   001102  EF85  F008         	goto	i2u267_40
  2933   001106                     i2u267_41:
  2934   001106  EF99  F008         	goto	i2l692
  2935   00110A                     i2u267_40:
  2936   00110A  B881               	btfsc	129,4,c	;volatile
  2937   00110C  EF8A  F008         	goto	i2u268_41
  2938   001110  EF8C  F008         	goto	i2u268_40
  2939   001114                     i2u268_41:
  2940   001114  EF99  F008         	goto	i2l692
  2941   001118                     i2u268_40:
  2942   001118  5032               	movf	_RB4_F^0,w,c	;volatile
  2943   00111A  A4D8               	btfss	status,2,c
  2944   00111C  EF92  F008         	goto	i2u269_41
  2945   001120  EF94  F008         	goto	i2u269_40
  2946   001124                     i2u269_41:
  2947   001124  EF99  F008         	goto	i2l692
  2948   001128                     i2u269_40:
  2949   001128                     
  2950                           ;MCAL_Layer/Interrupt/mcal_interrupt_manager.c: 59:         RB4_F = 1;
  2951   001128  0E01               	movlw	1
  2952   00112A  6E32               	movwf	_RB4_F^0,c	;volatile
  2953   00112C                     
  2954                           ;MCAL_Layer/Interrupt/mcal_interrupt_manager.c: 60:         RB4_ISR(1);
  2955   00112C  0E01               	movlw	1
  2956   00112E  EC30  F00E         	call	_RB4_ISR
  2957   001132                     i2l692:
  2958                           
  2959                           ;MCAL_Layer/Interrupt/mcal_interrupt_manager.c: 63:     if((INTCONbits.RBIE == 1) && (IN
      +                          TCONbits.RBIF == 1) && (PORTBbits.RB5 == GPIO_HIGH) && (RB5_F == 1)){
  2960   001132  A6F2               	btfss	242,3,c	;volatile
  2961   001134  EF9E  F008         	goto	i2u270_41
  2962   001138  EFA0  F008         	goto	i2u270_40
  2963   00113C                     i2u270_41:
  2964   00113C  EFBB  F008         	goto	i2l694
  2965   001140                     i2u270_40:
  2966   001140  A0F2               	btfss	242,0,c	;volatile
  2967   001142  EFA5  F008         	goto	i2u271_41
  2968   001146  EFA7  F008         	goto	i2u271_40
  2969   00114A                     i2u271_41:
  2970   00114A  EFBB  F008         	goto	i2l694
  2971   00114E                     i2u271_40:
  2972   00114E  AA81               	btfss	129,5,c	;volatile
  2973   001150  EFAC  F008         	goto	i2u272_41
  2974   001154  EFAE  F008         	goto	i2u272_40
  2975   001158                     i2u272_41:
  2976   001158  EFBB  F008         	goto	i2l694
  2977   00115C                     i2u272_40:
  2978   00115C  0431               	decf	_RB5_F^0,w,c	;volatile
  2979   00115E  A4D8               	btfss	status,2,c
  2980   001160  EFB4  F008         	goto	i2u273_41
  2981   001164  EFB6  F008         	goto	i2u273_40
  2982   001168                     i2u273_41:
  2983   001168  EFBB  F008         	goto	i2l694
  2984   00116C                     i2u273_40:
  2985   00116C                     
  2986                           ;MCAL_Layer/Interrupt/mcal_interrupt_manager.c: 64:         RB5_F = 0;
  2987   00116C  0E00               	movlw	0
  2988   00116E  6E31               	movwf	_RB5_F^0,c	;volatile
  2989   001170                     
  2990                           ;MCAL_Layer/Interrupt/mcal_interrupt_manager.c: 65:         RB5_ISR(0);
  2991   001170  0E00               	movlw	0
  2992   001172  EC65  F00E         	call	_RB5_ISR
  2993   001176                     i2l694:
  2994                           
  2995                           ;MCAL_Layer/Interrupt/mcal_interrupt_manager.c: 68:     if((INTCONbits.RBIE == 1) && (IN
      +                          TCONbits.RBIF == 1) && (PORTBbits.RB5 == GPIO_LOW) && (RB5_F == 0)){
  2996   001176  A6F2               	btfss	242,3,c	;volatile
  2997   001178  EFC0  F008         	goto	i2u274_41
  2998   00117C  EFC2  F008         	goto	i2u274_40
  2999   001180                     i2u274_41:
  3000   001180  EFDD  F008         	goto	i2l696
  3001   001184                     i2u274_40:
  3002   001184  A0F2               	btfss	242,0,c	;volatile
  3003   001186  EFC7  F008         	goto	i2u275_41
  3004   00118A  EFC9  F008         	goto	i2u275_40
  3005   00118E                     i2u275_41:
  3006   00118E  EFDD  F008         	goto	i2l696
  3007   001192                     i2u275_40:
  3008   001192  BA81               	btfsc	129,5,c	;volatile
  3009   001194  EFCE  F008         	goto	i2u276_41
  3010   001198  EFD0  F008         	goto	i2u276_40
  3011   00119C                     i2u276_41:
  3012   00119C  EFDD  F008         	goto	i2l696
  3013   0011A0                     i2u276_40:
  3014   0011A0  5031               	movf	_RB5_F^0,w,c	;volatile
  3015   0011A2  A4D8               	btfss	status,2,c
  3016   0011A4  EFD6  F008         	goto	i2u277_41
  3017   0011A8  EFD8  F008         	goto	i2u277_40
  3018   0011AC                     i2u277_41:
  3019   0011AC  EFDD  F008         	goto	i2l696
  3020   0011B0                     i2u277_40:
  3021   0011B0                     
  3022                           ;MCAL_Layer/Interrupt/mcal_interrupt_manager.c: 69:         RB5_F = 1;
  3023   0011B0  0E01               	movlw	1
  3024   0011B2  6E31               	movwf	_RB5_F^0,c	;volatile
  3025   0011B4                     
  3026                           ;MCAL_Layer/Interrupt/mcal_interrupt_manager.c: 70:         RB5_ISR(1);
  3027   0011B4  0E01               	movlw	1
  3028   0011B6  EC65  F00E         	call	_RB5_ISR
  3029   0011BA                     i2l696:
  3030                           
  3031                           ;MCAL_Layer/Interrupt/mcal_interrupt_manager.c: 73:     if((INTCONbits.RBIE == 1) && (IN
      +                          TCONbits.RBIF == 1) && (PORTBbits.RB6 == GPIO_HIGH) && (RB6_F == 1)){
  3032   0011BA  A6F2               	btfss	242,3,c	;volatile
  3033   0011BC  EFE2  F008         	goto	i2u278_41
  3034   0011C0  EFE4  F008         	goto	i2u278_40
  3035   0011C4                     i2u278_41:
  3036   0011C4  EFFF  F008         	goto	i2l698
  3037   0011C8                     i2u278_40:
  3038   0011C8  A0F2               	btfss	242,0,c	;volatile
  3039   0011CA  EFE9  F008         	goto	i2u279_41
  3040   0011CE  EFEB  F008         	goto	i2u279_40
  3041   0011D2                     i2u279_41:
  3042   0011D2  EFFF  F008         	goto	i2l698
  3043   0011D6                     i2u279_40:
  3044   0011D6  AC81               	btfss	129,6,c	;volatile
  3045   0011D8  EFF0  F008         	goto	i2u280_41
  3046   0011DC  EFF2  F008         	goto	i2u280_40
  3047   0011E0                     i2u280_41:
  3048   0011E0  EFFF  F008         	goto	i2l698
  3049   0011E4                     i2u280_40:
  3050   0011E4  0430               	decf	_RB6_F^0,w,c	;volatile
  3051   0011E6  A4D8               	btfss	status,2,c
  3052   0011E8  EFF8  F008         	goto	i2u281_41
  3053   0011EC  EFFA  F008         	goto	i2u281_40
  3054   0011F0                     i2u281_41:
  3055   0011F0  EFFF  F008         	goto	i2l698
  3056   0011F4                     i2u281_40:
  3057   0011F4                     
  3058                           ;MCAL_Layer/Interrupt/mcal_interrupt_manager.c: 74:         RB6_F = 0;
  3059   0011F4  0E00               	movlw	0
  3060   0011F6  6E30               	movwf	_RB6_F^0,c	;volatile
  3061   0011F8                     
  3062                           ;MCAL_Layer/Interrupt/mcal_interrupt_manager.c: 75:         RB6_ISR(0);
  3063   0011F8  0E00               	movlw	0
  3064   0011FA  EC58  F00E         	call	_RB6_ISR
  3065   0011FE                     i2l698:
  3066                           
  3067                           ;MCAL_Layer/Interrupt/mcal_interrupt_manager.c: 78:     if((INTCONbits.RBIE == 1) && (IN
      +                          TCONbits.RBIF == 1) && (PORTBbits.RB6 == GPIO_LOW) && (RB6_F == 0)){
  3068   0011FE  A6F2               	btfss	242,3,c	;volatile
  3069   001200  EF04  F009         	goto	i2u282_41
  3070   001204  EF06  F009         	goto	i2u282_40
  3071   001208                     i2u282_41:
  3072   001208  EF21  F009         	goto	i2l700
  3073   00120C                     i2u282_40:
  3074   00120C  A0F2               	btfss	242,0,c	;volatile
  3075   00120E  EF0B  F009         	goto	i2u283_41
  3076   001212  EF0D  F009         	goto	i2u283_40
  3077   001216                     i2u283_41:
  3078   001216  EF21  F009         	goto	i2l700
  3079   00121A                     i2u283_40:
  3080   00121A  BC81               	btfsc	129,6,c	;volatile
  3081   00121C  EF12  F009         	goto	i2u284_41
  3082   001220  EF14  F009         	goto	i2u284_40
  3083   001224                     i2u284_41:
  3084   001224  EF21  F009         	goto	i2l700
  3085   001228                     i2u284_40:
  3086   001228  5030               	movf	_RB6_F^0,w,c	;volatile
  3087   00122A  A4D8               	btfss	status,2,c
  3088   00122C  EF1A  F009         	goto	i2u285_41
  3089   001230  EF1C  F009         	goto	i2u285_40
  3090   001234                     i2u285_41:
  3091   001234  EF21  F009         	goto	i2l700
  3092   001238                     i2u285_40:
  3093   001238                     
  3094                           ;MCAL_Layer/Interrupt/mcal_interrupt_manager.c: 79:         RB6_F = 1;
  3095   001238  0E01               	movlw	1
  3096   00123A  6E30               	movwf	_RB6_F^0,c	;volatile
  3097   00123C                     
  3098                           ;MCAL_Layer/Interrupt/mcal_interrupt_manager.c: 80:         RB4_ISR(1);
  3099   00123C  0E01               	movlw	1
  3100   00123E  EC30  F00E         	call	_RB4_ISR
  3101   001242                     i2l700:
  3102                           
  3103                           ;MCAL_Layer/Interrupt/mcal_interrupt_manager.c: 83:     if((INTCONbits.RBIE == 1) && (IN
      +                          TCONbits.RBIF == 1) && (PORTBbits.RB7 == GPIO_HIGH) && (RB7_F == 1)){
  3104   001242  A6F2               	btfss	242,3,c	;volatile
  3105   001244  EF26  F009         	goto	i2u286_41
  3106   001248  EF28  F009         	goto	i2u286_40
  3107   00124C                     i2u286_41:
  3108   00124C  EF43  F009         	goto	i2l702
  3109   001250                     i2u286_40:
  3110   001250  A0F2               	btfss	242,0,c	;volatile
  3111   001252  EF2D  F009         	goto	i2u287_41
  3112   001256  EF2F  F009         	goto	i2u287_40
  3113   00125A                     i2u287_41:
  3114   00125A  EF43  F009         	goto	i2l702
  3115   00125E                     i2u287_40:
  3116   00125E  AE81               	btfss	129,7,c	;volatile
  3117   001260  EF34  F009         	goto	i2u288_41
  3118   001264  EF36  F009         	goto	i2u288_40
  3119   001268                     i2u288_41:
  3120   001268  EF43  F009         	goto	i2l702
  3121   00126C                     i2u288_40:
  3122   00126C  042F               	decf	_RB7_F^0,w,c	;volatile
  3123   00126E  A4D8               	btfss	status,2,c
  3124   001270  EF3C  F009         	goto	i2u289_41
  3125   001274  EF3E  F009         	goto	i2u289_40
  3126   001278                     i2u289_41:
  3127   001278  EF43  F009         	goto	i2l702
  3128   00127C                     i2u289_40:
  3129   00127C                     
  3130                           ;MCAL_Layer/Interrupt/mcal_interrupt_manager.c: 84:         RB7_F = 0;
  3131   00127C  0E00               	movlw	0
  3132   00127E  6E2F               	movwf	_RB7_F^0,c	;volatile
  3133   001280                     
  3134                           ;MCAL_Layer/Interrupt/mcal_interrupt_manager.c: 85:         RB7_ISR(0);
  3135   001280  0E00               	movlw	0
  3136   001282  EC4B  F00E         	call	_RB7_ISR
  3137   001286                     i2l702:
  3138   001286  A6F2               	btfss	242,3,c	;volatile
  3139   001288  EF48  F009         	goto	i2u290_41
  3140   00128C  EF4A  F009         	goto	i2u290_40
  3141   001290                     i2u290_41:
  3142   001290  EF65  F009         	goto	i2l705
  3143   001294                     i2u290_40:
  3144   001294  A0F2               	btfss	242,0,c	;volatile
  3145   001296  EF4F  F009         	goto	i2u291_41
  3146   00129A  EF51  F009         	goto	i2u291_40
  3147   00129E                     i2u291_41:
  3148   00129E  EF65  F009         	goto	i2l705
  3149   0012A2                     i2u291_40:
  3150   0012A2  AE81               	btfss	129,7,c	;volatile
  3151   0012A4  EF56  F009         	goto	i2u292_41
  3152   0012A8  EF58  F009         	goto	i2u292_40
  3153   0012AC                     i2u292_41:
  3154   0012AC  EF65  F009         	goto	i2l705
  3155   0012B0                     i2u292_40:
  3156   0012B0  502F               	movf	_RB7_F^0,w,c	;volatile
  3157   0012B2  A4D8               	btfss	status,2,c
  3158   0012B4  EF5E  F009         	goto	i2u293_41
  3159   0012B8  EF60  F009         	goto	i2u293_40
  3160   0012BC                     i2u293_41:
  3161   0012BC  EF65  F009         	goto	i2l705
  3162   0012C0                     i2u293_40:
  3163   0012C0                     
  3164                           ;MCAL_Layer/Interrupt/mcal_interrupt_manager.c: 88:         RB7_F = 0;
  3165   0012C0  0E00               	movlw	0
  3166   0012C2  6E2F               	movwf	_RB7_F^0,c	;volatile
  3167   0012C4                     
  3168                           ;MCAL_Layer/Interrupt/mcal_interrupt_manager.c: 89:         RB7_ISR(1);
  3169   0012C4  0E01               	movlw	1
  3170   0012C6  EC4B  F00E         	call	_RB7_ISR
  3171   0012CA                     i2l705:
  3172   0012CA  C05F  FFFB         	movff	??_InterruptMangaer+1,pclatu
  3173   0012CE  C05E  FFFA         	movff	??_InterruptMangaer,pclath
  3174   0012D2  9270               	bcf	int$flags,1,c	;clear compiler interrupt flag (level 2)
  3175   0012D4  0011               	retfie		f
  3176   0012D6                     __end_of_InterruptMangaer:
  3177                           	callstack 0
  3178                           
  3179 ;; *************** function _RB7_ISR *****************
  3180 ;; Defined at:
  3181 ;;		line 170 in file "MCAL_Layer/Interrupt/mcal_external_interrupt.c"
  3182 ;; Parameters:    Size  Location     Type
  3183 ;;  n               1    wreg     unsigned char 
  3184 ;; Auto vars:     Size  Location     Type
  3185 ;;  n               1    0[COMRAM] unsigned char 
  3186 ;; Return value:  Size  Location     Type
  3187 ;;                  1    wreg      void 
  3188 ;; Registers used:
  3189 ;;		wreg, status,2
  3190 ;; Tracked objects:
  3191 ;;		On entry : 0/0
  3192 ;;		On exit  : 0/0
  3193 ;;		Unchanged: 0/0
  3194 ;; Data sizes:     COMRAM   BANK0   BANK1   BANK2   BANK3   BANK4   BANK5   BANK6   BANK7   BANK8   BANK9  BANK10  BANK1
      +1  BANK12  BANK13  BANK14  BANK15
  3195 ;;      Params:         0       0       0       0       0       0       0       0       0       0       0       0       
      +0       0       0       0       0
  3196 ;;      Locals:         1       0       0       0       0       0       0       0       0       0       0       0       
      +0       0       0       0       0
  3197 ;;      Temps:          0       0       0       0       0       0       0       0       0       0       0       0       
      +0       0       0       0       0
  3198 ;;      Totals:         1       0       0       0       0       0       0       0       0       0       0       0       
      +0       0       0       0       0
  3199 ;;Total ram usage:        1 bytes
  3200 ;; Hardware stack levels used: 1
  3201 ;; This function calls:
  3202 ;;		Nothing
  3203 ;; This function is called by:
  3204 ;;		_InterruptMangaer
  3205 ;; This function uses a non-reentrant model
  3206 ;;
  3207                           
  3208                           	psect	text22
  3209   001C96                     __ptext22:
  3210                           	callstack 0
  3211   001C96                     _RB7_ISR:
  3212                           	callstack 24
  3213                           
  3214                           ;incstack = 0
  3215                           ;RB7_ISR@n stored from wreg
  3216   001C96  6E5A               	movwf	RB7_ISR@n^0,c
  3217   001C98                     
  3218                           ;MCAL_Layer/Interrupt/mcal_external_interrupt.c: 172:     (INTCONbits.RBIF = 0);
  3219   001C98  90F2               	bcf	242,0,c	;volatile
  3220   001C9A                     
  3221                           ;MCAL_Layer/Interrupt/mcal_external_interrupt.c: 176:    if(!n){
  3222   001C9A  505A               	movf	RB7_ISR@n^0,w,c
  3223   001C9C  A4D8               	btfss	status,2,c
  3224   001C9E  EF53  F00E         	goto	i2u60_41
  3225   001CA2  EF55  F00E         	goto	i2u60_40
  3226   001CA6                     i2u60_41:
  3227   001CA6  EF57  F00E         	goto	i2l2003
  3228   001CAA                     i2u60_40:
  3229   001CAA  EF57  F00E         	goto	i2l547
  3230   001CAE                     i2l2003:
  3231   001CAE                     i2l547:
  3232   001CAE  0012               	return		;funcret
  3233   001CB0                     __end_of_RB7_ISR:
  3234                           	callstack 0
  3235                           
  3236 ;; *************** function _RB6_ISR *****************
  3237 ;; Defined at:
  3238 ;;		line 145 in file "MCAL_Layer/Interrupt/mcal_external_interrupt.c"
  3239 ;; Parameters:    Size  Location     Type
  3240 ;;  n               1    wreg     unsigned char 
  3241 ;; Auto vars:     Size  Location     Type
  3242 ;;  n               1    0[COMRAM] unsigned char 
  3243 ;; Return value:  Size  Location     Type
  3244 ;;                  1    wreg      void 
  3245 ;; Registers used:
  3246 ;;		wreg, status,2
  3247 ;; Tracked objects:
  3248 ;;		On entry : 0/0
  3249 ;;		On exit  : 0/0
  3250 ;;		Unchanged: 0/0
  3251 ;; Data sizes:     COMRAM   BANK0   BANK1   BANK2   BANK3   BANK4   BANK5   BANK6   BANK7   BANK8   BANK9  BANK10  BANK1
      +1  BANK12  BANK13  BANK14  BANK15
  3252 ;;      Params:         0       0       0       0       0       0       0       0       0       0       0       0       
      +0       0       0       0       0
  3253 ;;      Locals:         1       0       0       0       0       0       0       0       0       0       0       0       
      +0       0       0       0       0
  3254 ;;      Temps:          0       0       0       0       0       0       0       0       0       0       0       0       
      +0       0       0       0       0
  3255 ;;      Totals:         1       0       0       0       0       0       0       0       0       0       0       0       
      +0       0       0       0       0
  3256 ;;Total ram usage:        1 bytes
  3257 ;; Hardware stack levels used: 1
  3258 ;; This function calls:
  3259 ;;		Nothing
  3260 ;; This function is called by:
  3261 ;;		_InterruptMangaer
  3262 ;; This function uses a non-reentrant model
  3263 ;;
  3264                           
  3265                           	psect	text23
  3266   001CB0                     __ptext23:
  3267                           	callstack 0
  3268   001CB0                     _RB6_ISR:
  3269                           	callstack 24
  3270                           
  3271                           ;incstack = 0
  3272                           ;RB6_ISR@n stored from wreg
  3273   001CB0  6E5A               	movwf	RB6_ISR@n^0,c
  3274   001CB2                     
  3275                           ;MCAL_Layer/Interrupt/mcal_external_interrupt.c: 147:     (INTCONbits.RBIF = 0);
  3276   001CB2  90F2               	bcf	242,0,c	;volatile
  3277   001CB4                     
  3278                           ;MCAL_Layer/Interrupt/mcal_external_interrupt.c: 151:     if(!n){
  3279   001CB4  505A               	movf	RB6_ISR@n^0,w,c
  3280   001CB6  A4D8               	btfss	status,2,c
  3281   001CB8  EF60  F00E         	goto	i2u59_41
  3282   001CBC  EF62  F00E         	goto	i2u59_40
  3283   001CC0                     i2u59_41:
  3284   001CC0  EF64  F00E         	goto	i2l1989
  3285   001CC4                     i2u59_40:
  3286   001CC4  EF64  F00E         	goto	i2l536
  3287   001CC8                     i2l1989:
  3288   001CC8                     i2l536:
  3289   001CC8  0012               	return		;funcret
  3290   001CCA                     __end_of_RB6_ISR:
  3291                           	callstack 0
  3292                           
  3293 ;; *************** function _RB5_ISR *****************
  3294 ;; Defined at:
  3295 ;;		line 121 in file "MCAL_Layer/Interrupt/mcal_external_interrupt.c"
  3296 ;; Parameters:    Size  Location     Type
  3297 ;;  n               1    wreg     unsigned char 
  3298 ;; Auto vars:     Size  Location     Type
  3299 ;;  n               1    0[COMRAM] unsigned char 
  3300 ;; Return value:  Size  Location     Type
  3301 ;;                  1    wreg      void 
  3302 ;; Registers used:
  3303 ;;		wreg, status,2
  3304 ;; Tracked objects:
  3305 ;;		On entry : 0/0
  3306 ;;		On exit  : 0/0
  3307 ;;		Unchanged: 0/0
  3308 ;; Data sizes:     COMRAM   BANK0   BANK1   BANK2   BANK3   BANK4   BANK5   BANK6   BANK7   BANK8   BANK9  BANK10  BANK1
      +1  BANK12  BANK13  BANK14  BANK15
  3309 ;;      Params:         0       0       0       0       0       0       0       0       0       0       0       0       
      +0       0       0       0       0
  3310 ;;      Locals:         1       0       0       0       0       0       0       0       0       0       0       0       
      +0       0       0       0       0
  3311 ;;      Temps:          0       0       0       0       0       0       0       0       0       0       0       0       
      +0       0       0       0       0
  3312 ;;      Totals:         1       0       0       0       0       0       0       0       0       0       0       0       
      +0       0       0       0       0
  3313 ;;Total ram usage:        1 bytes
  3314 ;; Hardware stack levels used: 1
  3315 ;; This function calls:
  3316 ;;		Nothing
  3317 ;; This function is called by:
  3318 ;;		_InterruptMangaer
  3319 ;; This function uses a non-reentrant model
  3320 ;;
  3321                           
  3322                           	psect	text24
  3323   001CCA                     __ptext24:
  3324                           	callstack 0
  3325   001CCA                     _RB5_ISR:
  3326                           	callstack 24
  3327                           
  3328                           ;incstack = 0
  3329                           ;RB5_ISR@n stored from wreg
  3330   001CCA  6E5A               	movwf	RB5_ISR@n^0,c
  3331   001CCC                     
  3332                           ;MCAL_Layer/Interrupt/mcal_external_interrupt.c: 123:     (INTCONbits.RBIF = 0);
  3333   001CCC  90F2               	bcf	242,0,c	;volatile
  3334   001CCE                     
  3335                           ;MCAL_Layer/Interrupt/mcal_external_interrupt.c: 127:     if(!n){
  3336   001CCE  505A               	movf	RB5_ISR@n^0,w,c
  3337   001CD0  A4D8               	btfss	status,2,c
  3338   001CD2  EF6D  F00E         	goto	i2u58_41
  3339   001CD6  EF6F  F00E         	goto	i2u58_40
  3340   001CDA                     i2u58_41:
  3341   001CDA  EF71  F00E         	goto	i2l1975
  3342   001CDE                     i2u58_40:
  3343   001CDE  EF71  F00E         	goto	i2l525
  3344   001CE2                     i2l1975:
  3345   001CE2                     i2l525:
  3346   001CE2  0012               	return		;funcret
  3347   001CE4                     __end_of_RB5_ISR:
  3348                           	callstack 0
  3349                           
  3350 ;; *************** function _RB4_ISR *****************
  3351 ;; Defined at:
  3352 ;;		line 95 in file "MCAL_Layer/Interrupt/mcal_external_interrupt.c"
  3353 ;; Parameters:    Size  Location     Type
  3354 ;;  n               1    wreg     unsigned char 
  3355 ;; Auto vars:     Size  Location     Type
  3356 ;;  n               1    0[COMRAM] unsigned char 
  3357 ;; Return value:  Size  Location     Type
  3358 ;;                  1    wreg      void 
  3359 ;; Registers used:
  3360 ;;		wreg, status,2
  3361 ;; Tracked objects:
  3362 ;;		On entry : 0/0
  3363 ;;		On exit  : 0/0
  3364 ;;		Unchanged: 0/0
  3365 ;; Data sizes:     COMRAM   BANK0   BANK1   BANK2   BANK3   BANK4   BANK5   BANK6   BANK7   BANK8   BANK9  BANK10  BANK1
      +1  BANK12  BANK13  BANK14  BANK15
  3366 ;;      Params:         0       0       0       0       0       0       0       0       0       0       0       0       
      +0       0       0       0       0
  3367 ;;      Locals:         1       0       0       0       0       0       0       0       0       0       0       0       
      +0       0       0       0       0
  3368 ;;      Temps:          0       0       0       0       0       0       0       0       0       0       0       0       
      +0       0       0       0       0
  3369 ;;      Totals:         1       0       0       0       0       0       0       0       0       0       0       0       
      +0       0       0       0       0
  3370 ;;Total ram usage:        1 bytes
  3371 ;; Hardware stack levels used: 1
  3372 ;; This function calls:
  3373 ;;		Nothing
  3374 ;; This function is called by:
  3375 ;;		_InterruptMangaer
  3376 ;; This function uses a non-reentrant model
  3377 ;;
  3378                           
  3379                           	psect	text25
  3380   001C60                     __ptext25:
  3381                           	callstack 0
  3382   001C60                     _RB4_ISR:
  3383                           	callstack 24
  3384                           
  3385                           ;incstack = 0
  3386                           ;RB4_ISR@n stored from wreg
  3387   001C60  6E5A               	movwf	RB4_ISR@n^0,c
  3388   001C62                     
  3389                           ;MCAL_Layer/Interrupt/mcal_external_interrupt.c: 97:     (INTCONbits.RBIF = 0);
  3390   001C62  90F2               	bcf	242,0,c	;volatile
  3391   001C64                     
  3392                           ;MCAL_Layer/Interrupt/mcal_external_interrupt.c: 101:     if(!n){
  3393   001C64  505A               	movf	RB4_ISR@n^0,w,c
  3394   001C66  A4D8               	btfss	status,2,c
  3395   001C68  EF38  F00E         	goto	i2u57_41
  3396   001C6C  EF3A  F00E         	goto	i2u57_40
  3397   001C70                     i2u57_41:
  3398   001C70  EF3C  F00E         	goto	i2l1961
  3399   001C74                     i2u57_40:
  3400   001C74  EF3C  F00E         	goto	i2l509
  3401   001C78                     i2l1961:
  3402   001C78                     i2l509:
  3403                           
  3404                           ;MCAL_Layer/Interrupt/mcal_external_interrupt.c: 118:         (INTCONbits.RBIF = 0);
  3405   001C78  90F2               	bcf	242,0,c	;volatile
  3406   001C7A  0012               	return		;funcret
  3407   001C7C                     __end_of_RB4_ISR:
  3408                           	callstack 0
  3409                           
  3410 ;; *************** function _INT2_ISR *****************
  3411 ;; Defined at:
  3412 ;;		line 81 in file "MCAL_Layer/Interrupt/mcal_external_interrupt.c"
  3413 ;; Parameters:    Size  Location     Type
  3414 ;;		None
  3415 ;; Auto vars:     Size  Location     Type
  3416 ;;		None
  3417 ;; Return value:  Size  Location     Type
  3418 ;;                  1    wreg      void 
  3419 ;; Registers used:
  3420 ;;		wreg, status,2, status,0, pcl, pclath, pclatu, tosl, cstack
  3421 ;; Tracked objects:
  3422 ;;		On entry : 0/0
  3423 ;;		On exit  : 0/0
  3424 ;;		Unchanged: 0/0
  3425 ;; Data sizes:     COMRAM   BANK0   BANK1   BANK2   BANK3   BANK4   BANK5   BANK6   BANK7   BANK8   BANK9  BANK10  BANK1
      +1  BANK12  BANK13  BANK14  BANK15
  3426 ;;      Params:         0       0       0       0       0       0       0       0       0       0       0       0       
      +0       0       0       0       0
  3427 ;;      Locals:         0       0       0       0       0       0       0       0       0       0       0       0       
      +0       0       0       0       0
  3428 ;;      Temps:          0       0       0       0       0       0       0       0       0       0       0       0       
      +0       0       0       0       0
  3429 ;;      Totals:         0       0       0       0       0       0       0       0       0       0       0       0       
      +0       0       0       0       0
  3430 ;;Total ram usage:        0 bytes
  3431 ;; Hardware stack levels used: 1
  3432 ;; Hardware stack levels required when called: 2
  3433 ;; This function calls:
  3434 ;;		NULL
  3435 ;;		_isr
  3436 ;; This function is called by:
  3437 ;;		_InterruptMangaer
  3438 ;; This function uses a non-reentrant model
  3439 ;;
  3440                           
  3441                           	psect	text26
  3442   001B02                     __ptext26:
  3443                           	callstack 0
  3444   001B02                     _INT2_ISR:
  3445                           	callstack 22
  3446   001B02                     
  3447                           ;MCAL_Layer/Interrupt/mcal_external_interrupt.c: 83:     (INTCON3bits.INT2IF = 0);
  3448   001B02  92F0               	bcf	240,1,c	;volatile
  3449   001B04                     
  3450                           ;MCAL_Layer/Interrupt/mcal_external_interrupt.c: 87:     if(INT2_INTERRUPTHANDLER){
  3451   001B04  504C               	movf	_INT2_INTERRUPTHANDLER^0,w,c
  3452   001B06  104D               	iorwf	(_INT2_INTERRUPTHANDLER+1)^0,w,c
  3453   001B08  B4D8               	btfsc	status,2,c
  3454   001B0A  EF89  F00D         	goto	i2u214_41
  3455   001B0E  EF8B  F00D         	goto	i2u214_40
  3456   001B12                     i2u214_41:
  3457   001B12  EF97  F00D         	goto	i2l503
  3458   001B16                     i2u214_40:
  3459   001B16                     
  3460                           ;MCAL_Layer/Interrupt/mcal_external_interrupt.c: 88:         INT2_INTERRUPTHANDLER();
  3461   001B16  D802               	call	i2u215_48
  3462   001B18  EF97  F00D         	goto	i2u215_49
  3463   001B1C                     i2u215_48:
  3464   001B1C  0005               	push	
  3465   001B1E  6EFA               	movwf	pclath,c
  3466   001B20  504C               	movf	_INT2_INTERRUPTHANDLER^0,w,c
  3467   001B22  6EFD               	movwf	tosl,c
  3468   001B24  504D               	movf	(_INT2_INTERRUPTHANDLER+1)^0,w,c
  3469   001B26  6EFE               	movwf	tosh,c
  3470   001B28  6AFF               	clrf	tosu,c
  3471   001B2A  50FA               	movf	pclath,w,c
  3472   001B2C  0012               	return		;indir
  3473   001B2E                     i2u215_49:
  3474   001B2E                     i2l503:
  3475   001B2E  0012               	return		;funcret
  3476   001B30                     __end_of_INT2_ISR:
  3477                           	callstack 0
  3478                           
  3479 ;; *************** function _INT1_ISR *****************
  3480 ;; Defined at:
  3481 ;;		line 67 in file "MCAL_Layer/Interrupt/mcal_external_interrupt.c"
  3482 ;; Parameters:    Size  Location     Type
  3483 ;;		None
  3484 ;; Auto vars:     Size  Location     Type
  3485 ;;		None
  3486 ;; Return value:  Size  Location     Type
  3487 ;;                  1    wreg      void 
  3488 ;; Registers used:
  3489 ;;		wreg, status,2, status,0, pcl, pclath, pclatu, tosl, cstack
  3490 ;; Tracked objects:
  3491 ;;		On entry : 0/0
  3492 ;;		On exit  : 0/0
  3493 ;;		Unchanged: 0/0
  3494 ;; Data sizes:     COMRAM   BANK0   BANK1   BANK2   BANK3   BANK4   BANK5   BANK6   BANK7   BANK8   BANK9  BANK10  BANK1
      +1  BANK12  BANK13  BANK14  BANK15
  3495 ;;      Params:         0       0       0       0       0       0       0       0       0       0       0       0       
      +0       0       0       0       0
  3496 ;;      Locals:         0       0       0       0       0       0       0       0       0       0       0       0       
      +0       0       0       0       0
  3497 ;;      Temps:          0       0       0       0       0       0       0       0       0       0       0       0       
      +0       0       0       0       0
  3498 ;;      Totals:         0       0       0       0       0       0       0       0       0       0       0       0       
      +0       0       0       0       0
  3499 ;;Total ram usage:        0 bytes
  3500 ;; Hardware stack levels used: 1
  3501 ;; Hardware stack levels required when called: 2
  3502 ;; This function calls:
  3503 ;;		NULL
  3504 ;;		_isr
  3505 ;; This function is called by:
  3506 ;;		_InterruptMangaer
  3507 ;; This function uses a non-reentrant model
  3508 ;;
  3509                           
  3510                           	psect	text27
  3511   001B30                     __ptext27:
  3512                           	callstack 0
  3513   001B30                     _INT1_ISR:
  3514                           	callstack 22
  3515   001B30                     
  3516                           ;MCAL_Layer/Interrupt/mcal_external_interrupt.c: 69:     (INTCON3bits.INT1IF = 0);
  3517   001B30  90F0               	bcf	240,0,c	;volatile
  3518   001B32                     
  3519                           ;MCAL_Layer/Interrupt/mcal_external_interrupt.c: 73:     if(INT1_INTERRUPTHANDLER){
  3520   001B32  504E               	movf	_INT1_INTERRUPTHANDLER^0,w,c
  3521   001B34  104F               	iorwf	(_INT1_INTERRUPTHANDLER+1)^0,w,c
  3522   001B36  B4D8               	btfsc	status,2,c
  3523   001B38  EFA0  F00D         	goto	i2u212_41
  3524   001B3C  EFA2  F00D         	goto	i2u212_40
  3525   001B40                     i2u212_41:
  3526   001B40  EFAE  F00D         	goto	i2l498
  3527   001B44                     i2u212_40:
  3528   001B44                     
  3529                           ;MCAL_Layer/Interrupt/mcal_external_interrupt.c: 74:         INT1_INTERRUPTHANDLER();
  3530   001B44  D802               	call	i2u213_48
  3531   001B46  EFAE  F00D         	goto	i2u213_49
  3532   001B4A                     i2u213_48:
  3533   001B4A  0005               	push	
  3534   001B4C  6EFA               	movwf	pclath,c
  3535   001B4E  504E               	movf	_INT1_INTERRUPTHANDLER^0,w,c
  3536   001B50  6EFD               	movwf	tosl,c
  3537   001B52  504F               	movf	(_INT1_INTERRUPTHANDLER+1)^0,w,c
  3538   001B54  6EFE               	movwf	tosh,c
  3539   001B56  6AFF               	clrf	tosu,c
  3540   001B58  50FA               	movf	pclath,w,c
  3541   001B5A  0012               	return		;indir
  3542   001B5C                     i2u213_49:
  3543   001B5C                     i2l498:
  3544   001B5C  0012               	return		;funcret
  3545   001B5E                     __end_of_INT1_ISR:
  3546                           	callstack 0
  3547                           
  3548 ;; *************** function _INT0_ISR *****************
  3549 ;; Defined at:
  3550 ;;		line 53 in file "MCAL_Layer/Interrupt/mcal_external_interrupt.c"
  3551 ;; Parameters:    Size  Location     Type
  3552 ;;		None
  3553 ;; Auto vars:     Size  Location     Type
  3554 ;;		None
  3555 ;; Return value:  Size  Location     Type
  3556 ;;                  1    wreg      void 
  3557 ;; Registers used:
  3558 ;;		wreg, status,2, status,0, pcl, pclath, pclatu, tosl, cstack
  3559 ;; Tracked objects:
  3560 ;;		On entry : 0/0
  3561 ;;		On exit  : 0/0
  3562 ;;		Unchanged: 0/0
  3563 ;; Data sizes:     COMRAM   BANK0   BANK1   BANK2   BANK3   BANK4   BANK5   BANK6   BANK7   BANK8   BANK9  BANK10  BANK1
      +1  BANK12  BANK13  BANK14  BANK15
  3564 ;;      Params:         0       0       0       0       0       0       0       0       0       0       0       0       
      +0       0       0       0       0
  3565 ;;      Locals:         0       0       0       0       0       0       0       0       0       0       0       0       
      +0       0       0       0       0
  3566 ;;      Temps:          0       0       0       0       0       0       0       0       0       0       0       0       
      +0       0       0       0       0
  3567 ;;      Totals:         0       0       0       0       0       0       0       0       0       0       0       0       
      +0       0       0       0       0
  3568 ;;Total ram usage:        0 bytes
  3569 ;; Hardware stack levels used: 1
  3570 ;; Hardware stack levels required when called: 2
  3571 ;; This function calls:
  3572 ;;		NULL
  3573 ;;		_isr
  3574 ;; This function is called by:
  3575 ;;		_InterruptMangaer
  3576 ;; This function uses a non-reentrant model
  3577 ;;
  3578                           
  3579                           	psect	text28
  3580   001B5E                     __ptext28:
  3581                           	callstack 0
  3582   001B5E                     _INT0_ISR:
  3583                           	callstack 22
  3584   001B5E                     
  3585                           ;MCAL_Layer/Interrupt/mcal_external_interrupt.c: 55:     (INTCONbits.INT0IF = 0);
  3586   001B5E  92F2               	bcf	242,1,c	;volatile
  3587   001B60                     
  3588                           ;MCAL_Layer/Interrupt/mcal_external_interrupt.c: 59:     if(INT0_INTERRUPTHANDLER){
  3589   001B60  5050               	movf	_INT0_INTERRUPTHANDLER^0,w,c
  3590   001B62  1051               	iorwf	(_INT0_INTERRUPTHANDLER+1)^0,w,c
  3591   001B64  B4D8               	btfsc	status,2,c
  3592   001B66  EFB7  F00D         	goto	i2u210_41
  3593   001B6A  EFB9  F00D         	goto	i2u210_40
  3594   001B6E                     i2u210_41:
  3595   001B6E  EFC5  F00D         	goto	i2l493
  3596   001B72                     i2u210_40:
  3597   001B72                     
  3598                           ;MCAL_Layer/Interrupt/mcal_external_interrupt.c: 60:         INT0_INTERRUPTHANDLER();
  3599   001B72  D802               	call	i2u211_48
  3600   001B74  EFC5  F00D         	goto	i2u211_49
  3601   001B78                     i2u211_48:
  3602   001B78  0005               	push	
  3603   001B7A  6EFA               	movwf	pclath,c
  3604   001B7C  5050               	movf	_INT0_INTERRUPTHANDLER^0,w,c
  3605   001B7E  6EFD               	movwf	tosl,c
  3606   001B80  5051               	movf	(_INT0_INTERRUPTHANDLER+1)^0,w,c
  3607   001B82  6EFE               	movwf	tosh,c
  3608   001B84  6AFF               	clrf	tosu,c
  3609   001B86  50FA               	movf	pclath,w,c
  3610   001B88  0012               	return		;indir
  3611   001B8A                     i2u211_49:
  3612   001B8A                     i2l493:
  3613   001B8A  0012               	return		;funcret
  3614   001B8C                     __end_of_INT0_ISR:
  3615                           	callstack 0
  3616                           
  3617 ;; *************** function _isr *****************
  3618 ;; Defined at:
  3619 ;;		line 12 in file "application.c"
  3620 ;; Parameters:    Size  Location     Type
  3621 ;;		None
  3622 ;; Auto vars:     Size  Location     Type
  3623 ;;		None
  3624 ;; Return value:  Size  Location     Type
  3625 ;;                  1    wreg      void 
  3626 ;; Registers used:
  3627 ;;		wreg, status,2, status,0, cstack
  3628 ;; Tracked objects:
  3629 ;;		On entry : 0/0
  3630 ;;		On exit  : 0/0
  3631 ;;		Unchanged: 0/0
  3632 ;; Data sizes:     COMRAM   BANK0   BANK1   BANK2   BANK3   BANK4   BANK5   BANK6   BANK7   BANK8   BANK9  BANK10  BANK1
      +1  BANK12  BANK13  BANK14  BANK15
  3633 ;;      Params:         0       0       0       0       0       0       0       0       0       0       0       0       
      +0       0       0       0       0
  3634 ;;      Locals:         0       0       0       0       0       0       0       0       0       0       0       0       
      +0       0       0       0       0
  3635 ;;      Temps:          0       0       0       0       0       0       0       0       0       0       0       0       
      +0       0       0       0       0
  3636 ;;      Totals:         0       0       0       0       0       0       0       0       0       0       0       0       
      +0       0       0       0       0
  3637 ;;Total ram usage:        0 bytes
  3638 ;; Hardware stack levels used: 1
  3639 ;; Hardware stack levels required when called: 1
  3640 ;; This function calls:
  3641 ;;		_WRITE_DATA_EEPROM
  3642 ;; This function is called by:
  3643 ;;		_INT0_ISR
  3644 ;;		_INT1_ISR
  3645 ;;		_INT2_ISR
  3646 ;; This function uses a non-reentrant model
  3647 ;;
  3648                           
  3649                           	psect	text29
  3650   001B8C                     __ptext29:
  3651                           	callstack 0
  3652   001B8C                     _isr:
  3653                           	callstack 22
  3654   001B8C                     
  3655                           ;application.c: 13:     if(counter == 0){
  3656   001B8C  5059               	movf	_counter^0,w,c	;volatile
  3657   001B8E  A4D8               	btfss	status,2,c
  3658   001B90  EFCC  F00D         	goto	i2u194_41
  3659   001B94  EFCE  F00D         	goto	i2u194_40
  3660   001B98                     i2u194_41:
  3661   001B98  EFD1  F00D         	goto	i2l3087
  3662   001B9C                     i2u194_40:
  3663   001B9C                     
  3664                           ;application.c: 14:         counter++;
  3665   001B9C  2A59               	incf	_counter^0,f,c	;volatile
  3666                           
  3667                           ;application.c: 15:     }
  3668   001B9E  EFD3  F00D         	goto	i2l3089
  3669   001BA2                     i2l3087:
  3670                           
  3671                           ;application.c: 17:         counter = 0;
  3672   001BA2  0E00               	movlw	0
  3673   001BA4  6E59               	movwf	_counter^0,c	;volatile
  3674   001BA6                     i2l3089:
  3675                           
  3676                           ;application.c: 19:     WRITE_DATA_EEPROM(0x3FF,counter);
  3677   001BA6  0E03               	movlw	3
  3678   001BA8  6E5B               	movwf	(WRITE_DATA_EEPROM@add+1)^0,c
  3679   001BAA  685A               	setf	WRITE_DATA_EEPROM@add^0,c
  3680   001BAC  C059  F05C         	movff	_counter,WRITE_DATA_EEPROM@data	;volatile
  3681   001BB0  EC07  F00D         	call	_WRITE_DATA_EEPROM	;wreg free
  3682   001BB4  0012               	return		;funcret
  3683   001BB6                     __end_of_isr:
  3684                           	callstack 0
  3685                           
  3686 ;; *************** function _WRITE_DATA_EEPROM *****************
  3687 ;; Defined at:
  3688 ;;		line 8 in file "MCAL_Layer/EEPROM/hal_eeprom.c"
  3689 ;; Parameters:    Size  Location     Type
  3690 ;;  add             2    0[COMRAM] unsigned short 
  3691 ;;  data            1    2[COMRAM] unsigned char 
  3692 ;; Auto vars:     Size  Location     Type
  3693 ;;  status          1    3[COMRAM] unsigned char 
  3694 ;;  ret             1    0        unsigned char 
  3695 ;; Return value:  Size  Location     Type
  3696 ;;                  1    wreg      unsigned char 
  3697 ;; Registers used:
  3698 ;;		wreg, status,2, status,0
  3699 ;; Tracked objects:
  3700 ;;		On entry : 0/0
  3701 ;;		On exit  : 0/0
  3702 ;;		Unchanged: 0/0
  3703 ;; Data sizes:     COMRAM   BANK0   BANK1   BANK2   BANK3   BANK4   BANK5   BANK6   BANK7   BANK8   BANK9  BANK10  BANK1
      +1  BANK12  BANK13  BANK14  BANK15
  3704 ;;      Params:         3       0       0       0       0       0       0       0       0       0       0       0       
      +0       0       0       0       0
  3705 ;;      Locals:         1       0       0       0       0       0       0       0       0       0       0       0       
      +0       0       0       0       0
  3706 ;;      Temps:          0       0       0       0       0       0       0       0       0       0       0       0       
      +0       0       0       0       0
  3707 ;;      Totals:         4       0       0       0       0       0       0       0       0       0       0       0       
      +0       0       0       0       0
  3708 ;;Total ram usage:        4 bytes
  3709 ;; Hardware stack levels used: 1
  3710 ;; This function calls:
  3711 ;;		Nothing
  3712 ;; This function is called by:
  3713 ;;		_isr
  3714 ;; This function uses a non-reentrant model
  3715 ;;
  3716                           
  3717                           	psect	text30
  3718   001A0E                     __ptext30:
  3719                           	callstack 0
  3720   001A0E                     _WRITE_DATA_EEPROM:
  3721                           	callstack 22
  3722   001A0E                     
  3723                           ;MCAL_Layer/EEPROM/hal_eeprom.c: 10:     uint8 status = INTCONbits.GIEH;
  3724   001A0E  0E00               	movlw	0
  3725   001A10  BEF2               	btfsc	242,7,c	;volatile
  3726   001A12  0E01               	movlw	1
  3727   001A14  6E5D               	movwf	WRITE_DATA_EEPROM@status^0,c
  3728   001A16                     
  3729                           ;MCAL_Layer/EEPROM/hal_eeprom.c: 13:         EEADRH = (uint8)((add >> 8) & 0x03);
  3730   001A16  505B               	movf	(WRITE_DATA_EEPROM@add+1)^0,w,c
  3731   001A18  0B03               	andlw	3
  3732   001A1A  6EAA               	movwf	170,c	;volatile
  3733   001A1C                     
  3734                           ;MCAL_Layer/EEPROM/hal_eeprom.c: 14:         EEADR = (uint8)(add & 0xFF);
  3735   001A1C  C05A  FFA9         	movff	WRITE_DATA_EEPROM@add,4009	;volatile
  3736   001A20                     
  3737                           ;MCAL_Layer/EEPROM/hal_eeprom.c: 15:         EEDATA = data;
  3738   001A20  C05C  FFA8         	movff	WRITE_DATA_EEPROM@data,4008	;volatile
  3739   001A24                     
  3740                           ;MCAL_Layer/EEPROM/hal_eeprom.c: 16:         EECON1bits.EEPGD = 0;
  3741   001A24  9EA6               	bcf	166,7,c	;volsfr
  3742   001A26                     
  3743                           ;MCAL_Layer/EEPROM/hal_eeprom.c: 17:         EECON1bits.CFGS = 0;
  3744   001A26  9CA6               	bcf	166,6,c	;volsfr
  3745   001A28                     
  3746                           ;MCAL_Layer/EEPROM/hal_eeprom.c: 18:         EECON1bits.WREN = 1;
  3747   001A28  84A6               	bsf	166,2,c	;volsfr
  3748   001A2A                     
  3749                           ;MCAL_Layer/EEPROM/hal_eeprom.c: 19:         (INTCONbits.GIEH = 0);
  3750   001A2A  9EF2               	bcf	242,7,c	;volatile
  3751   001A2C                     
  3752                           ;MCAL_Layer/EEPROM/hal_eeprom.c: 20:         EECON2 = 0x55;
  3753   001A2C  0E55               	movlw	85
  3754   001A2E  6EA7               	movwf	167,c	;volsfr
  3755   001A30                     
  3756                           ;MCAL_Layer/EEPROM/hal_eeprom.c: 21:         EECON2 = 0xAA;
  3757   001A30  0EAA               	movlw	170
  3758   001A32  6EA7               	movwf	167,c	;volsfr
  3759   001A34                     
  3760                           ;MCAL_Layer/EEPROM/hal_eeprom.c: 22:         EECON1bits.WR = 1;
  3761   001A34  82A6               	bsf	166,1,c	;volsfr
  3762   001A36                     i2l780:
  3763   001A36  B2A6               	btfsc	166,1,c	;volsfr
  3764   001A38  EF20  F00D         	goto	i2u174_41
  3765   001A3C  EF22  F00D         	goto	i2u174_40
  3766   001A40                     i2u174_41:
  3767   001A40  EF1B  F00D         	goto	i2l780
  3768   001A44                     i2u174_40:
  3769   001A44                     
  3770                           ;MCAL_Layer/EEPROM/hal_eeprom.c: 24:         EECON1bits.WREN = 0;
  3771   001A44  94A6               	bcf	166,2,c	;volsfr
  3772                           
  3773                           ;MCAL_Layer/EEPROM/hal_eeprom.c: 25:         INTCONbits.GIEH = status;
  3774   001A46  B05D               	btfsc	WRITE_DATA_EEPROM@status^0,0,c
  3775   001A48  D002               	bra	i2u175_45
  3776   001A4A  9EF2               	bcf	242,7,c	;volatile
  3777   001A4C  D001               	bra	i2u175_46
  3778   001A4E                     i2u175_45:
  3779   001A4E  8EF2               	bsf	242,7,c	;volatile
  3780   001A50                     i2u175_46:
  3781   001A50  0012               	return		;funcret
  3782   001A52                     __end_of_WRITE_DATA_EEPROM:
  3783                           	callstack 0
  3784                           
  3785                           	psect	rparam
  3786   000000                     
  3787                           	psect	temp
  3788   000070                     btemp:
  3789                           	callstack 0
  3790   000070                     	ds	1
  3791   000000                     int$flags	set	btemp
  3792   000000                     wtemp8	set	btemp+1
  3793   000000                     ttemp5	set	btemp+1
  3794   000000                     ttemp6	set	btemp+4
  3795   000000                     ttemp7	set	btemp+8
  3796                           
  3797                           	psect	config
  3798                           
  3799                           ; Padding undefined space
  3800   300000                     	org	3145728
  3801   300000  FF                 	db	255
  3802                           
  3803                           ;Config register CONFIG1H @ 0x300001
  3804                           ;	Oscillator Selection bits
  3805                           ;	OSC = HS, HS oscillator
  3806                           ;	Fail-Safe Clock Monitor Enable bit
  3807                           ;	FCMEN = OFF, Fail-Safe Clock Monitor disabled
  3808                           ;	Internal/External Oscillator Switchover bit
  3809                           ;	IESO = OFF, Oscillator Switchover mode disabled
  3810   300001                     	org	3145729
  3811   300001  02                 	db	2
  3812                           
  3813                           ;Config register CONFIG2L @ 0x300002
  3814                           ;	Power-up Timer Enable bit
  3815                           ;	PWRT = OFF, PWRT disabled
  3816                           ;	Brown-out Reset Enable bits
  3817                           ;	BOREN = OFF, Brown-out Reset disabled in hardware and software
  3818                           ;	Brown Out Reset Voltage bits
  3819                           ;	BORV = 1, 
  3820   300002                     	org	3145730
  3821   300002  09                 	db	9
  3822                           
  3823                           ;Config register CONFIG2H @ 0x300003
  3824                           ;	Watchdog Timer Enable bit
  3825                           ;	WDT = OFF, WDT disabled (control is placed on the SWDTEN bit)
  3826                           ;	Watchdog Timer Postscale Select bits
  3827                           ;	WDTPS = 32768, 1:32768
  3828   300003                     	org	3145731
  3829   300003  1E                 	db	30
  3830                           
  3831                           ; Padding undefined space
  3832   300004                     	org	3145732
  3833   300004  FF                 	db	255
  3834                           
  3835                           ;Config register CONFIG3H @ 0x300005
  3836                           ;	CCP2 MUX bit
  3837                           ;	CCP2MX = PORTC, CCP2 input/output is multiplexed with RC1
  3838                           ;	PORTB A/D Enable bit
  3839                           ;	PBADEN = OFF, PORTB<4:0> pins are configured as digital I/O on Reset
  3840                           ;	Low-Power Timer1 Oscillator Enable bit
  3841                           ;	LPT1OSC = OFF, Timer1 configured for higher power operation
  3842                           ;	MCLR Pin Enable bit
  3843                           ;	MCLRE = ON, MCLR pin enabled; RE3 input pin disabled
  3844   300005                     	org	3145733
  3845   300005  81                 	db	129
  3846                           
  3847                           ;Config register CONFIG4L @ 0x300006
  3848                           ;	Stack Full/Underflow Reset Enable bit
  3849                           ;	STVREN = ON, Stack full/underflow will cause Reset
  3850                           ;	Single-Supply ICSP Enable bit
  3851                           ;	LVP = OFF, Single-Supply ICSP disabled
  3852                           ;	Extended Instruction Set Enable bit
  3853                           ;	XINST = OFF, Instruction set extension and Indexed Addressing mode disabled (Legacy mo
      +                          de)
  3854                           ;	Background Debugger Enable bit
  3855                           ;	DEBUG = 0x1, unprogrammed default
  3856   300006                     	org	3145734
  3857   300006  81                 	db	129
  3858                           
  3859                           ; Padding undefined space
  3860   300007                     	org	3145735
  3861   300007  FF                 	db	255
  3862                           
  3863                           ;Config register CONFIG5L @ 0x300008
  3864                           ;	Code Protection bit
  3865                           ;	CP0 = OFF, Block 0 (000800-003FFFh) not code-protected
  3866                           ;	Code Protection bit
  3867                           ;	CP1 = OFF, Block 1 (004000-007FFFh) not code-protected
  3868                           ;	Code Protection bit
  3869                           ;	CP2 = OFF, Block 2 (008000-00BFFFh) not code-protected
  3870                           ;	Code Protection bit
  3871                           ;	CP3 = OFF, Block 3 (00C000-00FFFFh) not code-protected
  3872   300008                     	org	3145736
  3873   300008  0F                 	db	15
  3874                           
  3875                           ;Config register CONFIG5H @ 0x300009
  3876                           ;	Boot Block Code Protection bit
  3877                           ;	CPB = OFF, Boot block (000000-0007FFh) not code-protected
  3878                           ;	Data EEPROM Code Protection bit
  3879                           ;	CPD = OFF, Data EEPROM not code-protected
  3880   300009                     	org	3145737
  3881   300009  C0                 	db	192
  3882                           
  3883                           ;Config register CONFIG6L @ 0x30000A
  3884                           ;	Write Protection bit
  3885                           ;	WRT0 = OFF, Block 0 (000800-003FFFh) not write-protected
  3886                           ;	Write Protection bit
  3887                           ;	WRT1 = OFF, Block 1 (004000-007FFFh) not write-protected
  3888                           ;	Write Protection bit
  3889                           ;	WRT2 = OFF, Block 2 (008000-00BFFFh) not write-protected
  3890                           ;	Write Protection bit
  3891                           ;	WRT3 = OFF, Block 3 (00C000-00FFFFh) not write-protected
  3892   30000A                     	org	3145738
  3893   30000A  0F                 	db	15
  3894                           
  3895                           ;Config register CONFIG6H @ 0x30000B
  3896                           ;	Configuration Register Write Protection bit
  3897                           ;	WRTC = OFF, Configuration registers (300000-3000FFh) not write-protected
  3898                           ;	Boot Block Write Protection bit
  3899                           ;	WRTB = OFF, Boot Block (000000-0007FFh) not write-protected
  3900                           ;	Data EEPROM Write Protection bit
  3901                           ;	WRTD = OFF, Data EEPROM not write-protected
  3902   30000B                     	org	3145739
  3903   30000B  E0                 	db	224
  3904                           
  3905                           ;Config register CONFIG7L @ 0x30000C
  3906                           ;	Table Read Protection bit
  3907                           ;	EBTR0 = OFF, Block 0 (000800-003FFFh) not protected from table reads executed in other
      +                           blocks
  3908                           ;	Table Read Protection bit
  3909                           ;	EBTR1 = OFF, Block 1 (004000-007FFFh) not protected from table reads executed in other
      +                           blocks
  3910                           ;	Table Read Protection bit
  3911                           ;	EBTR2 = OFF, Block 2 (008000-00BFFFh) not protected from table reads executed in other
      +                           blocks
  3912                           ;	Table Read Protection bit
  3913                           ;	EBTR3 = OFF, Block 3 (00C000-00FFFFh) not protected from table reads executed in other
      +                           blocks
  3914   30000C                     	org	3145740
  3915   30000C  0F                 	db	15
  3916                           
  3917                           ;Config register CONFIG7H @ 0x30000D
  3918                           ;	Boot Block Table Read Protection bit
  3919                           ;	EBTRB = OFF, Boot Block (000000-0007FFh) not protected from table reads executed in ot
      +                          her blocks
  3920   30000D                     	org	3145741
  3921   30000D  40                 	db	64
  3922                           tosu	equ	0xFFF
  3923                           tosh	equ	0xFFE
  3924                           tosl	equ	0xFFD
  3925                           stkptr	equ	0xFFC
  3926                           pclatu	equ	0xFFB
  3927                           pclath	equ	0xFFA
  3928                           pcl	equ	0xFF9
  3929                           tblptru	equ	0xFF8
  3930                           tblptrh	equ	0xFF7
  3931                           tblptrl	equ	0xFF6
  3932                           tablat	equ	0xFF5
  3933                           prodh	equ	0xFF4
  3934                           prodl	equ	0xFF3
  3935                           indf0	equ	0xFEF
  3936                           postinc0	equ	0xFEE
  3937                           postdec0	equ	0xFED
  3938                           preinc0	equ	0xFEC
  3939                           plusw0	equ	0xFEB
  3940                           fsr0h	equ	0xFEA
  3941                           fsr0l	equ	0xFE9
  3942                           wreg	equ	0xFE8
  3943                           indf1	equ	0xFE7
  3944                           postinc1	equ	0xFE6
  3945                           postdec1	equ	0xFE5
  3946                           preinc1	equ	0xFE4
  3947                           plusw1	equ	0xFE3
  3948                           fsr1h	equ	0xFE2
  3949                           fsr1l	equ	0xFE1
  3950                           bsr	equ	0xFE0
  3951                           indf2	equ	0xFDF
  3952                           postinc2	equ	0xFDE
  3953                           postdec2	equ	0xFDD
  3954                           preinc2	equ	0xFDC
  3955                           plusw2	equ	0xFDB
  3956                           fsr2h	equ	0xFDA
  3957                           fsr2l	equ	0xFD9
  3958                           status	equ	0xFD8

Data Sizes:
    Strings     6
    Constant    56
    Data        59
    BSS         30
    Persistent  1
    Stack       0

Auto Spaces:
    Space          Size  Autos    Used
    COMRAM          126     21     111
    BANK0           128      0       0
    BANK1           256      0       0
    BANK2           256      0       0
    BANK3           256      0       0
    BANK4           256      0       0
    BANK5           256      0       0
    BANK6           256      0       0
    BANK7           256      0       0
    BANK8           256      0       0
    BANK9           256      0       0
    BANK10          256      0       0
    BANK11          256      0       0
    BANK12          256      0       0
    BANK13          256      0       0
    BANK14          256      0       0
    BANK15          128      0       0

Pointer List with Targets:

    f$.$buffer	PTR unsigned char  size(2) Largest target is 0

    f$.$source	PTR const unsigned char  size(2) Largest target is 0

    gpio_pin_direction_intialize@_pin_config	PTR const struct . size(1) Largest target is 6
		 -> int0(COMRAM[6]), led_initialize@pin_obj(COMRAM[1]), relay_initialization@pin_obj(COMRAM[1]), 

    gpio_pin_initialize@_pin_config	PTR const struct . size(1) Largest target is 1
		 -> led_initialize@pin_obj(COMRAM[1]), relay_initialization@pin_obj(COMRAM[1]), 

    gpio_pin_toggle_logic@_pin_config	PTR const struct . size(1) Largest target is 1
		 -> led_turn_toggle@pin_obj(COMRAM[1]), 

    gpio_pin_write_logic@_pin_config	PTR const struct . size(1) Largest target is 1
		 -> led_initialize@pin_obj(COMRAM[1]), led_turn_off@pin_obj(COMRAM[1]), led_turn_on@pin_obj(COMRAM[1]), relay_initialization@pin_obj(COMRAM[1]), 
		 -> relay_turn_off@pin_obj(COMRAM[1]), relay_turn_on@pin_obj(COMRAM[1]), 

    int0$EXT_INTERRUPT_HANDLER	PTR FTN()void  size(2) Largest target is 1
		 -> isr(), 

    INT0_INTERRUPT_HANDLER@Interrupt_Handler	PTR FTN()void  size(2) Largest target is 1
		 -> isr(), 

    INT0_INTERRUPTHANDLER	PTR FTN()void  size(2) Largest target is 1
		 -> isr(), NULL(), 

    INT1_INTERRUPT_HANDLER@Interrupt_Handler	PTR FTN()void  size(2) Largest target is 1
		 -> isr(), 

    INT1_INTERRUPTHANDLER	PTR FTN()void  size(2) Largest target is 1
		 -> isr(), NULL(), 

    INT2_INTERRUPT_HANDLER@Interrupt_Handler	PTR FTN()void  size(2) Largest target is 1
		 -> isr(), 

    INT2_INTERRUPTHANDLER	PTR FTN()void  size(2) Largest target is 1
		 -> isr(), NULL(), 

    Interrupt_INTx_Clear_Flag@int_obj	PTR const struct . size(1) Largest target is 6
		 -> int0(COMRAM[6]), 

    Interrupt_INTx_Clear_Flag@int_obj$EXT_INTERRUPT_HANDLER	PTR FTN()void  size(2) Largest target is 1
		 -> isr(), 

    Interrupt_INTx_Disable@int_obj	PTR const struct . size(1) Largest target is 6
		 -> int0(COMRAM[6]), 

    Interrupt_INTx_Disable@int_obj$EXT_INTERRUPT_HANDLER	PTR FTN()void  size(2) Largest target is 1
		 -> isr(), 

    Interrupt_INTx_Edge_Src@int_obj	PTR const struct . size(1) Largest target is 6
		 -> int0(COMRAM[6]), 

    Interrupt_INTx_Edge_Src@int_obj$EXT_INTERRUPT_HANDLER	PTR FTN()void  size(2) Largest target is 1
		 -> isr(), 

    Interrupt_INTx_Enable@int_obj	PTR const struct . size(1) Largest target is 6
		 -> int0(COMRAM[6]), 

    Interrupt_INTx_Enable@int_obj$EXT_INTERRUPT_HANDLER	PTR FTN()void  size(2) Largest target is 1
		 -> isr(), 

    Interrupt_INTx_Init@int_obj	PTR const struct . size(1) Largest target is 6
		 -> int0(COMRAM[6]), 

    Interrupt_INTx_Pin_Init@int_obj	PTR const struct . size(1) Largest target is 6
		 -> int0(COMRAM[6]), 

    Interrupt_INTx_Pin_Init@int_obj$EXT_INTERRUPT_HANDLER	PTR FTN()void  size(2) Largest target is 1
		 -> isr(), 

    Interrupt_RBx_Init@int_obj$EXT_INTERRUPT_HANDLER_HIGH	PTR FTN()void  size(2) Largest target is 0

    Interrupt_RBx_Init@int_obj$EXT_INTERRUPT_HANDLER_LOW	PTR FTN()void  size(2) Largest target is 0

    lat_registers	PTR volatile unsigned char [5] size(2) Largest target is 1
		 -> LATA(BITBIGSFRll[1]), LATB(BITBIGSFRlh[1]), LATC(BITBIGSFRlh[1]), LATD(BITBIGSFRlh[1]), 
		 -> LATE(BITBIGSFRlh[1]), 

    led_initialize@led	PTR const struct . size(1) Largest target is 1
		 -> led1(COMRAM[1]), led2(COMRAM[1]), led3(COMRAM[1]), 

    led_turn_off@led	PTR const struct . size(1) Largest target is 1
		 -> led1(COMRAM[1]), led2(COMRAM[1]), 

    led_turn_toggle@led	PTR const struct . size(1) Largest target is 1
		 -> led1(COMRAM[1]), led2(COMRAM[1]), 

    port_registers	PTR volatile unsigned char [5] size(2) Largest target is 1
		 -> PORTA(BITBIGSFRll[1]), PORTB(BITBIGSFRll[1]), PORTC(BITBIGSFRll[1]), PORTD(BITBIGSFRll[1]), 
		 -> PORTE(BITBIGSFRll[1]), 

    RB4_INTERRUPTHANDLERHIGH	PTR FTN()void  size(2) Largest target is 1
		 -> NULL(), 

    RB4_INTERRUPTHANDLERLOW	PTR FTN()void  size(2) Largest target is 1
		 -> NULL(), 

    RB5_INTERRUPTHANDLERHIGH	PTR FTN()void  size(2) Largest target is 1
		 -> NULL(), 

    RB5_INTERRUPTHANDLERLOW	PTR FTN()void  size(2) Largest target is 1
		 -> NULL(), 

    RB6_INTERRUPTHANDLERHIGH	PTR FTN()void  size(2) Largest target is 1
		 -> NULL(), 

    RB6_INTERRUPTHANDLERLOW	PTR FTN()void  size(2) Largest target is 1
		 -> NULL(), 

    RB7_INTERRUPTHANDLERHIGH	PTR FTN()void  size(2) Largest target is 1
		 -> NULL(), 

    RB7_INTERRUPTHANDLERLOW	PTR FTN()void  size(2) Largest target is 1
		 -> NULL(), 

    READ_DATA_EEPROM@data	PTR unsigned char  size(1) Largest target is 1
		 -> counter(COMRAM[1]), 

    S1972$buffer	PTR unsigned char  size(2) Largest target is 0

    S1972$source	PTR const unsigned char  size(2) Largest target is 0

    S819$EXT_INTERRUPT_HANDLER	PTR FTN()void  size(2) Largest target is 1
		 -> isr(), 

    S957$EXT_INTERRUPT_HANDLER_HIGH	PTR FTN()void  size(2) Largest target is 0

    S957$EXT_INTERRUPT_HANDLER_LOW	PTR FTN()void  size(2) Largest target is 0

    Set_Interrupt_Handler@int_obj	PTR const struct . size(1) Largest target is 6
		 -> int0(COMRAM[6]), 

    Set_Interrupt_Handler@int_obj$EXT_INTERRUPT_HANDLER	PTR FTN()void  size(2) Largest target is 1
		 -> isr(), 

    sp__memset	PTR void  size(2) Largest target is 0

    tris_registers	PTR volatile unsigned char [5] size(2) Largest target is 1
		 -> TRISA(BITBIGSFRll[1]), TRISB(BITBIGSFRhllll[1]), TRISC(BITBIGSFRhllll[1]), TRISD(BITBIGSFRhllll[1]), 
		 -> TRISE(BITBIGSFRhllll[1]), 

    vfprintf$0	PTR struct _IO_FILE size(1) Largest target is 12
		 -> sprintf@f(COMRAM[12]), 

    vfprintf$1	PTR const unsigned char  size(1) Largest target is 3
		 -> STR_1(CODE[3]), STR_2(CODE[3]), STR_3(CODE[3]), 

    vfprintf$2	PTR PTR void  size(1) Largest target is 1
		 -> sprintf@ap(COMRAM[1]), 


Critical Paths under _main in COMRAM

    _led_turn_toggle->_gpio_pin_toggle_logic
    _led_turn_off->_gpio_pin_write_logic
    _Ecu_initialize->_led_initialize
    _led_initialize->_gpio_pin_initialize
    _gpio_pin_initialize->_gpio_pin_write_logic
    _Interrupt_INTx_Init->_Interrupt_INTx_Pin_Init
    _Set_Interrupt_Handler->_INT0_INTERRUPT_HANDLER
    _Set_Interrupt_Handler->_INT1_INTERRUPT_HANDLER
    _Set_Interrupt_Handler->_INT2_INTERRUPT_HANDLER
    _Interrupt_INTx_Pin_Init->_gpio_pin_direction_intialize

Critical Paths under _InterruptMangaer in COMRAM

    _isr->_WRITE_DATA_EEPROM

Critical Paths under _main in BANK0

    None.

Critical Paths under _InterruptMangaer in BANK0

    None.

Critical Paths under _main in BANK1

    None.

Critical Paths under _InterruptMangaer in BANK1

    None.

Critical Paths under _main in BANK2

    None.

Critical Paths under _InterruptMangaer in BANK2

    None.

Critical Paths under _main in BANK3

    None.

Critical Paths under _InterruptMangaer in BANK3

    None.

Critical Paths under _main in BANK4

    None.

Critical Paths under _InterruptMangaer in BANK4

    None.

Critical Paths under _main in BANK5

    None.

Critical Paths under _InterruptMangaer in BANK5

    None.

Critical Paths under _main in BANK6

    None.

Critical Paths under _InterruptMangaer in BANK6

    None.

Critical Paths under _main in BANK7

    None.

Critical Paths under _InterruptMangaer in BANK7

    None.

Critical Paths under _main in BANK8

    None.

Critical Paths under _InterruptMangaer in BANK8

    None.

Critical Paths under _main in BANK9

    None.

Critical Paths under _InterruptMangaer in BANK9

    None.

Critical Paths under _main in BANK10

    None.

Critical Paths under _InterruptMangaer in BANK10

    None.

Critical Paths under _main in BANK11

    None.

Critical Paths under _InterruptMangaer in BANK11

    None.

Critical Paths under _main in BANK12

    None.

Critical Paths under _InterruptMangaer in BANK12

    None.

Critical Paths under _main in BANK13

    None.

Critical Paths under _InterruptMangaer in BANK13

    None.

Critical Paths under _main in BANK14

    None.

Critical Paths under _InterruptMangaer in BANK14

    None.

Critical Paths under _main in BANK15

    None.

Critical Paths under _InterruptMangaer in BANK15

    None.

Call Graph Tables:

 ---------------------------------------------------------------------------------
 (Depth) Function   	        Calls       Base Space   Used Autos Params    Refs
 ---------------------------------------------------------------------------------
 (0) _main                                                 2     2      0   15334
                                             19 COMRAM     2     2      0
                _Interrupt_INTx_Init
                   _READ_DATA_EEPROM
             _application_initialize
                       _led_turn_off
                    _led_turn_toggle
 ---------------------------------------------------------------------------------
 (1) _led_turn_toggle                                      4     3      1     427
                                             11 COMRAM     3     2      1
              _gpio_pin_toggle_logic
 ---------------------------------------------------------------------------------
 (2) _gpio_pin_toggle_logic                                6     5      1     150
                                              6 COMRAM     5     4      1
 ---------------------------------------------------------------------------------
 (1) _led_turn_off                                         4     3      1    5299
                                             14 COMRAM     3     2      1
               _gpio_pin_write_logic
 ---------------------------------------------------------------------------------
 (1) _application_initialize                               0     0      0    7193
                     _Ecu_initialize
 ---------------------------------------------------------------------------------
 (2) _Ecu_initialize                                       0     0      0    7193
                     _led_initialize
 ---------------------------------------------------------------------------------
 (3) _led_initialize                                       4     3      1    7193
                                             16 COMRAM     3     2      1
                _gpio_pin_initialize
 ---------------------------------------------------------------------------------
 (4) _gpio_pin_initialize                                  2     1      1    6831
                                             14 COMRAM     2     1      1
       _gpio_pin_direction_intialize
               _gpio_pin_write_logic
 ---------------------------------------------------------------------------------
 (2) _gpio_pin_write_logic                                 8     6      2    5020
                                              6 COMRAM     8     6      2
 ---------------------------------------------------------------------------------
 (1) _READ_DATA_EEPROM                                     5     2      3     226
                                              6 COMRAM     3     0      3
 ---------------------------------------------------------------------------------
 (1) _Interrupt_INTx_Init                                  2     1      1    2189
                                             15 COMRAM     2     1      1
          _Interrupt_INTx_Clear_Flag
             _Interrupt_INTx_Disable
            _Interrupt_INTx_Edge_Src
              _Interrupt_INTx_Enable
            _Interrupt_INTx_Pin_Init
              _Set_Interrupt_Handler
 ---------------------------------------------------------------------------------
 (2) _Set_Interrupt_Handler                                4     3      1     595
                                              8 COMRAM     4     3      1
             _INT0_INTERRUPT_HANDLER
             _INT1_INTERRUPT_HANDLER
             _INT2_INTERRUPT_HANDLER
 ---------------------------------------------------------------------------------
 (3) _INT2_INTERRUPT_HANDLER                               3     1      2     128
                                              6 COMRAM     2     0      2
 ---------------------------------------------------------------------------------
 (3) _INT1_INTERRUPT_HANDLER                               3     1      2     128
                                              6 COMRAM     2     0      2
 ---------------------------------------------------------------------------------
 (3) _INT0_INTERRUPT_HANDLER                               3     1      2     128
                                              6 COMRAM     2     0      2
 ---------------------------------------------------------------------------------
 (2) _Interrupt_INTx_Pin_Init                              2     1      1     628
                                             13 COMRAM     2     1      1
       _gpio_pin_direction_intialize
 ---------------------------------------------------------------------------------
 (5) _gpio_pin_direction_intialize                         7     6      1     483
                                              6 COMRAM     7     6      1
 ---------------------------------------------------------------------------------
 (2) _Interrupt_INTx_Enable                                4     3      1     145
                                              6 COMRAM     4     3      1
 ---------------------------------------------------------------------------------
 (2) _Interrupt_INTx_Edge_Src                              4     3      1     211
                                              6 COMRAM     4     3      1
 ---------------------------------------------------------------------------------
 (2) _Interrupt_INTx_Disable                               4     3      1     221
                                              6 COMRAM     4     3      1
 ---------------------------------------------------------------------------------
 (2) _Interrupt_INTx_Clear_Flag                            4     3      1     145
                                              6 COMRAM     4     3      1
 ---------------------------------------------------------------------------------
 Estimated maximum stack depth 5
 ---------------------------------------------------------------------------------
 (Depth) Function   	        Calls       Base Space   Used Autos Params    Refs
 ---------------------------------------------------------------------------------
 (6) _InterruptMangaer                                     2     2      0     864
                                              4 COMRAM     2     2      0
                           _INT0_ISR
                           _INT1_ISR
                           _INT2_ISR
                            _RB4_ISR
                            _RB5_ISR
                            _RB6_ISR
                            _RB7_ISR
 ---------------------------------------------------------------------------------
 (7) _RB7_ISR                                              1     1      0      30
                                              0 COMRAM     1     1      0
 ---------------------------------------------------------------------------------
 (7) _RB6_ISR                                              1     1      0      30
                                              0 COMRAM     1     1      0
 ---------------------------------------------------------------------------------
 (7) _RB5_ISR                                              1     1      0      30
                                              0 COMRAM     1     1      0
 ---------------------------------------------------------------------------------
 (7) _RB4_ISR                                              1     1      0      30
                                              0 COMRAM     1     1      0
 ---------------------------------------------------------------------------------
 (7) _INT2_ISR                                             0     0      0     248
                                NULL *
                                _isr *
 ---------------------------------------------------------------------------------
 (7) _INT1_ISR                                             0     0      0     248
                                NULL *
                                _isr *
 ---------------------------------------------------------------------------------
 (7) _INT0_ISR                                             0     0      0     248
                                NULL *
                                _isr *
 ---------------------------------------------------------------------------------
 (8) _isr                                                  0     0      0     248
                  _WRITE_DATA_EEPROM
 ---------------------------------------------------------------------------------
 (9) _WRITE_DATA_EEPROM                                    5     2      3     248
                                              0 COMRAM     4     1      3
 ---------------------------------------------------------------------------------
 (8) NULL(Fake)                                            0     0      0       0
 ---------------------------------------------------------------------------------
 Estimated maximum stack depth 9
 ---------------------------------------------------------------------------------

 Call Graph Graphs:

 _main (ROOT)
   _Interrupt_INTx_Init
     _Interrupt_INTx_Clear_Flag
     _Interrupt_INTx_Disable
     _Interrupt_INTx_Edge_Src
     _Interrupt_INTx_Enable
     _Interrupt_INTx_Pin_Init
       _gpio_pin_direction_intialize
     _Set_Interrupt_Handler
       _INT0_INTERRUPT_HANDLER
       _INT1_INTERRUPT_HANDLER
       _INT2_INTERRUPT_HANDLER
   _READ_DATA_EEPROM
   _application_initialize
     _Ecu_initialize
       _led_initialize
         _gpio_pin_initialize
           _gpio_pin_direction_intialize
           _gpio_pin_write_logic
   _led_turn_off
     _gpio_pin_write_logic
   _led_turn_toggle
     _gpio_pin_toggle_logic

 _InterruptMangaer (ROOT)
   _INT0_ISR
     NULL(Fake) *
     _isr *
       _WRITE_DATA_EEPROM
   _INT1_ISR
     NULL(Fake) *
     _isr *
   _INT2_ISR
     NULL(Fake) *
     _isr *
   _RB4_ISR
   _RB5_ISR
   _RB6_ISR
   _RB7_ISR

 Address spaces:
Name               Size   Autos  Total    Cost      Usage
BIGRAM             F7F      0       0      42        0.0%
EEDATA             400      0       0       0        0.0%
BITBANK14          100      0       0      32        0.0%
BANK14             100      0       0      33        0.0%
BITBANK13          100      0       0      30        0.0%
BANK13             100      0       0      31        0.0%
BITBANK12          100      0       0      28        0.0%
BANK12             100      0       0      29        0.0%
BITBANK11          100      0       0      26        0.0%
BANK11             100      0       0      27        0.0%
BITBANK10          100      0       0      24        0.0%
BANK10             100      0       0      25        0.0%
BITBANK9           100      0       0      22        0.0%
BANK9              100      0       0      23        0.0%
BITBANK8           100      0       0      20        0.0%
BANK8              100      0       0      21        0.0%
BITBANK7           100      0       0      18        0.0%
BANK7              100      0       0      19        0.0%
BITBANK6           100      0       0      16        0.0%
BANK6              100      0       0      17        0.0%
BITBANK5           100      0       0      14        0.0%
BANK5              100      0       0      15        0.0%
BITBANK4           100      0       0      12        0.0%
BANK4              100      0       0      13        0.0%
BITBANK3           100      0       0      10        0.0%
BANK3              100      0       0      11        0.0%
BITBANK2           100      0       0       8        0.0%
BANK2              100      0       0       9        0.0%
BITBANK1           100      0       0       6        0.0%
BANK1              100      0       0       7        0.0%
BITBANK15           80      0       0      34        0.0%
BANK15              80      0       0      35        0.0%
BITBANK0            80      0       0       4        0.0%
BANK0               80      0       0       5        0.0%
BITCOMRAM           7E      0       0       0        0.0%
COMRAM              7E     15      6F       1       88.1%
BITBIGSFRhllh       45      0       0      37        0.0%
BITBIGSFRhllll       F      0       0      38        0.0%
BITBIGSFRhh          D      0       0      36        0.0%
BITBIGSFRlh          4      0       0      39        0.0%
BITBIGSFRll          4      0       0      40        0.0%
BIGSFR               0      0       0     200        0.0%
BITSFR               0      0       0     200        0.0%
SFR                  0      0       0     200        0.0%
STACK                0      0       0       2        0.0%
NULL                 0      0       0       0        0.0%
ABS                  0      0      6F      41        0.0%
DATA                 0      0      6F       3        0.0%
CODE                 0      0       0       0        0.0%


Microchip Technology PIC18 Macro Assembler V2.46 build 20240104201356 
Symbol Table                                                                                   Wed Jul 17 07:38:02 2024

                     ??_InterruptMangaer 005E                  ?_INT2_INTERRUPT_HANDLER 0060  
                      ??_led_turn_toggle 0066                    _INT0_INTERRUPTHANDLER 0050  
                       _READ_DATA_EEPROM 1BDE                                      l330 1C94  
                                    l412 1A8E                                      l245 190A  
                                    l270 18F4                                      l263 17AE  
                                    l407 19C0                                      l600 1846  
                                    l249 195E                                      l602 188A  
                                    l266 18A0                                      l259 1756  
                                    l613 153A                                      l616 1560  
                                    l624 1BDC                                      l609 1514  
                                    l378 13E6                                      l634 1C3E  
                                    l650 1642                                      l619 15A4  
                                    l395 14D6                                      l580 1740  
                                    l629 1C5E                                      l591 181C  
                                    l575 16E2                                      l639 1C1E  
                                    l488 1A0C                                      l577 16EE  
                                    l586 17CC                                      l578 16F8  
                                    l763 1CEA                                      l588 17D2  
                                    l597 183A                                      l589 17D8  
                                    l599 1840                                      l786 1BFE  
                                    _isr 1B8C                                      _ret 006F  
                    led_initialize@F3062 0058                                      tosl 0FFD  
                                    wreg 0FE8                          __end_of_RB4_ISR 1C7C  
                        __end_of_RB5_ISR 1CE4                          __end_of_RB6_ISR 1CCA  
                        __end_of_RB7_ISR 1CB0                                     l3011 14F4  
                                   l3021 155A                                     l3013 150E  
                                   l3015 151A                                     l3007 14D8  
                                   l3017 1534                                     l3009 14EC  
                                   l3025 1566                                     l3041 1BDA  
                                   l3201 189C                                     l3019 1540  
                                   l3027 15A2                                     l3035 1BB6  
                                   l3051 15D8                                     l3203 18A4  
                                   l3037 1BC6                                     l3053 15EE  
                                   l3045 15A6                                     l3221 19FC  
                                   l3213 19C2                                     l3205 18DA  
                                   l3039 1BCE                                     l3047 15BA  
                                   l3223 1A04                                     l3215 19D2  
                                   l3207 18DC                                     l3073 1702  
                                   l3049 15C2                                     l3057 1604  
                                   l3217 19D6                                     l3209 18EC  
                                   l3075 173E                                     l3067 16C6  
                                   l3059 1640                                     l3219 19F4  
                                   l3251 1BE0                                     l3069 16DA  
                                   l3261 1BF0                                     l3253 1BE6  
                                   l3245 1CE4                                     l3263 1BF2  
                                   l3255 1BEA                                     l3247 1BDE  
                                   l3191 1790                                     l3265 1BF4  
                                   l3257 1BEC                                     l3249 1BDE  
                                   l3193 1792                                     l3185 1742  
                                   l2803 13B8                                     l3259 1BEE  
                                   l2811 1A66                                     l3195 17A2  
                                   l3187 1752                                     l2805 13E4  
                                   l2813 1A6E                                     l2821 1906  
                                   l3189 175A                                     l2815 1A8C  
                                   l2823 190E                                     l3199 188C  
                                   l2833 1C40                                     l2809 1A52  
                                   l2825 1944                                     l2835 1C40  
                                   l2843 1C20                                     l2771 13E8  
                                   l2827 1946                                     l2819 18F6  
                                   l2837 1C52                                     l2845 1C20  
                                   l2853 1C00                                     l2773 13FC  
                                   l2781 14AA                                     l2829 1956  
                                   l2791 12D6                                     l2839 1C56  
                                   l2847 1C32                                     l2855 1C00  
                                   l2775 1404                                     l2783 14D4  
                                   l3831 1650                                     l2793 12EA  
                                   l2849 1C36                                     l2857 1C12  
                                   l2777 145A                                     l3841 16A8  
                                   l3833 165E                                     l2795 130A  
                                   l2859 1C16                                     l3835 166E  
                                   l2981 17DE                                     l2797 1312  
                                   l2973 1C7C                                     l2965 1960  
                                   l3837 167E                                     l3829 1644  
                                   l2991 181E                                     l2983 181A  
                                   l2975 17B0                                     l3871 1720  
                                   l2799 1368                                     l2967 1970  
                                   l3839 1698                                     l2993 1832  
                                   l2977 17C4                                     l3873 1584  
                                   l2969 1974                                     l3875 17FC  
                                   l3867 14BE                                     l3877 186A  
                                   l2997 184C                                     l3869 1622  
                                   l2999 1888                                     ?_isr 005A  
                                   STR_1 103C                                     STR_2 1039  
                                   u2050 1752                                     u2051 174E  
                                   _LATA 0F89                                     u2070 189C  
                                   _LATB 0F8A                                     u2071 1898  
                                   _LATC 0F8B                                     u1600 13FC  
                                   _LATD 0F8C                                     u1601 13F8  
                                   u2065 17A0                                     _LATE 0F8D  
                                   u2090 19D2                                     u2091 19CE  
                                   u2067 17A2                                     u2085 18EA  
                                   u1630 12EA                                     u1710 1C52  
                                   u1614 1422                                     u1631 12E6  
                                   u1711 1C4E                                     u1615 141E  
                                   u2087 18EC                                     u1640 130A  
                                   u1720 1C32                                     u1624 1478  
                                   u1641 1306                                     u1721 1C2E  
                                   u1625 1474                                     u1705 1954  
                                   u1730 1C12                                     u1731 1C0E  
                                   u1707 1956                                     u1900 155A  
                                   u1901 1556                                     u1670 13CE  
                                   u1654 1330                                     u1910 1BC6  
                                   u1830 1970                                     u1671 13C8  
                                   u1655 132C                                     u1911 1BC2  
                                   u1831 196C                                     u1664 1386  
                                   u1920 15BA                                     u1680 1A66  
                                   u1665 1382                                     u1921 15B6  
                                   u1681 1A62                                     u1850 17C4  
                                   u1930 16DA                                     u1690 1906  
                                   u1851 17C0                                     u1931 16D6  
                                   u1691 1902                                     u1860 1832  
                                   u1676 13D0                                     u1844 1992  
                                   u1861 182E                                     u1845 198E  
                                   u1870 14EC                                     u1871 14E8  
                                   u1880 150E                                     u1881 150A  
                                   u1890 1534                                     u1891 1530  
                                   u2940 166E                                     u2941 166A  
                                   u2957 1688                                     u2967 16B2  
                                   _led1 003B                                     _led2 003A  
                                   _led3 0039                                     _int0 0033  
                                   _main 1644                                     fsr2h 0FDA  
                                   indf2 0FDF                                     fsr1l 0FE1  
                                   fsr2l 0FD9                                     btemp 0070  
                 __end_of_led_initialize 1960                                     prodl 0FF3  
                                   start 000E                            ?_led_turn_off 0068  
           Set_Interrupt_Handler@int_obj 0062                             ___param_bank 0000  
                 ?_gpio_pin_toggle_logic 0060           __end_of_INT2_INTERRUPT_HANDLER 1C20  
                   _gpio_pin_write_logic 13E8                                    ??_isr 005E  
                       __end_of_INT0_ISR 1B8C                         __end_of_INT1_ISR 1B5E  
                       __end_of_INT2_ISR 1B30                                    ?_main 005A  
               ??_application_initialize 006D                                    _EEADR 0FA9  
                 _INT0_INTERRUPT_HANDLER 1C40                                    _RB4_F 0032  
                                  _RB5_F 0031                                    _RB6_F 0030  
                                  _RB7_F 002F                                    i2l503 1B2E  
                                  i2l514 1C7A                                    i2l700 1242  
                                  i2l509 1C78                                    i2l525 1CE2  
                                  i2l702 1286                                    i2l536 1CC8  
                                  i2l705 12CA                                    i2l547 1CAE  
                                  i2l493 1B8A                                    i2l746 1BB4  
                                  i2l498 1B5C                                    i2l690 10EE  
                                  i2l780 1A36                                    i2l692 1132  
                                  i2l684 106A                                    i2l782 1A44  
                                  i2l694 1176                                    i2l686 108A  
                                  i2l783 1A50                                    i2l696 11BA  
                                  i2l688 10AA                                    i2l698 11FE  
                    relay_turn_off@F3065 0052                                    _PORTA 0F80  
                                  _PORTB 0F81                                    _PORTC 0F82  
                                  _PORTD 0F83                                    _PORTE 0F84  
                                  _TRISA 0F92                                    _TRISB 0F93  
                                  _TRISC 0F94                                    _TRISD 0F95  
                                  _TRISE 0F96                 Interrupt_INTx_Enable@ret 0063  
                                  pclath 0FFA                                    pclatu 0FFB  
                                  tablat 0FF5                                    ttemp5 0071  
                                  ttemp6 0074                                    ttemp7 0078  
                                  status 0FD8                                    wtemp8 0071  
                        ?_led_initialize 006A                   _Interrupt_INTx_Disable 17B0  
                         ??_led_turn_off 0069                  _RB4_INTERRUPTHANDLERLOW 0048  
                _RB7_INTERRUPTHANDLERLOW 003C                          __initialization 1ACC  
                           __end_of_main 16C6                    ?_gpio_pin_write_logic 0060  
                          _lat_registers 001B                                   ??_main 006D  
                         _Ecu_initialize 1C7C                            __activetblptr 0003  
                       led_turn_on@F3067 0057                                ??_RB4_ISR 005A  
                              ??_RB5_ISR 005A                                ??_RB6_ISR 005A  
                              ??_RB7_ISR 005A                    _Set_Interrupt_Handler 15A6  
         Interrupt_INTx_Edge_Src@int_obj 0060                                   _EEADRH 0FAA  
                                 _EEDATA 0FA8                                   _EECON2 0FA7  
                                 i2l2003 1CAE                                   i2l3231 1B72  
                                 i2l3233 1B30                                   i2l3241 1B04  
                                 i2l3083 1B8C                                   i2l3227 1B5E  
                                 i2l3235 1B32                                   i2l3243 1B16  
                                 i2l3085 1B9C                                   i2l3229 1B60  
                                 i2l3237 1B44                                   i2l3087 1BA2  
                                 i2l3239 1B02                                   i2l3089 1BA6  
           Interrupt_INTx_Enable@int_obj 0060                                   i2l1961 1C78  
                                 i2l1953 1C62                                   i2l3801 121A  
                                 i2l1955 1C64                                   i2l3811 125E  
                                 i2l3803 1228                                   i2l1981 1CB2  
                                 i2l3821 12A2                                   i2l3813 126C  
                                 i2l3805 1238                                   i2l3741 1078  
                                 i2l2871 1A20                                   i2l2863 1A0E  
                                 i2l1975 1CE2                                   i2l1967 1CCC  
                                 i2l1983 1CB4                                   i2l3823 12B0  
                                 i2l3815 127C                                   i2l3807 123C  
                                 i2l3751 10C6                                   i2l3743 1086  
                                 i2l3735 104A                                   i2l2881 1A2C  
                                 i2l2873 1A24                                   i2l2865 1A0E  
                                 i2l1969 1CCE                                   i2l3825 12C0  
                                 i2l3817 1280                                   i2l3809 1250  
                                 i2l3761 110A                                   i2l3753 10D4  
                                 i2l3745 1098                                   i2l3737 1058  
                                 i2l2883 1A30                                   i2l2875 1A26  
                                 i2l2867 1A16                                   i2l1995 1C98  
                                 i2l3827 12C4                                   i2l3819 1294  
                                 i2l3771 114E                                   i2l3763 1118  
                                 i2l3755 10E4                                   i2l3747 10A6  
                                 i2l3739 1066                                   i2l2885 1A34  
                                 i2l2877 1A28                                   i2l2869 1A1C  
                                 i2l1989 1CC8                                   i2l1997 1C9A  
                                 i2l3781 1192                                   i2l3773 115C  
                                 i2l3765 1128                                   i2l3757 10E8  
                                 i2l3749 10B8                                   i2l2879 1A2A  
                                 i2l3791 11D6                                   i2l3783 11A0  
                                 i2l3775 116C                                   i2l3767 112C  
                                 i2l3759 10FC                                   i2l3793 11E4  
                                 i2l3785 11B0                                   i2l3777 1170  
                                 i2l3769 1140                                   i2l3795 11F4  
                                 i2l3787 11B4                                   i2l3779 1184  
                                 i2l3797 11F8                                   i2l3789 11C8  
                                 i2l3799 120C                    _INT1_INTERRUPTHANDLER 004E  
             ?_Interrupt_INTx_Clear_Flag 0060                     READ_DATA_EEPROM@data 0062  
               ??_INT1_INTERRUPT_HANDLER 0062         gpio_pin_toggle_logic@_pin_config 0060  
                 __end_of_Ecu_initialize 1C96                                   clear_0 1AF2  
                  led_initialize@pin_obj 006C                                   isa$std 0001  
          __end_of_Interrupt_INTx_Enable 1742                     WRITE_DATA_EEPROM@add 005A  
gpio_pin_direction_intialize@_pin_config 0060                             __pdataCOMRAM 0001  
                           __mediumconst 0000                                   tblptrh 0FF7  
                                 tblptrl 0FF6                                   tblptru 0FF8  
                _Interrupt_INTx_Edge_Src 14D8                               __accesstop 0080  
                __end_of__initialization 1AF8                                ?_INT0_ISR 005A  
                              ?_INT1_ISR 005A                                ?_INT2_ISR 005A  
               __end_of_READ_DATA_EEPROM 1C00                 _RB4_INTERRUPTHANDLERHIGH 004A  
                          ___rparam_used 0001        __end_of_Interrupt_INTx_Clear_Flag 188C  
               _RB7_INTERRUPTHANDLERHIGH 003E                        led_initialize@led 006A  
                        _led_turn_toggle 188C                  _Interrupt_INTx_Pin_Init 1BB6  
                 ??_gpio_pin_write_logic 0062                           __pcstackCOMRAM 005A  
                        ?_Ecu_initialize 005A                   ?_Set_Interrupt_Handler 0062  
                   __end_of_led_turn_off 17B0              __end_of_Interrupt_INTx_Init 1A0E  
                             ??_INT0_ISR 005E                               ??_INT1_ISR 005E  
                             ??_INT2_ISR 005E                   _application_initialize 1CE4  
                             __pnvCOMRAM 006F                  ??_gpio_pin_toggle_logic 0061  
                      led_turn_off@F3072 0056                  ?_INT0_INTERRUPT_HANDLER 0060  
                  _INT2_INTERRUPTHANDLER 004C                                  _RB4_ISR 1C60  
                                _RB5_ISR 1CCA                ??_Interrupt_INTx_Edge_Src 0061  
                                _RB6_ISR 1CB0                                  _RB7_ISR 1C96  
                          _keypad_values 0001                     led_turn_toggle@F3077 0055  
                                i2u60_40 1CAA                                  i2u60_41 1CA6  
                                i2u57_40 1C74                                  i2u57_41 1C70  
                                i2u58_40 1CDE                                  i2u58_41 1CDA  
                                i2u59_40 1CC4                                  i2u59_41 1CC0  
                       ??_led_initialize 006B                  ?_Interrupt_INTx_Disable 0060  
                __end_of_led_turn_toggle 18F6                           _tris_registers 0025  
              ??_Interrupt_INTx_Pin_Init 0068                                  __Hparam 0000  
                                __Lparam 0000           __end_of_INT0_INTERRUPT_HANDLER 1C60  
                    _gpio_pin_initialize 1A52                             __psmallconst 1000  
                                __pcinit 1ACC                                  __ramtop 1000  
                             _customChar 1031                                  __ptext0 1644  
                                __ptext1 188C                                  __ptext2 1960  
                                __ptext3 1742                                  __ptext4 1CE4  
                                __ptext5 1C7C                                  __ptext6 18F6  
                                __ptext7 1A52                                  __ptext8 13E8  
                                __ptext9 1BDE                   _INT1_INTERRUPT_HANDLER 1C20  
                                _counter 0059                     ?_gpio_pin_initialize 0068  
         __end_of_Interrupt_INTx_Disable 181E                           __pintcode_body 1040  
                   end_of_initialization 1AF8                    WRITE_DATA_EEPROM@data 005C  
                                int_func 1040              ??_Interrupt_INTx_Clear_Flag 0061  
                _RB5_INTERRUPTHANDLERLOW 0044                      led_turn_off@pin_obj 006A  
             Interrupt_INTx_Edge_Src@ret 0063                                  postdec1 0FE5  
                                postdec2 0FDD                                  postinc0 0FEE  
                                postinc2 0FDE                                _PORTBbits 0F81  
                       _InterruptMangaer 0008     __end_of_gpio_pin_direction_intialize 13E8  
           _gpio_pin_direction_intialize 12D6                    ??_gpio_pin_initialize 0069  
                       ?_led_turn_toggle 0065                 ??_INT2_INTERRUPT_HANDLER 0062  
                      ?_READ_DATA_EEPROM 0060                       ??_READ_DATA_EEPROM 0063  
                           _led_turn_off 1742                         ??_Ecu_initialize 006D  
                     relay_turn_on@F3060 0053  INT2_INTERRUPT_HANDLER@Interrupt_Handler 0060  
INT1_INTERRUPT_HANDLER@Interrupt_Handler 0060  INT0_INTERRUPT_HANDLER@Interrupt_Handler 0060  
                 Interrupt_INTx_Init@ret 006A                            __pidataCOMRAM 1A90  
                ??_Set_Interrupt_Handler 0063            Interrupt_INTx_Disable@int_obj 0060  
              _Interrupt_INTx_Clear_Flag 181E                    _Interrupt_INTx_Enable 16C6  
                    start_initialization 1ACC                   led_turn_toggle@pin_obj 0067  
                            __end_of_isr 1BB6            ?_gpio_pin_direction_intialize 0060  
                ?_application_initialize 005A                          led_turn_off@led 0068  
               _RB6_INTERRUPTHANDLERHIGH 0042                      READ_DATA_EEPROM@add 0060  
          __end_of_gpio_pin_toggle_logic 19C2                                 ?_RB4_ISR 005A  
                               ?_RB5_ISR 005A                                 ?_RB6_ISR 005A  
                               ?_RB7_ISR 005A                              __pbssCOMRAM 003C  
                               RB4_ISR@n 005A                                 RB5_ISR@n 005A  
                               RB6_ISR@n 005A           __end_of_application_initialize 1CEC  
                               RB7_ISR@n 005A          gpio_pin_direction_intialize@ret 0066  
                              __pintcode 0008          gpio_pin_write_logic@_pin_config 0060  
                ?_INT1_INTERRUPT_HANDLER 0060                gpio_pin_write_logic@logic 0061  
                 ?_Interrupt_INTx_Enable 0060                              __smallconst 1000  
                    __end_of_customChar2 1031                      __end_of_customChar3 1029  
                    __end_of_customChar4 1021                      __end_of_customChar5 1019  
                    __end_of_customChar6 1011                      __end_of_customChar7 1009  
         ??_gpio_pin_direction_intialize 0061                                 _INT0_ISR 1B5E  
                               _INT1_ISR 1B30                                 _INT2_ISR 1B02  
               __end_of_InterruptMangaer 12D6                                 i2u210_40 1B72  
                               i2u210_41 1B6E                                 i2u211_48 1B78  
                               i2u212_40 1B44                                 i2u211_49 1B8A  
                               i2u212_41 1B40                                 i2u213_48 1B4A  
                               i2u214_40 1B16                                 i2u213_49 1B5C  
                               i2u214_41 1B12                                 i2u215_48 1B1C  
                               i2u215_49 1B2E                                 i2u260_40 1098  
                               i2u260_41 1094                                 i2u261_40 10A6  
                               i2u261_41 10A2                                 i2u174_40 1A44  
                               i2u270_40 1140                                 i2u262_40 10B8  
                               i2u174_41 1A40                                 i2u270_41 113C  
                               i2u262_41 10B4                                 i2u271_40 114E  
                               i2u263_40 10C6                                 i2u271_41 114A  
                               i2u263_41 10C2                                 i2u175_45 1A4E  
                               i2u175_46 1A50                                 i2u280_40 11E4  
                               i2u272_40 115C                                 i2u264_40 10D4  
                               i2u256_40 1058                                 i2u280_41 11E0  
                               i2u272_41 1158                                 i2u264_41 10D0  
                               i2u256_41 1054                                 i2u281_40 11F4  
                               i2u273_40 116C                                 i2u265_40 10E4  
                               i2u257_40 1066                                 i2u281_41 11F0  
                               i2u273_41 1168                                 i2u265_41 10E0  
                               i2u257_41 1062                                 i2u194_40 1B9C  
                               i2u290_40 1294                                 i2u282_40 120C  
                               i2u274_40 1184                                 i2u266_40 10FC  
                               i2u258_40 1078                                 i2u194_41 1B98  
                               i2u290_41 1290                                 i2u282_41 1208  
                               i2u274_41 1180                                 i2u266_41 10F8  
                               i2u258_41 1074                                 i2u291_40 12A2  
                               i2u283_40 121A                                 i2u275_40 1192  
                               i2u267_40 110A                                 i2u259_40 1086  
                               i2u291_41 129E                                 i2u283_41 1216  
                               i2u275_41 118E                                 i2u267_41 1106  
                               i2u259_41 1082                                 i2u292_40 12B0  
                               i2u284_40 1228                                 i2u276_40 11A0  
                               i2u268_40 1118                                 i2u292_41 12AC  
                               i2u284_41 1224                                 i2u276_41 119C  
                               i2u268_41 1114                                 i2u293_40 12C0  
                               i2u285_40 1238                                 i2u277_40 11B0  
                               i2u269_40 1128                                 i2u293_41 12BC  
                               i2u285_41 1234                                 i2u277_41 11AC  
                               i2u269_41 1124                                 i2u286_40 1250  
                               i2u278_40 11C8                                 i2u286_41 124C  
                               i2u278_41 11C4                                 i2u287_40 125E  
                               i2u279_40 11D6                                 i2u287_41 125A  
                               i2u279_41 11D2                                 i2u288_40 126C  
                               i2u288_41 1268                                 i2u289_40 127C  
                               i2u289_41 1278           Interrupt_INTx_Pin_Init@int_obj 0067  
         __end_of_INT1_INTERRUPT_HANDLER 1C40                 ?_Interrupt_INTx_Edge_Src 0060  
                 _INT2_INTERRUPT_HANDLER 1C00                   gpio_pin_initialize@ret 0069  
                gpio_pin_write_logic@ret 0067                              _INTCON2bits 0FF1  
                            _INTCON3bits 0FF0                                copy_data0 1AE0  
               ?_Interrupt_INTx_Pin_Init 0067                relay_initialization@F3055 0054  
               Set_Interrupt_Handler@ret 0065                               _EECON1bits 0FA6  
                               __Hrparam 0000                  _RB6_INTERRUPTHANDLERLOW 0040  
                WRITE_DATA_EEPROM@status 005D                                 __Lrparam 0000  
              Interrupt_INTx_Disable@ret 0063               Interrupt_INTx_Init@int_obj 0069  
            __end_of_gpio_pin_initialize 1A90           gpio_pin_initialize@_pin_config 0068  
          __end_of_Set_Interrupt_Handler 1644                              _customChar2 1029  
                            _customChar3 1021                              _customChar4 1019  
                            _customChar5 1011                              _customChar6 1009  
                            _customChar7 1001                                 __ptext10 19C2  
                               __ptext11 15A6                                 __ptext20 181E  
                               __ptext12 1C00                                 __ptext13 1C20  
                               __ptext30 1A0E                                 __ptext22 1C96  
                               __ptext14 1C40                                 __ptext23 1CB0  
                               __ptext15 1BB6                                 __ptext24 1CCA  
                               __ptext16 12D6                                 __ptext25 1C60  
                               __ptext17 16C6                                 __ptext26 1B02  
                               __ptext18 14D8                                 __ptext27 1B30  
                               __ptext19 17B0                                 __ptext28 1B5E  
                               __ptext29 1B8C         Interrupt_INTx_Clear_Flag@int_obj 0060  
                     led_turn_toggle@led 0065                 ??_INT0_INTERRUPT_HANDLER 0062  
                     __end_of_customChar 1039          __end_of_Interrupt_INTx_Edge_Src 15A6  
                               isa$xinst 0000                                 int$flags 0070  
               ??_Interrupt_INTx_Disable 0061                      _Interrupt_INTx_Init 19C2  
                             _INTCONbits 0FF2          __end_of_Interrupt_INTx_Pin_Init 1BDE  
           __end_of_gpio_pin_write_logic 14D8                                 intlevel2 0000  
                      _WRITE_DATA_EEPROM 1A0E             Interrupt_INTx_Clear_Flag@ret 0063  
                   ?_Interrupt_INTx_Init 0069                       ?_WRITE_DATA_EEPROM 005A  
               _RB5_INTERRUPTHANDLERHIGH 0046                      ??_WRITE_DATA_EEPROM 005D  
             Interrupt_INTx_Pin_Init@ret 0068                    _gpio_pin_toggle_logic 1960  
                ??_Interrupt_INTx_Enable 0061                           _port_registers 0011  
              __end_of_WRITE_DATA_EEPROM 1A52                    ??_Interrupt_INTx_Init 006A  
                      ?_InterruptMangaer 005A                           _led_initialize 18F6  
