

Microchip MPLAB XC8 Assembler V2.46 build 20240104201356 
                                                                                               Sun Jul 14 09:21:24 2024

Microchip MPLAB XC8 C Compiler v2.46 (Free license) build 20240104201356 Og1 
     1                           	processor	18F4620
     2                           	fnconf	rparam,??,?,0
     3                           	pagewidth 120
     4                           	opt	flic
     5                           	psect	idataCOMRAM,global,class=CODE,delta=1,noexec
     6                           	psect	smallconst,global,reloc=2,class=SMALLCONST,delta=1,noexec
     7                           	psect	nvCOMRAM,global,class=COMRAM,space=1,delta=1,lowdata,noexec
     8                           	psect	cinit,global,reloc=2,class=CODE,delta=1
     9                           	psect	bssCOMRAM,global,class=COMRAM,space=1,delta=1,lowdata,noexec
    10                           	psect	dataCOMRAM,global,class=COMRAM,space=1,delta=1,lowdata,noexec
    11                           	psect	cstackCOMRAM,global,class=COMRAM,space=1,delta=1,lowdata,noexec
    12                           	psect	text0,global,reloc=2,class=CODE,delta=1
    13                           	psect	text1,global,reloc=2,class=CODE,delta=1
    14                           	psect	text2,global,reloc=2,class=CODE,delta=1
    15                           	psect	text3,global,reloc=2,class=CODE,delta=1
    16                           	psect	text4,global,reloc=2,class=CODE,delta=1
    17                           	psect	text5,global,reloc=2,class=CODE,delta=1
    18                           	psect	text6,global,reloc=2,class=CODE,delta=1
    19                           	psect	text7,global,reloc=2,class=CODE,delta=1
    20                           	psect	text8,global,reloc=2,class=CODE,delta=1
    21                           	psect	text9,global,reloc=2,class=CODE,delta=1
    22                           	psect	text10,global,reloc=2,class=CODE,delta=1
    23                           	psect	text11,global,reloc=2,class=CODE,delta=1
    24                           	psect	text12,global,reloc=2,class=CODE,delta=1
    25                           	psect	text13,global,reloc=2,class=CODE,delta=1
    26                           	psect	text14,global,reloc=2,class=CODE,delta=1
    27                           	psect	text15,global,reloc=2,class=CODE,delta=1
    28                           	psect	text16,global,reloc=2,class=CODE,delta=1
    29                           	psect	intcode,global,reloc=2,class=CODE,delta=1
    30                           	psect	intcode_body,global,reloc=2,class=CODE,delta=1
    31                           	psect	text18,global,reloc=2,class=CODE,delta=1
    32                           	psect	text19,global,reloc=2,class=CODE,delta=1
    33                           	psect	text20,global,reloc=2,class=CODE,delta=1
    34                           	psect	text21,global,reloc=2,class=CODE,delta=1
    35                           	psect	text22,global,reloc=2,class=CODE,delta=1
    36                           	psect	text23,global,reloc=2,class=CODE,delta=1
    37                           	psect	text24,global,reloc=2,class=CODE,delta=1
    38                           	psect	text25,global,reloc=2,class=CODE,delta=1
    39                           	psect	intsave_regs,global,class=BIGRAM,space=1,delta=1,noexec
    40                           	psect	rparam,global,class=COMRAM,space=1,delta=1,noexec
    41                           	psect	temp,global,ovrld,common,class=COMRAM,space=1,delta=1,lowdata
    42                           	psect	config,global,abs,ovrld,class=CONFIG,space=4,delta=1,noexec
    43   000000                     
    44                           ; Generated 17/10/2023 GMT
    45                           ; 
    46                           ; Copyright © 2023, Microchip Technology Inc. and its subsidiaries ("Microchip")
    47                           ; All rights reserved.
    48                           ; 
    49                           ; This software is developed by Microchip Technology Inc. and its subsidiaries ("Microch
      +                          ip").
    50                           ; 
    51                           ; Redistribution and use in source and binary forms, with or without modification, are
    52                           ; permitted provided that the following conditions are met:
    53                           ; 
    54                           ;     1. Redistributions of source code must retain the above copyright notice, this lis
      +                          t of
    55                           ;        conditions and the following disclaimer.
    56                           ; 
    57                           ;     2. Redistributions in binary form must reproduce the above copyright notice, this 
      +                          list
    58                           ;        of conditions and the following disclaimer in the documentation and/or other
    59                           ;        materials provided with the distribution. Publication is not required when
    60                           ;        this file is used in an embedded application.
    61                           ; 
    62                           ;     3. Microchip's name may not be used to endorse or promote products derived from th
      +                          is
    63                           ;        software without specific prior written permission.
    64                           ; 
    65                           ; THIS SOFTWARE IS PROVIDED BY MICROCHIP "AS IS" AND ANY EXPRESS OR IMPLIED WARRANTIES,
    66                           ; INCLUDING, BUT NOT LIMITED TO, THE IMPLIED WARRANTIES OF MERCHANTABILITY AND FITNESS F
      +                          OR
    67                           ; PURPOSE ARE DISCLAIMED.  IN NO EVENT SHALL MICROCHIP BE LIABLE FOR ANY DIRECT, INDIREC
      +                          T,
    68                           ; INCIDENTAL, SPECIAL, EXEMPLARY, OR CONSEQUENTIAL DAMAGES (INCLUDING BUT NOT LIMITED TO
    69                           ; PROCUREMENT OF SUBSTITUTE GOODS OR SERVICES; LOSS OF USE, DATA OR PROFITS; OR BUSINESS
    70                           ; INTERRUPTION) HOWSOEVER CAUSED AND ON ANY THEORY OF LIABILITY, WHETHER IN CONTRACT, ST
      +                          RICT
    71                           ; LIABILITY, OR TORT (INCLUDING NEGLIGENCE OR OTHERWISE) ARISING IN ANY WAY OUT OF THE U
      +                          SE OF
    72                           ; THIS SOFTWARE, EVEN IF ADVISED OF THE POSSIBILITY OF SUCH DAMAGE.
    73                           ; 
    74                           ; 
    75                           ; Code-generator required, PIC18F4620 Definitions
    76                           ; 
    77                           ; SFR Addresses
    78   000000                     
    79                           	psect	idataCOMRAM
    80   00171C                     __pidataCOMRAM:
    81                           	callstack 0
    82                           
    83                           ;initializer for _keypad_values
    84   00171C  37                 	db	55
    85   00171D  38                 	db	56
    86   00171E  39                 	db	57
    87   00171F  2F                 	db	47
    88   001720  34                 	db	52
    89   001721  35                 	db	53
    90   001722  36                 	db	54
    91   001723  2A                 	db	42
    92   001724  31                 	db	49
    93   001725  32                 	db	50
    94   001726  33                 	db	51
    95   001727  2D                 	db	45
    96   001728  23                 	db	35
    97   001729  30                 	db	48
    98   00172A  3D                 	db	61
    99   00172B  2B                 	db	43
   100                           
   101                           ;initializer for _port_registers
   102   00172C  80                 	db	128
   103   00172D  0F                 	db	15
   104   00172E  81                 	db	129
   105   00172F  0F                 	db	15
   106   001730  82                 	db	130
   107   001731  0F                 	db	15
   108   001732  83                 	db	131
   109   001733  0F                 	db	15
   110   001734  84                 	db	132
   111   001735  0F                 	db	15
   112                           
   113                           ;initializer for _lat_registers
   114   001736  89                 	db	137
   115   001737  0F                 	db	15
   116   001738  8A                 	db	138
   117   001739  0F                 	db	15
   118   00173A  8B                 	db	139
   119   00173B  0F                 	db	15
   120   00173C  8C                 	db	140
   121   00173D  0F                 	db	15
   122   00173E  8D                 	db	141
   123   00173F  0F                 	db	15
   124                           
   125                           ;initializer for _tris_registers
   126   001740  92                 	db	146
   127   001741  0F                 	db	15
   128   001742  93                 	db	147
   129   001743  0F                 	db	15
   130   001744  94                 	db	148
   131   001745  0F                 	db	15
   132   001746  95                 	db	149
   133   001747  0F                 	db	15
   134   001748  96                 	db	150
   135   001749  0F                 	db	15
   136                           
   137                           ;initializer for _int2
   138   00174A  38                 	db	low _int2_isr
   139   00174B  19                 	db	high _int2_isr
   140   00174C  11                 	db	17
   141   00174D  02                 	db	2
   142   00174E  01                 	db	1
   143   00174F  01                 	db	1
   144                           
   145                           ;initializer for _int1
   146   001750  24                 	db	low _int1_isr
   147   001751  19                 	db	high _int1_isr
   148   001752  89                 	db	137
   149   001753  01                 	db	1
   150   001754  00                 	db	0
   151   001755  01                 	db	1
   152                           
   153                           ;initializer for _int0
   154   001756  2E                 	db	low _int0_isr
   155   001757  19                 	db	high _int0_isr
   156   001758  01                 	db	1
   157   001759  00                 	db	0
   158   00175A  01                 	db	1
   159   00175B  01                 	db	1
   160                           
   161                           ;initializer for _led3
   162   00175C  12                 	db	18
   163                           
   164                           ;initializer for _led2
   165   00175D  0A                 	db	10
   166                           
   167                           ;initializer for _led1
   168   00175E  02                 	db	2
   169                           
   170                           	psect	smallconst
   171   001000                     __psmallconst:
   172                           	callstack 0
   173   001000  00                 	db	0
   174   001001                     _customChar7:
   175                           	callstack 0
   176   001001  04                 	db	4
   177   001002  0A                 	db	10
   178   001003  04                 	db	4
   179   001004  04                 	db	4
   180   001005  04                 	db	4
   181   001006  0E                 	db	14
   182   001007  15                 	db	21
   183   001008  0E                 	db	14
   184   001009                     __end_of_customChar7:
   185                           	callstack 0
   186   001009                     _customChar6:
   187                           	callstack 0
   188   001009  0E                 	db	14
   189   00100A  0E                 	db	14
   190   00100B  1F                 	db	31
   191   00100C  1F                 	db	31
   192   00100D  1F                 	db	31
   193   00100E  1F                 	db	31
   194   00100F  1F                 	db	31
   195   001010  00                 	db	0
   196   001011                     __end_of_customChar6:
   197                           	callstack 0
   198   001011                     _customChar5:
   199                           	callstack 0
   200   001011  0E                 	db	14
   201   001012  0A                 	db	10
   202   001013  1F                 	db	31
   203   001014  1F                 	db	31
   204   001015  1F                 	db	31
   205   001016  1F                 	db	31
   206   001017  1F                 	db	31
   207   001018  00                 	db	0
   208   001019                     __end_of_customChar5:
   209                           	callstack 0
   210   001019                     _customChar4:
   211                           	callstack 0
   212   001019  0E                 	db	14
   213   00101A  0A                 	db	10
   214   00101B  11                 	db	17
   215   00101C  1F                 	db	31
   216   00101D  1F                 	db	31
   217   00101E  1F                 	db	31
   218   00101F  1F                 	db	31
   219   001020  00                 	db	0
   220   001021                     __end_of_customChar4:
   221                           	callstack 0
   222   001021                     _customChar3:
   223                           	callstack 0
   224   001021  0E                 	db	14
   225   001022  0A                 	db	10
   226   001023  11                 	db	17
   227   001024  11                 	db	17
   228   001025  1F                 	db	31
   229   001026  1F                 	db	31
   230   001027  1F                 	db	31
   231   001028  00                 	db	0
   232   001029                     __end_of_customChar3:
   233                           	callstack 0
   234   001029                     _customChar2:
   235                           	callstack 0
   236   001029  0E                 	db	14
   237   00102A  0A                 	db	10
   238   00102B  11                 	db	17
   239   00102C  11                 	db	17
   240   00102D  11                 	db	17
   241   00102E  1F                 	db	31
   242   00102F  1F                 	db	31
   243   001030  00                 	db	0
   244   001031                     __end_of_customChar2:
   245                           	callstack 0
   246   001031                     _customChar:
   247                           	callstack 0
   248   001031  0E                 	db	14
   249   001032  0A                 	db	10
   250   001033  11                 	db	17
   251   001034  11                 	db	17
   252   001035  11                 	db	17
   253   001036  11                 	db	17
   254   001037  1F                 	db	31
   255   001038  00                 	db	0
   256   001039                     __end_of_customChar:
   257                           	callstack 0
   258   000000                     _INTCON2bits	set	4081
   259   001039                     STR_2:
   260   001039  25                 	db	37
   261   00103A  69                 	db	105	;'i'
   262   00103B  00                 	db	0
   263   00103C  25                 	db	37
   264   00103D  75                 	db	117	;'u'
   265   00103E  00                 	db	0
   266   00103F  00                 	db	0	; dummy byte at the end
   267   000000                     
   268                           	psect	nvCOMRAM
   269   00006C                     __pnvCOMRAM:
   270                           	callstack 0
   271   00006C                     _ret:
   272                           	callstack 0
   273   00006C                     	ds	1
   274   000000                     _PORTE	set	3972
   275   000000                     _PORTD	set	3971
   276   000000                     _PORTC	set	3970
   277   000000                     _PORTB	set	3969
   278   000000                     _PORTA	set	3968
   279   000000                     _LATA	set	3977
   280   000000                     _TRISA	set	3986
   281   000000                     _INTCON3bits	set	4080
   282   000000                     _INTCONbits	set	4082
   283   000000                     _TRISE	set	3990
   284   000000                     _TRISD	set	3989
   285   000000                     _TRISC	set	3988
   286   000000                     _TRISB	set	3987
   287   000000                     _LATE	set	3981
   288   000000                     _LATD	set	3980
   289   000000                     _LATC	set	3979
   290   000000                     _LATB	set	3978
   291                           
   292                           ; #config settings
   293                           
   294                           	psect	cinit
   295   00179E                     __pcinit:
   296                           	callstack 0
   297   00179E                     start_initialization:
   298                           	callstack 0
   299   00179E                     __initialization:
   300                           	callstack 0
   301                           
   302                           ; Initialize objects allocated to COMRAM (67 bytes)
   303                           ; load TBLPTR registers with __pidataCOMRAM
   304   00179E  0E1C               	movlw	low __pidataCOMRAM
   305   0017A0  6EF6               	movwf	tblptrl,c
   306   0017A2  0E17               	movlw	high __pidataCOMRAM
   307   0017A4  6EF7               	movwf	tblptrh,c
   308   0017A6  0E00               	movlw	low (__pidataCOMRAM shr (0+16))
   309   0017A8  6EF8               	movwf	tblptru,c
   310   0017AA  EE00  F001         	lfsr	0,__pdataCOMRAM
   311   0017AE  EE10 F043          	lfsr	1,67
   312   0017B2                     copy_data0:
   313   0017B2  0009               	tblrd		*+
   314   0017B4  CFF5 FFEE          	movff	tablat,postinc0
   315   0017B8  50E5               	movf	postdec1,w,c
   316   0017BA  50E1               	movf	fsr1l,w,c
   317   0017BC  E1FA               	bnz	copy_data0
   318                           
   319                           ; Clear objects allocated to COMRAM (13 bytes)
   320   0017BE  EE00  F05F         	lfsr	0,__pbssCOMRAM
   321   0017C2  0E0D               	movlw	13
   322   0017C4                     clear_0:
   323   0017C4  6AEE               	clrf	postinc0,c
   324   0017C6  06E8               	decf	wreg,f,c
   325   0017C8  E1FD               	bnz	clear_0
   326   0017CA                     end_of_initialization:
   327                           	callstack 0
   328   0017CA                     __end_of__initialization:
   329                           	callstack 0
   330   0017CA  906D               	bcf	int$flags,0,c	;clear compiler interrupt flag (level 1)
   331   0017CC  926D               	bcf	int$flags,1,c	;clear compiler interrupt flag (level 2)
   332   0017CE  0100               	movlb	0
   333   0017D0  EF43  F00C         	goto	_main	;jump to C main() function
   334                           
   335                           	psect	bssCOMRAM
   336   00005F                     __pbssCOMRAM:
   337                           	callstack 0
   338   00005F                     _INT2_INTERRUPTHANDLER:
   339                           	callstack 0
   340   00005F                     	ds	2
   341   000061                     _INT1_INTERRUPTHANDLER:
   342                           	callstack 0
   343   000061                     	ds	2
   344   000063                     _INT0_INTERRUPTHANDLER:
   345                           	callstack 0
   346   000063                     	ds	2
   347   000065                     relay_turn_off@F3065:
   348                           	callstack 0
   349   000065                     	ds	1
   350   000066                     relay_turn_on@F3060:
   351                           	callstack 0
   352   000066                     	ds	1
   353   000067                     relay_initialization@F3055:
   354                           	callstack 0
   355   000067                     	ds	1
   356   000068                     led_turn_toggle@F3077:
   357                           	callstack 0
   358   000068                     	ds	1
   359   000069                     led_turn_off@F3072:
   360                           	callstack 0
   361   000069                     	ds	1
   362   00006A                     led_turn_on@F3067:
   363                           	callstack 0
   364   00006A                     	ds	1
   365   00006B                     led_initialize@F3062:
   366                           	callstack 0
   367   00006B                     	ds	1
   368                           
   369                           	psect	dataCOMRAM
   370   000001                     __pdataCOMRAM:
   371                           	callstack 0
   372   000001                     _keypad_values:
   373                           	callstack 0
   374   000001                     	ds	16
   375   000011                     _port_registers:
   376                           	callstack 0
   377   000011                     	ds	10
   378   00001B                     _lat_registers:
   379                           	callstack 0
   380   00001B                     	ds	10
   381   000025                     _tris_registers:
   382                           	callstack 0
   383   000025                     	ds	10
   384   00002F                     _int2:
   385                           	callstack 0
   386   00002F                     	ds	6
   387   000035                     _int1:
   388                           	callstack 0
   389   000035                     	ds	6
   390   00003B                     _int0:
   391                           	callstack 0
   392   00003B                     	ds	6
   393   000041                     _led3:
   394                           	callstack 0
   395   000041                     	ds	1
   396   000042                     _led2:
   397                           	callstack 0
   398   000042                     	ds	1
   399   000043                     _led1:
   400                           	callstack 0
   401   000043                     	ds	1
   402                           
   403                           	psect	cstackCOMRAM
   404   000044                     __pcstackCOMRAM:
   405                           	callstack 0
   406   000044                     gpio_pin_toggle_logic@_pin_config:
   407                           	callstack 0
   408                           
   409                           ; 1 bytes @ 0x0
   410   000044                     	ds	1
   411   000045                     ??_gpio_pin_toggle_logic:
   412                           
   413                           ; 1 bytes @ 0x1
   414   000045                     	ds	4
   415   000049                     led_turn_toggle@led:
   416                           	callstack 0
   417                           
   418                           ; 1 bytes @ 0x5
   419   000049                     	ds	1
   420   00004A                     ??_led_turn_toggle:
   421                           
   422                           ; 1 bytes @ 0x6
   423   00004A                     	ds	1
   424   00004B                     led_turn_toggle@pin_obj:
   425                           	callstack 0
   426                           
   427                           ; 1 bytes @ 0x7
   428   00004B                     	ds	1
   429   00004C                     ??_InterruptMangaer:
   430                           
   431                           ; 1 bytes @ 0x8
   432   00004C                     	ds	6
   433   000052                     gpio_pin_direction_intialize@_pin_config:
   434                           	callstack 0
   435   000052                     gpio_pin_write_logic@_pin_config:
   436                           	callstack 0
   437   000052                     Interrupt_INTx_Enable@int_obj:
   438                           	callstack 0
   439   000052                     Interrupt_INTx_Disable@int_obj:
   440                           	callstack 0
   441   000052                     Interrupt_INTx_Clear_Flag@int_obj:
   442                           	callstack 0
   443   000052                     Interrupt_INTx_Edge_Src@int_obj:
   444                           	callstack 0
   445   000052                     INT0_INTERRUPT_HANDLER@Interrupt_Handler:
   446                           	callstack 0
   447   000052                     INT1_INTERRUPT_HANDLER@Interrupt_Handler:
   448                           	callstack 0
   449   000052                     INT2_INTERRUPT_HANDLER@Interrupt_Handler:
   450                           	callstack 0
   451                           
   452                           ; 2 bytes @ 0xE
   453   000052                     	ds	1
   454   000053                     ??_gpio_pin_direction_intialize:
   455   000053                     ??_Interrupt_INTx_Disable:
   456   000053                     ??_Interrupt_INTx_Clear_Flag:
   457   000053                     ??_Interrupt_INTx_Edge_Src:
   458   000053                     ??_Interrupt_INTx_Enable:
   459   000053                     gpio_pin_write_logic@logic:
   460                           	callstack 0
   461                           
   462                           ; 1 bytes @ 0xF
   463   000053                     	ds	1
   464   000054                     ??_gpio_pin_write_logic:
   465   000054                     Set_Interrupt_Handler@int_obj:
   466                           	callstack 0
   467                           
   468                           ; 1 bytes @ 0x10
   469   000054                     	ds	1
   470   000055                     ??_Set_Interrupt_Handler:
   471   000055                     Interrupt_INTx_Enable@ret:
   472                           	callstack 0
   473   000055                     Interrupt_INTx_Disable@ret:
   474                           	callstack 0
   475   000055                     Interrupt_INTx_Clear_Flag@ret:
   476                           	callstack 0
   477   000055                     Interrupt_INTx_Edge_Src@ret:
   478                           	callstack 0
   479                           
   480                           ; 1 bytes @ 0x11
   481   000055                     	ds	2
   482   000057                     Set_Interrupt_Handler@ret:
   483                           	callstack 0
   484                           
   485                           ; 1 bytes @ 0x13
   486   000057                     	ds	1
   487   000058                     gpio_pin_direction_intialize@ret:
   488                           	callstack 0
   489                           
   490                           ; 1 bytes @ 0x14
   491   000058                     	ds	1
   492   000059                     gpio_pin_write_logic@ret:
   493                           	callstack 0
   494   000059                     Interrupt_INTx_Pin_Init@int_obj:
   495                           	callstack 0
   496                           
   497                           ; 1 bytes @ 0x15
   498   000059                     	ds	1
   499   00005A                     gpio_pin_initialize@_pin_config:
   500                           	callstack 0
   501   00005A                     Interrupt_INTx_Pin_Init@ret:
   502                           	callstack 0
   503                           
   504                           ; 1 bytes @ 0x16
   505   00005A                     	ds	1
   506   00005B                     gpio_pin_initialize@ret:
   507                           	callstack 0
   508   00005B                     Interrupt_INTx_Init@int_obj:
   509                           	callstack 0
   510                           
   511                           ; 1 bytes @ 0x17
   512   00005B                     	ds	1
   513   00005C                     led_initialize@led:
   514                           	callstack 0
   515   00005C                     Interrupt_INTx_Init@ret:
   516                           	callstack 0
   517                           
   518                           ; 1 bytes @ 0x18
   519   00005C                     	ds	1
   520   00005D                     ??_led_initialize:
   521                           
   522                           ; 1 bytes @ 0x19
   523   00005D                     	ds	1
   524   00005E                     led_initialize@pin_obj:
   525                           	callstack 0
   526                           
   527                           ; 1 bytes @ 0x1A
   528   00005E                     	ds	1
   529   00005F                     
   530                           ; 1 bytes @ 0x1B
   531 ;;
   532 ;;Main: autosize = 0, tempsize = 0, incstack = 0, save=0
   533 ;;
   534 ;; *************** function _main *****************
   535 ;; Defined at:
   536 ;;		line 26 in file "application.c"
   537 ;; Parameters:    Size  Location     Type
   538 ;;		None
   539 ;; Auto vars:     Size  Location     Type
   540 ;;		None
   541 ;; Return value:  Size  Location     Type
   542 ;;                  2  622[None  ] int 
   543 ;; Registers used:
   544 ;;		wreg, fsr2l, fsr2h, status,2, status,0, prodl, prodh, cstack
   545 ;; Tracked objects:
   546 ;;		On entry : 0/0
   547 ;;		On exit  : 0/0
   548 ;;		Unchanged: 0/0
   549 ;; Data sizes:     COMRAM   BANK0   BANK1   BANK2   BANK3   BANK4   BANK5   BANK6   BANK7   BANK8   BANK9  BANK10  BANK1
      +1  BANK12  BANK13  BANK14  BANK15
   550 ;;      Params:         0       0       0       0       0       0       0       0       0       0       0       0       
      +0       0       0       0       0
   551 ;;      Locals:         0       0       0       0       0       0       0       0       0       0       0       0       
      +0       0       0       0       0
   552 ;;      Temps:          0       0       0       0       0       0       0       0       0       0       0       0       
      +0       0       0       0       0
   553 ;;      Totals:         0       0       0       0       0       0       0       0       0       0       0       0       
      +0       0       0       0       0
   554 ;;Total ram usage:        0 bytes
   555 ;; Hardware stack levels required when called: 10
   556 ;; This function calls:
   557 ;;		_Interrupt_INTx_Init
   558 ;;		_application_initialize
   559 ;; This function is called by:
   560 ;;		Startup code after reset
   561 ;; This function uses a non-reentrant model
   562 ;;
   563                           
   564                           	psect	text0
   565   001886                     __ptext0:
   566                           	callstack 0
   567   001886                     _main:
   568                           	callstack 21
   569   001886                     
   570                           ;application.c: 28:     application_initialize();
   571   001886  ECA1  F00C         	call	_application_initialize	;wreg free
   572                           
   573                           ;application.c: 29:     Interrupt_INTx_Init(&int0);
   574   00188A  0E3B               	movlw	low _int0
   575   00188C  6E5B               	movwf	Interrupt_INTx_Init@int_obj^0,c
   576   00188E  EC68  F00B         	call	_Interrupt_INTx_Init	;wreg free
   577                           
   578                           ;application.c: 30:     Interrupt_INTx_Init(&int1);
   579   001892  0E35               	movlw	low _int1
   580   001894  6E5B               	movwf	Interrupt_INTx_Init@int_obj^0,c
   581   001896  EC68  F00B         	call	_Interrupt_INTx_Init	;wreg free
   582                           
   583                           ;application.c: 31:     Interrupt_INTx_Init(&int2);
   584   00189A  0E2F               	movlw	low _int2
   585   00189C  6E5B               	movwf	Interrupt_INTx_Init@int_obj^0,c
   586   00189E  EC68  F00B         	call	_Interrupt_INTx_Init	;wreg free
   587   0018A2                     l623:
   588   0018A2  EF51  F00C         	goto	l623
   589   0018A6  EF07  F000         	goto	start
   590   0018AA                     __end_of_main:
   591                           	callstack 0
   592                           
   593 ;; *************** function _application_initialize *****************
   594 ;; Defined at:
   595 ;;		line 41 in file "application.c"
   596 ;; Parameters:    Size  Location     Type
   597 ;;		None
   598 ;; Auto vars:     Size  Location     Type
   599 ;;		None
   600 ;; Return value:  Size  Location     Type
   601 ;;                  1    wreg      void 
   602 ;; Registers used:
   603 ;;		wreg, fsr2l, fsr2h, status,2, status,0, prodl, prodh, cstack
   604 ;; Tracked objects:
   605 ;;		On entry : 0/0
   606 ;;		On exit  : 0/0
   607 ;;		Unchanged: 0/0
   608 ;; Data sizes:     COMRAM   BANK0   BANK1   BANK2   BANK3   BANK4   BANK5   BANK6   BANK7   BANK8   BANK9  BANK10  BANK1
      +1  BANK12  BANK13  BANK14  BANK15
   609 ;;      Params:         0       0       0       0       0       0       0       0       0       0       0       0       
      +0       0       0       0       0
   610 ;;      Locals:         0       0       0       0       0       0       0       0       0       0       0       0       
      +0       0       0       0       0
   611 ;;      Temps:          0       0       0       0       0       0       0       0       0       0       0       0       
      +0       0       0       0       0
   612 ;;      Totals:         0       0       0       0       0       0       0       0       0       0       0       0       
      +0       0       0       0       0
   613 ;;Total ram usage:        0 bytes
   614 ;; Hardware stack levels used: 1
   615 ;; Hardware stack levels required when called: 9
   616 ;; This function calls:
   617 ;;		_Ecu_initialize
   618 ;; This function is called by:
   619 ;;		_main
   620 ;; This function uses a non-reentrant model
   621 ;;
   622                           
   623                           	psect	text1
   624   001942                     __ptext1:
   625                           	callstack 0
   626   001942                     _application_initialize:
   627                           	callstack 21
   628   001942                     
   629                           ;application.c: 42:     ret = Ecu_initialize();
   630   001942  EC85  F00C         	call	_Ecu_initialize	;wreg free
   631   001946  6E6C               	movwf	_ret^0,c
   632   001948  0012               	return		;funcret
   633   00194A                     __end_of_application_initialize:
   634                           	callstack 0
   635                           
   636 ;; *************** function _Ecu_initialize *****************
   637 ;; Defined at:
   638 ;;		line 42 in file "ECU_Layer/ECU_LAYER.c"
   639 ;; Parameters:    Size  Location     Type
   640 ;;		None
   641 ;; Auto vars:     Size  Location     Type
   642 ;;		None
   643 ;; Return value:  Size  Location     Type
   644 ;;                  1    wreg      unsigned char 
   645 ;; Registers used:
   646 ;;		wreg, fsr2l, fsr2h, status,2, status,0, prodl, prodh, cstack
   647 ;; Tracked objects:
   648 ;;		On entry : 0/0
   649 ;;		On exit  : 0/0
   650 ;;		Unchanged: 0/0
   651 ;; Data sizes:     COMRAM   BANK0   BANK1   BANK2   BANK3   BANK4   BANK5   BANK6   BANK7   BANK8   BANK9  BANK10  BANK1
      +1  BANK12  BANK13  BANK14  BANK15
   652 ;;      Params:         0       0       0       0       0       0       0       0       0       0       0       0       
      +0       0       0       0       0
   653 ;;      Locals:         0       0       0       0       0       0       0       0       0       0       0       0       
      +0       0       0       0       0
   654 ;;      Temps:          0       0       0       0       0       0       0       0       0       0       0       0       
      +0       0       0       0       0
   655 ;;      Totals:         0       0       0       0       0       0       0       0       0       0       0       0       
      +0       0       0       0       0
   656 ;;Total ram usage:        0 bytes
   657 ;; Hardware stack levels used: 1
   658 ;; Hardware stack levels required when called: 8
   659 ;; This function calls:
   660 ;;		_led_initialize
   661 ;; This function is called by:
   662 ;;		_application_initialize
   663 ;; This function uses a non-reentrant model
   664 ;;
   665                           
   666                           	psect	text2
   667   00190A                     __ptext2:
   668                           	callstack 0
   669   00190A                     _Ecu_initialize:
   670                           	callstack 21
   671   00190A                     
   672                           ;ECU_Layer/ECU_LAYER.c: 44:     led_initialize(&led1);
   673   00190A  0E43               	movlw	low _led1
   674   00190C  6E5C               	movwf	led_initialize@led^0,c
   675   00190E  ECCD  F00A         	call	_led_initialize	;wreg free
   676                           
   677                           ;ECU_Layer/ECU_LAYER.c: 45:     led_initialize(&led2);
   678   001912  0E42               	movlw	low _led2
   679   001914  6E5C               	movwf	led_initialize@led^0,c
   680   001916  ECCD  F00A         	call	_led_initialize	;wreg free
   681                           
   682                           ;ECU_Layer/ECU_LAYER.c: 46:     led_initialize(&led3);
   683   00191A  0E41               	movlw	low _led3
   684   00191C  6E5C               	movwf	led_initialize@led^0,c
   685   00191E  ECCD  F00A         	call	_led_initialize	;wreg free
   686   001922  0012               	return		;funcret
   687   001924                     __end_of_Ecu_initialize:
   688                           	callstack 0
   689                           
   690 ;; *************** function _led_initialize *****************
   691 ;; Defined at:
   692 ;;		line 13 in file "ECU_Layer/LED/ecu_led.c"
   693 ;; Parameters:    Size  Location     Type
   694 ;;  led             1   24[COMRAM] PTR const struct .
   695 ;;		 -> led3(1), led2(1), led1(1), 
   696 ;; Auto vars:     Size  Location     Type
   697 ;;  pin_obj         1   26[COMRAM] struct .
   698 ;;  ret             1    0        unsigned char 
   699 ;; Return value:  Size  Location     Type
   700 ;;                  1    wreg      unsigned char 
   701 ;; Registers used:
   702 ;;		wreg, fsr2l, fsr2h, status,2, status,0, prodl, prodh, cstack
   703 ;; Tracked objects:
   704 ;;		On entry : 0/0
   705 ;;		On exit  : 0/0
   706 ;;		Unchanged: 0/0
   707 ;; Data sizes:     COMRAM   BANK0   BANK1   BANK2   BANK3   BANK4   BANK5   BANK6   BANK7   BANK8   BANK9  BANK10  BANK1
      +1  BANK12  BANK13  BANK14  BANK15
   708 ;;      Params:         1       0       0       0       0       0       0       0       0       0       0       0       
      +0       0       0       0       0
   709 ;;      Locals:         1       0       0       0       0       0       0       0       0       0       0       0       
      +0       0       0       0       0
   710 ;;      Temps:          1       0       0       0       0       0       0       0       0       0       0       0       
      +0       0       0       0       0
   711 ;;      Totals:         3       0       0       0       0       0       0       0       0       0       0       0       
      +0       0       0       0       0
   712 ;;Total ram usage:        3 bytes
   713 ;; Hardware stack levels used: 1
   714 ;; Hardware stack levels required when called: 7
   715 ;; This function calls:
   716 ;;		_gpio_pin_initialize
   717 ;; This function is called by:
   718 ;;		_Ecu_initialize
   719 ;; This function uses a non-reentrant model
   720 ;;
   721                           
   722                           	psect	text3
   723   00159A                     __ptext3:
   724                           	callstack 0
   725   00159A                     _led_initialize:
   726                           	callstack 21
   727   00159A                     
   728                           ;ECU_Layer/LED/ecu_led.c: 15:     if(led == ((void*)0)){
   729   00159A  505C               	movf	led_initialize@led^0,w,c
   730   00159C  A4D8               	btfss	status,2,c
   731   00159E  EFD3  F00A         	goto	u1291
   732   0015A2  EFD5  F00A         	goto	u1290
   733   0015A6                     u1291:
   734   0015A6  EFD7  F00A         	goto	l245
   735   0015AA                     u1290:
   736   0015AA                     
   737                           ;ECU_Layer/LED/ecu_led.c: 17:     }
   738   0015AA  EF01  F00B         	goto	l249
   739   0015AE                     l245:
   740                           
   741                           ;ECU_Layer/LED/ecu_led.c: 19:         pin_config_t pin_obj = {.port = led->port_name, .p
      +                          in = led->pin_name,
   742   0015AE  C06B  F05E         	movff	led_initialize@F3062,led_initialize@pin_obj
   743   0015B2  505C               	movf	led_initialize@led^0,w,c
   744   0015B4  6ED9               	movwf	fsr2l,c
   745   0015B6  6ADA               	clrf	fsr2h,c
   746   0015B8  50DF               	movf	223,w,c
   747   0015BA  0B07               	andlw	7
   748   0015BC  6E5D               	movwf	??_led_initialize^0,c
   749   0015BE  505E               	movf	led_initialize@pin_obj^0,w,c
   750   0015C0  185D               	xorwf	??_led_initialize^0,w,c
   751   0015C2  0BF8               	andlw	-8
   752   0015C4  185D               	xorwf	??_led_initialize^0,w,c
   753   0015C6  6E5E               	movwf	led_initialize@pin_obj^0,c
   754   0015C8  505C               	movf	led_initialize@led^0,w,c
   755   0015CA  6ED9               	movwf	fsr2l,c
   756   0015CC  6ADA               	clrf	fsr2h,c
   757   0015CE  30DF               	rrcf	223,w,c
   758   0015D0  32E8               	rrcf	wreg,f,c
   759   0015D2  32E8               	rrcf	wreg,f,c
   760   0015D4  0B07               	andlw	7
   761   0015D6  6E5D               	movwf	??_led_initialize^0,c
   762   0015D8  465D               	rlncf	??_led_initialize^0,f,c
   763   0015DA  465D               	rlncf	??_led_initialize^0,f,c
   764   0015DC  465D               	rlncf	??_led_initialize^0,f,c
   765   0015DE  505E               	movf	led_initialize@pin_obj^0,w,c
   766   0015E0  185D               	xorwf	??_led_initialize^0,w,c
   767   0015E2  0BC7               	andlw	-57
   768   0015E4  185D               	xorwf	??_led_initialize^0,w,c
   769   0015E6  6E5E               	movwf	led_initialize@pin_obj^0,c
   770   0015E8  9C5E               	bcf	led_initialize@pin_obj^0,6,c
   771   0015EA  505C               	movf	led_initialize@led^0,w,c
   772   0015EC  6ED9               	movwf	fsr2l,c
   773   0015EE  6ADA               	clrf	fsr2h,c
   774   0015F0  ACDF               	btfss	indf2,6,c
   775   0015F2  D002               	bra	u1305
   776   0015F4  8E5E               	bsf	led_initialize@pin_obj^0,7,c
   777   0015F6  D001               	bra	u1307
   778   0015F8                     u1305:
   779   0015F8  9E5E               	bcf	led_initialize@pin_obj^0,7,c
   780   0015FA                     u1307:
   781   0015FA                     
   782                           ;ECU_Layer/LED/ecu_led.c: 21:         gpio_pin_initialize(&pin_obj);
   783   0015FA  0E5E               	movlw	low led_initialize@pin_obj
   784   0015FC  6E5A               	movwf	gpio_pin_initialize@_pin_config^0,c
   785   0015FE  ECB0  F00B         	call	_gpio_pin_initialize	;wreg free
   786   001602                     l249:
   787   001602  0012               	return		;funcret
   788   001604                     __end_of_led_initialize:
   789                           	callstack 0
   790                           
   791 ;; *************** function _gpio_pin_initialize *****************
   792 ;; Defined at:
   793 ;;		line 134 in file "MCAL_Layer/GPIO/hal_gpio.c"
   794 ;; Parameters:    Size  Location     Type
   795 ;;  _pin_config     1   22[COMRAM] PTR const struct .
   796 ;;		 -> relay_initialization@pin_obj(1), led_initialize@pin_obj(1), 
   797 ;; Auto vars:     Size  Location     Type
   798 ;;  ret             1   23[COMRAM] unsigned char 
   799 ;; Return value:  Size  Location     Type
   800 ;;                  1    wreg      unsigned char 
   801 ;; Registers used:
   802 ;;		wreg, fsr2l, fsr2h, status,2, status,0, prodl, prodh, cstack
   803 ;; Tracked objects:
   804 ;;		On entry : 0/0
   805 ;;		On exit  : 0/0
   806 ;;		Unchanged: 0/0
   807 ;; Data sizes:     COMRAM   BANK0   BANK1   BANK2   BANK3   BANK4   BANK5   BANK6   BANK7   BANK8   BANK9  BANK10  BANK1
      +1  BANK12  BANK13  BANK14  BANK15
   808 ;;      Params:         1       0       0       0       0       0       0       0       0       0       0       0       
      +0       0       0       0       0
   809 ;;      Locals:         1       0       0       0       0       0       0       0       0       0       0       0       
      +0       0       0       0       0
   810 ;;      Temps:          0       0       0       0       0       0       0       0       0       0       0       0       
      +0       0       0       0       0
   811 ;;      Totals:         2       0       0       0       0       0       0       0       0       0       0       0       
      +0       0       0       0       0
   812 ;;Total ram usage:        2 bytes
   813 ;; Hardware stack levels used: 1
   814 ;; Hardware stack levels required when called: 6
   815 ;; This function calls:
   816 ;;		_gpio_pin_direction_intialize
   817 ;;		_gpio_pin_write_logic
   818 ;; This function is called by:
   819 ;;		_led_initialize
   820 ;;		_sev_seg_initialize
   821 ;;		_keypad_initialize
   822 ;;		_lcd_8bit_initialize
   823 ;;		_lcd_4bit_initialize
   824 ;;		_motor_initialize
   825 ;;		_relay_initialization
   826 ;; This function uses a non-reentrant model
   827 ;;
   828                           
   829                           	psect	text4
   830   001760                     __ptext4:
   831                           	callstack 0
   832   001760                     _gpio_pin_initialize:
   833                           	callstack 21
   834   001760                     
   835                           ;MCAL_Layer/GPIO/hal_gpio.c: 135:     std_ReturnType ret = (std_ReturnType)0x01;
   836   001760  0E01               	movlw	1
   837   001762  6E5B               	movwf	gpio_pin_initialize@ret^0,c
   838                           
   839                           ;MCAL_Layer/GPIO/hal_gpio.c: 136:     if(((void*)0) == _pin_config ){
   840   001764  505A               	movf	gpio_pin_initialize@_pin_config^0,w,c
   841   001766  A4D8               	btfss	status,2,c
   842   001768  EFB8  F00B         	goto	u1261
   843   00176C  EFBA  F00B         	goto	u1260
   844   001770                     u1261:
   845   001770  EFBE  F00B         	goto	l2449
   846   001774                     u1260:
   847   001774                     
   848                           ;MCAL_Layer/GPIO/hal_gpio.c: 137:         ret = (std_ReturnType)0x00;
   849   001774  0E00               	movlw	0
   850   001776  6E5B               	movwf	gpio_pin_initialize@ret^0,c
   851                           
   852                           ;MCAL_Layer/GPIO/hal_gpio.c: 138:     }
   853   001778  EFCD  F00B         	goto	l2451
   854   00177C                     l2449:
   855                           
   856                           ;MCAL_Layer/GPIO/hal_gpio.c: 140:         gpio_pin_direction_intialize(_pin_config);
   857   00177C  C05A  F052         	movff	gpio_pin_initialize@_pin_config,gpio_pin_direction_intialize@_pin_config
   858   001780  EC20  F008         	call	_gpio_pin_direction_intialize	;wreg free
   859                           
   860                           ;MCAL_Layer/GPIO/hal_gpio.c: 141:         gpio_pin_write_logic(_pin_config,_pin_config->
      +                          logic);
   861   001784  C05A  F052         	movff	gpio_pin_initialize@_pin_config,gpio_pin_write_logic@_pin_config
   862   001788  505A               	movf	gpio_pin_initialize@_pin_config^0,w,c
   863   00178A  6ED9               	movwf	fsr2l,c
   864   00178C  6ADA               	clrf	fsr2h,c
   865   00178E  0E00               	movlw	0
   866   001790  BEDF               	btfsc	indf2,7,c
   867   001792  0E01               	movlw	1
   868   001794  6E53               	movwf	gpio_pin_write_logic@logic^0,c
   869   001796  ECA9  F008         	call	_gpio_pin_write_logic	;wreg free
   870   00179A                     l2451:
   871                           
   872                           ;MCAL_Layer/GPIO/hal_gpio.c: 143:     return ret;
   873   00179A  505B               	movf	gpio_pin_initialize@ret^0,w,c
   874   00179C  0012               	return		;funcret
   875   00179E                     __end_of_gpio_pin_initialize:
   876                           	callstack 0
   877                           
   878 ;; *************** function _gpio_pin_write_logic *****************
   879 ;; Defined at:
   880 ;;		line 68 in file "MCAL_Layer/GPIO/hal_gpio.c"
   881 ;; Parameters:    Size  Location     Type
   882 ;;  _pin_config     1   14[COMRAM] PTR const struct .
   883 ;;		 -> relay_turn_off@pin_obj(1), relay_turn_on@pin_obj(1), relay_initialization@pin_obj(1), led_turn_off@pin_obj(1), 
   884 ;;		 -> led_turn_on@pin_obj(1), led_initialize@pin_obj(1), 
   885 ;;  logic           1   15[COMRAM] enum E2981
   886 ;; Auto vars:     Size  Location     Type
   887 ;;  ret             1   21[COMRAM] unsigned char 
   888 ;; Return value:  Size  Location     Type
   889 ;;                  1    wreg      unsigned char 
   890 ;; Registers used:
   891 ;;		wreg, fsr2l, fsr2h, status,2, status,0, prodl, prodh
   892 ;; Tracked objects:
   893 ;;		On entry : 0/0
   894 ;;		On exit  : 0/0
   895 ;;		Unchanged: 0/0
   896 ;; Data sizes:     COMRAM   BANK0   BANK1   BANK2   BANK3   BANK4   BANK5   BANK6   BANK7   BANK8   BANK9  BANK10  BANK1
      +1  BANK12  BANK13  BANK14  BANK15
   897 ;;      Params:         2       0       0       0       0       0       0       0       0       0       0       0       
      +0       0       0       0       0
   898 ;;      Locals:         1       0       0       0       0       0       0       0       0       0       0       0       
      +0       0       0       0       0
   899 ;;      Temps:          5       0       0       0       0       0       0       0       0       0       0       0       
      +0       0       0       0       0
   900 ;;      Totals:         8       0       0       0       0       0       0       0       0       0       0       0       
      +0       0       0       0       0
   901 ;;Total ram usage:        8 bytes
   902 ;; Hardware stack levels used: 1
   903 ;; Hardware stack levels required when called: 5
   904 ;; This function calls:
   905 ;;		Nothing
   906 ;; This function is called by:
   907 ;;		_gpio_pin_initialize
   908 ;;		_sev_seg_write_number
   909 ;;		_keypad_read_value
   910 ;;		_lcd_8bit_send_command
   911 ;;		_lcd_8bit_send_char
   912 ;;		_lcd_4bit_send_command
   913 ;;		_lcd_4bit_send_char
   914 ;;		_lcd_send_8bits
   915 ;;		_lcd_send_4bits
   916 ;;		_enable_signal_8bits
   917 ;;		_enable_signal_4bits
   918 ;;		_led_turn_on
   919 ;;		_led_turn_off
   920 ;;		_motor_turn_right
   921 ;;		_motor_turn_left
   922 ;;		_motor_stop
   923 ;;		_relay_turn_on
   924 ;;		_relay_turn_off
   925 ;; This function uses a non-reentrant model
   926 ;;
   927                           
   928                           	psect	text5
   929   001152                     __ptext5:
   930                           	callstack 0
   931   001152                     _gpio_pin_write_logic:
   932                           	callstack 21
   933   001152                     
   934                           ;MCAL_Layer/GPIO/hal_gpio.c: 69:     std_ReturnType ret = (std_ReturnType)0x01;
   935   001152  0E01               	movlw	1
   936   001154  6E59               	movwf	gpio_pin_write_logic@ret^0,c
   937                           
   938                           ;MCAL_Layer/GPIO/hal_gpio.c: 70:     if(((void*)0) == _pin_config){
   939   001156  5052               	movf	gpio_pin_write_logic@_pin_config^0,w,c
   940   001158  A4D8               	btfss	status,2,c
   941   00115A  EFB1  F008         	goto	u1181
   942   00115E  EFB3  F008         	goto	u1180
   943   001162                     u1181:
   944   001162  EF0A  F009         	goto	l2417
   945   001166                     u1180:
   946   001166                     
   947                           ;MCAL_Layer/GPIO/hal_gpio.c: 71:         ret = (std_ReturnType)0x00;
   948   001166  0E00               	movlw	0
   949   001168  6E59               	movwf	gpio_pin_write_logic@ret^0,c
   950                           
   951                           ;MCAL_Layer/GPIO/hal_gpio.c: 72:     }
   952   00116A  EF1F  F009         	goto	l2419
   953   00116E                     l2411:
   954                           
   955                           ;MCAL_Layer/GPIO/hal_gpio.c: 76:                 (*lat_registers[_pin_config->port] &= ~
      +                          ((uint8)1<<_pin_config->pin));
   956   00116E  5052               	movf	gpio_pin_write_logic@_pin_config^0,w,c
   957   001170  6ED9               	movwf	fsr2l,c
   958   001172  6ADA               	clrf	fsr2h,c
   959   001174  30DF               	rrcf	223,w,c
   960   001176  32E8               	rrcf	wreg,f,c
   961   001178  32E8               	rrcf	wreg,f,c
   962   00117A  0B07               	andlw	7
   963   00117C  6E54               	movwf	??_gpio_pin_write_logic^0,c
   964   00117E  0E01               	movlw	1
   965   001180  6E55               	movwf	(??_gpio_pin_write_logic+1)^0,c
   966   001182  2A54               	incf	??_gpio_pin_write_logic^0,f,c
   967   001184  EFC6  F008         	goto	u1194
   968   001188                     u1195:
   969   001188  90D8               	bcf	status,0,c
   970   00118A  3655               	rlcf	(??_gpio_pin_write_logic+1)^0,f,c
   971   00118C                     u1194:
   972   00118C  2E54               	decfsz	??_gpio_pin_write_logic^0,f,c
   973   00118E  EFC4  F008         	goto	u1195
   974   001192  5055               	movf	(??_gpio_pin_write_logic+1)^0,w,c
   975   001194  0AFF               	xorlw	255
   976   001196  6E56               	movwf	(??_gpio_pin_write_logic+2)^0,c
   977   001198  5052               	movf	gpio_pin_write_logic@_pin_config^0,w,c
   978   00119A  6ED9               	movwf	fsr2l,c
   979   00119C  6ADA               	clrf	fsr2h,c
   980   00119E  50DF               	movf	223,w,c
   981   0011A0  0B07               	andlw	7
   982   0011A2  0D02               	mullw	2
   983   0011A4  50F3               	movf	243,w,c
   984   0011A6  0F1B               	addlw	low _lat_registers
   985   0011A8  6ED9               	movwf	fsr2l,c
   986   0011AA  6ADA               	clrf	fsr2h,c
   987   0011AC  CFDE F057          	movff	postinc2,??_gpio_pin_write_logic+3
   988   0011B0  CFDD F058          	movff	postdec2,??_gpio_pin_write_logic+4
   989   0011B4  C057  FFD9         	movff	??_gpio_pin_write_logic+3,fsr2l
   990   0011B8  C058  FFDA         	movff	??_gpio_pin_write_logic+4,fsr2h
   991   0011BC  5056               	movf	(??_gpio_pin_write_logic+2)^0,w,c
   992   0011BE  16DF               	andwf	indf2,f,c
   993                           
   994                           ;MCAL_Layer/GPIO/hal_gpio.c: 77:                 break;
   995   0011C0  EF1F  F009         	goto	l2419
   996   0011C4                     l2413:
   997                           
   998                           ;MCAL_Layer/GPIO/hal_gpio.c: 79:                 (*lat_registers[_pin_config->port] |= (
      +                          (uint8)1<<_pin_config->pin));
   999   0011C4  5052               	movf	gpio_pin_write_logic@_pin_config^0,w,c
  1000   0011C6  6ED9               	movwf	fsr2l,c
  1001   0011C8  6ADA               	clrf	fsr2h,c
  1002   0011CA  30DF               	rrcf	223,w,c
  1003   0011CC  32E8               	rrcf	wreg,f,c
  1004   0011CE  32E8               	rrcf	wreg,f,c
  1005   0011D0  0B07               	andlw	7
  1006   0011D2  6E54               	movwf	??_gpio_pin_write_logic^0,c
  1007   0011D4  0E01               	movlw	1
  1008   0011D6  6E55               	movwf	(??_gpio_pin_write_logic+1)^0,c
  1009   0011D8  2A54               	incf	??_gpio_pin_write_logic^0,f,c
  1010   0011DA  EFF1  F008         	goto	u1204
  1011   0011DE                     u1205:
  1012   0011DE  90D8               	bcf	status,0,c
  1013   0011E0  3655               	rlcf	(??_gpio_pin_write_logic+1)^0,f,c
  1014   0011E2                     u1204:
  1015   0011E2  2E54               	decfsz	??_gpio_pin_write_logic^0,f,c
  1016   0011E4  EFEF  F008         	goto	u1205
  1017   0011E8  5052               	movf	gpio_pin_write_logic@_pin_config^0,w,c
  1018   0011EA  6ED9               	movwf	fsr2l,c
  1019   0011EC  6ADA               	clrf	fsr2h,c
  1020   0011EE  50DF               	movf	223,w,c
  1021   0011F0  0B07               	andlw	7
  1022   0011F2  0D02               	mullw	2
  1023   0011F4  50F3               	movf	243,w,c
  1024   0011F6  0F1B               	addlw	low _lat_registers
  1025   0011F8  6ED9               	movwf	fsr2l,c
  1026   0011FA  6ADA               	clrf	fsr2h,c
  1027   0011FC  CFDE F056          	movff	postinc2,??_gpio_pin_write_logic+2
  1028   001200  CFDD F057          	movff	postdec2,??_gpio_pin_write_logic+3
  1029   001204  C056  FFD9         	movff	??_gpio_pin_write_logic+2,fsr2l
  1030   001208  C057  FFDA         	movff	??_gpio_pin_write_logic+3,fsr2h
  1031   00120C  5055               	movf	(??_gpio_pin_write_logic+1)^0,w,c
  1032   00120E  12DF               	iorwf	indf2,f,c
  1033                           
  1034                           ;MCAL_Layer/GPIO/hal_gpio.c: 80:                 break;
  1035   001210  EF1F  F009         	goto	l2419
  1036   001214                     l2417:
  1037   001214  5053               	movf	gpio_pin_write_logic@logic^0,w,c
  1038   001216  6E54               	movwf	??_gpio_pin_write_logic^0,c
  1039   001218  6A55               	clrf	(??_gpio_pin_write_logic+1)^0,c
  1040                           
  1041                           ; Switch on 2 bytes has been partitioned into a top level switch of size 1, and 1 sub-sw
      +                          itches
  1042                           ; Switch size 1, requested type "simple"
  1043                           ; Number of cases is 1, Range of values is 0 to 0
  1044                           ; switch strategies available:
  1045                           ; Name         Instructions Cycles
  1046                           ; simple_byte            4     3 (average)
  1047                           ;	Chosen strategy is simple_byte
  1048   00121A  5055               	movf	(??_gpio_pin_write_logic+1)^0,w,c
  1049   00121C  0A00               	xorlw	0	; case 0
  1050   00121E  B4D8               	btfsc	status,2,c
  1051   001220  EF14  F009         	goto	l3337
  1052   001224  EF1F  F009         	goto	l2419
  1053   001228                     l3337:
  1054                           
  1055                           ; Switch size 1, requested type "simple"
  1056                           ; Number of cases is 2, Range of values is 0 to 1
  1057                           ; switch strategies available:
  1058                           ; Name         Instructions Cycles
  1059                           ; simple_byte            7     4 (average)
  1060                           ;	Chosen strategy is simple_byte
  1061   001228  5054               	movf	??_gpio_pin_write_logic^0,w,c
  1062   00122A  0A00               	xorlw	0	; case 0
  1063   00122C  B4D8               	btfsc	status,2,c
  1064   00122E  EFB7  F008         	goto	l2411
  1065   001232  0A01               	xorlw	1	; case 1
  1066   001234  B4D8               	btfsc	status,2,c
  1067   001236  EFE2  F008         	goto	l2413
  1068   00123A  EF1F  F009         	goto	l2419
  1069   00123E                     l2419:
  1070                           
  1071                           ;MCAL_Layer/GPIO/hal_gpio.c: 86:     return ret;
  1072   00123E  5059               	movf	gpio_pin_write_logic@ret^0,w,c
  1073   001240  0012               	return		;funcret
  1074   001242                     __end_of_gpio_pin_write_logic:
  1075                           	callstack 0
  1076                           
  1077 ;; *************** function _Interrupt_INTx_Init *****************
  1078 ;; Defined at:
  1079 ;;		line 26 in file "MCAL_Layer/Interrupt/mcal_external_interrupt.c"
  1080 ;; Parameters:    Size  Location     Type
  1081 ;;  int_obj         1   23[COMRAM] PTR const struct .
  1082 ;;		 -> int2(6), int1(6), int0(6), 
  1083 ;; Auto vars:     Size  Location     Type
  1084 ;;  ret             1   24[COMRAM] unsigned char 
  1085 ;; Return value:  Size  Location     Type
  1086 ;;                  1    wreg      unsigned char 
  1087 ;; Registers used:
  1088 ;;		wreg, fsr2l, fsr2h, status,2, status,0, prodl, prodh, cstack
  1089 ;; Tracked objects:
  1090 ;;		On entry : 0/0
  1091 ;;		On exit  : 0/0
  1092 ;;		Unchanged: 0/0
  1093 ;; Data sizes:     COMRAM   BANK0   BANK1   BANK2   BANK3   BANK4   BANK5   BANK6   BANK7   BANK8   BANK9  BANK10  BANK1
      +1  BANK12  BANK13  BANK14  BANK15
  1094 ;;      Params:         1       0       0       0       0       0       0       0       0       0       0       0       
      +0       0       0       0       0
  1095 ;;      Locals:         1       0       0       0       0       0       0       0       0       0       0       0       
      +0       0       0       0       0
  1096 ;;      Temps:          0       0       0       0       0       0       0       0       0       0       0       0       
      +0       0       0       0       0
  1097 ;;      Totals:         2       0       0       0       0       0       0       0       0       0       0       0       
      +0       0       0       0       0
  1098 ;;Total ram usage:        2 bytes
  1099 ;; Hardware stack levels used: 1
  1100 ;; Hardware stack levels required when called: 7
  1101 ;; This function calls:
  1102 ;;		_Interrupt_INTx_Clear_Flag
  1103 ;;		_Interrupt_INTx_Disable
  1104 ;;		_Interrupt_INTx_Edge_Src
  1105 ;;		_Interrupt_INTx_Enable
  1106 ;;		_Interrupt_INTx_Pin_Init
  1107 ;;		_Set_Interrupt_Handler
  1108 ;; This function is called by:
  1109 ;;		_main
  1110 ;; This function uses a non-reentrant model
  1111 ;;
  1112                           
  1113                           	psect	text6
  1114   0016D0                     __ptext6:
  1115                           	callstack 0
  1116   0016D0                     _Interrupt_INTx_Init:
  1117                           	callstack 23
  1118   0016D0                     
  1119                           ;MCAL_Layer/Interrupt/mcal_external_interrupt.c: 28:     if(int_obj == ((void*)0)){
  1120   0016D0  505B               	movf	Interrupt_INTx_Init@int_obj^0,w,c
  1121   0016D2  A4D8               	btfss	status,2,c
  1122   0016D4  EF6E  F00B         	goto	u1621
  1123   0016D8  EF70  F00B         	goto	u1620
  1124   0016DC                     u1621:
  1125   0016DC  EF72  F00B         	goto	l2813
  1126   0016E0                     u1620:
  1127   0016E0                     
  1128                           ;MCAL_Layer/Interrupt/mcal_external_interrupt.c: 30:     }
  1129   0016E0  EF8D  F00B         	goto	l472
  1130   0016E4                     l2813:
  1131                           
  1132                           ;MCAL_Layer/Interrupt/mcal_external_interrupt.c: 32:         ret = Interrupt_INTx_Disabl
      +                          e(int_obj);
  1133   0016E4  C05B  F052         	movff	Interrupt_INTx_Init@int_obj,Interrupt_INTx_Disable@int_obj
  1134   0016E8  EC5F  F00A         	call	_Interrupt_INTx_Disable	;wreg free
  1135   0016EC  6E5C               	movwf	Interrupt_INTx_Init@ret^0,c
  1136                           
  1137                           ;MCAL_Layer/Interrupt/mcal_external_interrupt.c: 33:         ret = Interrupt_INTx_Clear_
      +                          Flag(int_obj);
  1138   0016EE  C05B  F052         	movff	Interrupt_INTx_Init@int_obj,Interrupt_INTx_Clear_Flag@int_obj
  1139   0016F2  EC96  F00A         	call	_Interrupt_INTx_Clear_Flag	;wreg free
  1140   0016F6  6E5C               	movwf	Interrupt_INTx_Init@ret^0,c
  1141                           
  1142                           ;MCAL_Layer/Interrupt/mcal_external_interrupt.c: 34:         ret = Interrupt_INTx_Edge_S
      +                          rc(int_obj);
  1143   0016F8  C05B  F052         	movff	Interrupt_INTx_Init@int_obj,Interrupt_INTx_Edge_Src@int_obj
  1144   0016FC  EC21  F009         	call	_Interrupt_INTx_Edge_Src	;wreg free
  1145   001700  6E5C               	movwf	Interrupt_INTx_Init@ret^0,c
  1146   001702  C05B  F059         	movff	Interrupt_INTx_Init@int_obj,Interrupt_INTx_Pin_Init@int_obj
  1147   001706  EC2F  F00C         	call	_Interrupt_INTx_Pin_Init	;wreg free
  1148   00170A  C05B  F054         	movff	Interrupt_INTx_Init@int_obj,Set_Interrupt_Handler@int_obj
  1149   00170E  EC88  F009         	call	_Set_Interrupt_Handler	;wreg free
  1150   001712  C05B  F052         	movff	Interrupt_INTx_Init@int_obj,Interrupt_INTx_Enable@int_obj
  1151   001716  EC22  F00A         	call	_Interrupt_INTx_Enable	;wreg free
  1152   00171A                     l472:
  1153   00171A  0012               	return		;funcret
  1154   00171C                     __end_of_Interrupt_INTx_Init:
  1155                           	callstack 0
  1156                           
  1157 ;; *************** function _Set_Interrupt_Handler *****************
  1158 ;; Defined at:
  1159 ;;		line 243 in file "MCAL_Layer/Interrupt/mcal_external_interrupt.c"
  1160 ;; Parameters:    Size  Location     Type
  1161 ;;  int_obj         1   16[COMRAM] PTR const struct .
  1162 ;;		 -> int2(6), int1(6), int0(6), 
  1163 ;; Auto vars:     Size  Location     Type
  1164 ;;  ret             1   19[COMRAM] unsigned char 
  1165 ;; Return value:  Size  Location     Type
  1166 ;;                  1    wreg      unsigned char 
  1167 ;; Registers used:
  1168 ;;		wreg, fsr2l, fsr2h, status,2, status,0, cstack
  1169 ;; Tracked objects:
  1170 ;;		On entry : 0/0
  1171 ;;		On exit  : 0/0
  1172 ;;		Unchanged: 0/0
  1173 ;; Data sizes:     COMRAM   BANK0   BANK1   BANK2   BANK3   BANK4   BANK5   BANK6   BANK7   BANK8   BANK9  BANK10  BANK1
      +1  BANK12  BANK13  BANK14  BANK15
  1174 ;;      Params:         1       0       0       0       0       0       0       0       0       0       0       0       
      +0       0       0       0       0
  1175 ;;      Locals:         1       0       0       0       0       0       0       0       0       0       0       0       
      +0       0       0       0       0
  1176 ;;      Temps:          2       0       0       0       0       0       0       0       0       0       0       0       
      +0       0       0       0       0
  1177 ;;      Totals:         4       0       0       0       0       0       0       0       0       0       0       0       
      +0       0       0       0       0
  1178 ;;Total ram usage:        4 bytes
  1179 ;; Hardware stack levels used: 1
  1180 ;; Hardware stack levels required when called: 6
  1181 ;; This function calls:
  1182 ;;		_INT0_INTERRUPT_HANDLER
  1183 ;;		_INT1_INTERRUPT_HANDLER
  1184 ;;		_INT2_INTERRUPT_HANDLER
  1185 ;; This function is called by:
  1186 ;;		_Interrupt_INTx_Init
  1187 ;; This function uses a non-reentrant model
  1188 ;;
  1189                           
  1190                           	psect	text7
  1191   001310                     __ptext7:
  1192                           	callstack 0
  1193   001310                     _Set_Interrupt_Handler:
  1194                           	callstack 23
  1195   001310                     
  1196                           ;MCAL_Layer/Interrupt/mcal_external_interrupt.c: 244:     std_ReturnType ret = (std_Retu
      +                          rnType)0x01;
  1197   001310  0E01               	movlw	1
  1198   001312  6E57               	movwf	Set_Interrupt_Handler@ret^0,c
  1199                           
  1200                           ;MCAL_Layer/Interrupt/mcal_external_interrupt.c: 245:     if(int_obj == ((void*)0)){
  1201   001314  5054               	movf	Set_Interrupt_Handler@int_obj^0,w,c
  1202   001316  A4D8               	btfss	status,2,c
  1203   001318  EF90  F009         	goto	u1501
  1204   00131C  EF92  F009         	goto	u1500
  1205   001320                     u1501:
  1206   001320  EFB7  F009         	goto	l2683
  1207   001324                     u1500:
  1208   001324                     l2673:
  1209                           
  1210                           ;MCAL_Layer/Interrupt/mcal_external_interrupt.c: 246:         ret = (std_ReturnType)0x00
      +                          ;
  1211   001324  0E00               	movlw	0
  1212   001326  6E57               	movwf	Set_Interrupt_Handler@ret^0,c
  1213                           
  1214                           ;MCAL_Layer/Interrupt/mcal_external_interrupt.c: 247:     }
  1215   001328  EFD5  F009         	goto	l2685
  1216   00132C                     l2675:
  1217   00132C  5054               	movf	Set_Interrupt_Handler@int_obj^0,w,c
  1218   00132E  6ED9               	movwf	fsr2l,c
  1219   001330  6ADA               	clrf	fsr2h,c
  1220   001332  CFDE F052          	movff	postinc2,INT0_INTERRUPT_HANDLER@Interrupt_Handler
  1221   001336  CFDD F053          	movff	postdec2,INT0_INTERRUPT_HANDLER@Interrupt_Handler+1
  1222   00133A  EC75  F00C         	call	_INT0_INTERRUPT_HANDLER	;wreg free
  1223   00133E  EFD5  F009         	goto	l2685
  1224   001342                     l2677:
  1225   001342  5054               	movf	Set_Interrupt_Handler@int_obj^0,w,c
  1226   001344  6ED9               	movwf	fsr2l,c
  1227   001346  6ADA               	clrf	fsr2h,c
  1228   001348  CFDE F052          	movff	postinc2,INT1_INTERRUPT_HANDLER@Interrupt_Handler
  1229   00134C  CFDD F053          	movff	postdec2,INT1_INTERRUPT_HANDLER@Interrupt_Handler+1
  1230   001350  EC65  F00C         	call	_INT1_INTERRUPT_HANDLER	;wreg free
  1231   001354  EFD5  F009         	goto	l2685
  1232   001358                     l2679:
  1233   001358  5054               	movf	Set_Interrupt_Handler@int_obj^0,w,c
  1234   00135A  6ED9               	movwf	fsr2l,c
  1235   00135C  6ADA               	clrf	fsr2h,c
  1236   00135E  CFDE F052          	movff	postinc2,INT2_INTERRUPT_HANDLER@Interrupt_Handler
  1237   001362  CFDD F053          	movff	postdec2,INT2_INTERRUPT_HANDLER@Interrupt_Handler+1
  1238   001366  EC55  F00C         	call	_INT2_INTERRUPT_HANDLER	;wreg free
  1239   00136A  EFD5  F009         	goto	l2685
  1240   00136E                     l2683:
  1241   00136E  5054               	movf	Set_Interrupt_Handler@int_obj^0,w,c
  1242   001370  6ED9               	movwf	fsr2l,c
  1243   001372  6ADA               	clrf	fsr2h,c
  1244   001374  0E03               	movlw	3
  1245   001376  26D9               	addwf	fsr2l,f,c
  1246   001378  50DF               	movf	indf2,w,c
  1247   00137A  6E55               	movwf	??_Set_Interrupt_Handler^0,c
  1248   00137C  6A56               	clrf	(??_Set_Interrupt_Handler+1)^0,c
  1249                           
  1250                           ; Switch on 2 bytes has been partitioned into a top level switch of size 1, and 1 sub-sw
      +                          itches
  1251                           ; Switch size 1, requested type "simple"
  1252                           ; Number of cases is 1, Range of values is 0 to 0
  1253                           ; switch strategies available:
  1254                           ; Name         Instructions Cycles
  1255                           ; simple_byte            4     3 (average)
  1256                           ;	Chosen strategy is simple_byte
  1257   00137E  5056               	movf	(??_Set_Interrupt_Handler+1)^0,w,c
  1258   001380  0A00               	xorlw	0	; case 0
  1259   001382  B4D8               	btfsc	status,2,c
  1260   001384  EFC6  F009         	goto	l3339
  1261   001388  EF92  F009         	goto	l2673
  1262   00138C                     l3339:
  1263                           
  1264                           ; Switch size 1, requested type "simple"
  1265                           ; Number of cases is 3, Range of values is 0 to 2
  1266                           ; switch strategies available:
  1267                           ; Name         Instructions Cycles
  1268                           ; simple_byte           10     6 (average)
  1269                           ;	Chosen strategy is simple_byte
  1270   00138C  5055               	movf	??_Set_Interrupt_Handler^0,w,c
  1271   00138E  0A00               	xorlw	0	; case 0
  1272   001390  B4D8               	btfsc	status,2,c
  1273   001392  EF96  F009         	goto	l2675
  1274   001396  0A01               	xorlw	1	; case 1
  1275   001398  B4D8               	btfsc	status,2,c
  1276   00139A  EFA1  F009         	goto	l2677
  1277   00139E  0A03               	xorlw	3	; case 2
  1278   0013A0  B4D8               	btfsc	status,2,c
  1279   0013A2  EFAC  F009         	goto	l2679
  1280   0013A6  EF92  F009         	goto	l2673
  1281   0013AA                     l2685:
  1282                           
  1283                           ;MCAL_Layer/Interrupt/mcal_external_interrupt.c: 257:     return ret;
  1284   0013AA  5057               	movf	Set_Interrupt_Handler@ret^0,w,c
  1285   0013AC  0012               	return		;funcret
  1286   0013AE                     __end_of_Set_Interrupt_Handler:
  1287                           	callstack 0
  1288                           
  1289 ;; *************** function _INT2_INTERRUPT_HANDLER *****************
  1290 ;; Defined at:
  1291 ;;		line 233 in file "MCAL_Layer/Interrupt/mcal_external_interrupt.c"
  1292 ;; Parameters:    Size  Location     Type
  1293 ;;  Interrupt_Ha    2   14[COMRAM] PTR FTN()void 
  1294 ;;		 -> int2_isr(1), int1_isr(1), int0_isr(1), 
  1295 ;; Auto vars:     Size  Location     Type
  1296 ;;  ret             1    0        unsigned char 
  1297 ;; Return value:  Size  Location     Type
  1298 ;;                  1    wreg      unsigned char 
  1299 ;; Registers used:
  1300 ;;		wreg, status,2, status,0
  1301 ;; Tracked objects:
  1302 ;;		On entry : 0/0
  1303 ;;		On exit  : 0/0
  1304 ;;		Unchanged: 0/0
  1305 ;; Data sizes:     COMRAM   BANK0   BANK1   BANK2   BANK3   BANK4   BANK5   BANK6   BANK7   BANK8   BANK9  BANK10  BANK1
      +1  BANK12  BANK13  BANK14  BANK15
  1306 ;;      Params:         2       0       0       0       0       0       0       0       0       0       0       0       
      +0       0       0       0       0
  1307 ;;      Locals:         0       0       0       0       0       0       0       0       0       0       0       0       
      +0       0       0       0       0
  1308 ;;      Temps:          0       0       0       0       0       0       0       0       0       0       0       0       
      +0       0       0       0       0
  1309 ;;      Totals:         2       0       0       0       0       0       0       0       0       0       0       0       
      +0       0       0       0       0
  1310 ;;Total ram usage:        2 bytes
  1311 ;; Hardware stack levels used: 1
  1312 ;; Hardware stack levels required when called: 5
  1313 ;; This function calls:
  1314 ;;		Nothing
  1315 ;; This function is called by:
  1316 ;;		_Set_Interrupt_Handler
  1317 ;; This function uses a non-reentrant model
  1318 ;;
  1319                           
  1320                           	psect	text8
  1321   0018AA                     __ptext8:
  1322                           	callstack 0
  1323   0018AA                     _INT2_INTERRUPT_HANDLER:
  1324                           	callstack 23
  1325   0018AA                     
  1326                           ;MCAL_Layer/Interrupt/mcal_external_interrupt.c: 235:     if(Interrupt_Handler == ((void
      +                          *)0)){
  1327   0018AA  5052               	movf	INT2_INTERRUPT_HANDLER@Interrupt_Handler^0,w,c
  1328   0018AC  1053               	iorwf	(INT2_INTERRUPT_HANDLER@Interrupt_Handler+1)^0,w,c
  1329   0018AE  A4D8               	btfss	status,2,c
  1330   0018B0  EF5C  F00C         	goto	u1351
  1331   0018B4  EF5E  F00C         	goto	u1350
  1332   0018B8                     u1351:
  1333   0018B8  EF60  F00C         	goto	l2517
  1334   0018BC                     u1350:
  1335   0018BC                     
  1336                           ;MCAL_Layer/Interrupt/mcal_external_interrupt.c: 237:     }
  1337   0018BC  EF64  F00C         	goto	l562
  1338   0018C0                     l2517:
  1339                           
  1340                           ;MCAL_Layer/Interrupt/mcal_external_interrupt.c: 239:         INT2_INTERRUPTHANDLER = In
      +                          terrupt_Handler;
  1341   0018C0  C052  F05F         	movff	INT2_INTERRUPT_HANDLER@Interrupt_Handler,_INT2_INTERRUPTHANDLER
  1342   0018C4  C053  F060         	movff	INT2_INTERRUPT_HANDLER@Interrupt_Handler+1,_INT2_INTERRUPTHANDLER+1
  1343   0018C8                     l562:
  1344   0018C8  0012               	return		;funcret
  1345   0018CA                     __end_of_INT2_INTERRUPT_HANDLER:
  1346                           	callstack 0
  1347                           
  1348 ;; *************** function _INT1_INTERRUPT_HANDLER *****************
  1349 ;; Defined at:
  1350 ;;		line 223 in file "MCAL_Layer/Interrupt/mcal_external_interrupt.c"
  1351 ;; Parameters:    Size  Location     Type
  1352 ;;  Interrupt_Ha    2   14[COMRAM] PTR FTN()void 
  1353 ;;		 -> int2_isr(1), int1_isr(1), int0_isr(1), 
  1354 ;; Auto vars:     Size  Location     Type
  1355 ;;  ret             1    0        unsigned char 
  1356 ;; Return value:  Size  Location     Type
  1357 ;;                  1    wreg      unsigned char 
  1358 ;; Registers used:
  1359 ;;		wreg, status,2, status,0
  1360 ;; Tracked objects:
  1361 ;;		On entry : 0/0
  1362 ;;		On exit  : 0/0
  1363 ;;		Unchanged: 0/0
  1364 ;; Data sizes:     COMRAM   BANK0   BANK1   BANK2   BANK3   BANK4   BANK5   BANK6   BANK7   BANK8   BANK9  BANK10  BANK1
      +1  BANK12  BANK13  BANK14  BANK15
  1365 ;;      Params:         2       0       0       0       0       0       0       0       0       0       0       0       
      +0       0       0       0       0
  1366 ;;      Locals:         0       0       0       0       0       0       0       0       0       0       0       0       
      +0       0       0       0       0
  1367 ;;      Temps:          0       0       0       0       0       0       0       0       0       0       0       0       
      +0       0       0       0       0
  1368 ;;      Totals:         2       0       0       0       0       0       0       0       0       0       0       0       
      +0       0       0       0       0
  1369 ;;Total ram usage:        2 bytes
  1370 ;; Hardware stack levels used: 1
  1371 ;; Hardware stack levels required when called: 5
  1372 ;; This function calls:
  1373 ;;		Nothing
  1374 ;; This function is called by:
  1375 ;;		_Set_Interrupt_Handler
  1376 ;; This function uses a non-reentrant model
  1377 ;;
  1378                           
  1379                           	psect	text9
  1380   0018CA                     __ptext9:
  1381                           	callstack 0
  1382   0018CA                     _INT1_INTERRUPT_HANDLER:
  1383                           	callstack 23
  1384   0018CA                     
  1385                           ;MCAL_Layer/Interrupt/mcal_external_interrupt.c: 225:     if(Interrupt_Handler == ((void
      +                          *)0)){
  1386   0018CA  5052               	movf	INT1_INTERRUPT_HANDLER@Interrupt_Handler^0,w,c
  1387   0018CC  1053               	iorwf	(INT1_INTERRUPT_HANDLER@Interrupt_Handler+1)^0,w,c
  1388   0018CE  A4D8               	btfss	status,2,c
  1389   0018D0  EF6C  F00C         	goto	u1341
  1390   0018D4  EF6E  F00C         	goto	u1340
  1391   0018D8                     u1341:
  1392   0018D8  EF70  F00C         	goto	l2507
  1393   0018DC                     u1340:
  1394   0018DC                     
  1395                           ;MCAL_Layer/Interrupt/mcal_external_interrupt.c: 227:     }
  1396   0018DC  EF74  F00C         	goto	l557
  1397   0018E0                     l2507:
  1398                           
  1399                           ;MCAL_Layer/Interrupt/mcal_external_interrupt.c: 229:         INT1_INTERRUPTHANDLER = In
      +                          terrupt_Handler;
  1400   0018E0  C052  F061         	movff	INT1_INTERRUPT_HANDLER@Interrupt_Handler,_INT1_INTERRUPTHANDLER
  1401   0018E4  C053  F062         	movff	INT1_INTERRUPT_HANDLER@Interrupt_Handler+1,_INT1_INTERRUPTHANDLER+1
  1402   0018E8                     l557:
  1403   0018E8  0012               	return		;funcret
  1404   0018EA                     __end_of_INT1_INTERRUPT_HANDLER:
  1405                           	callstack 0
  1406                           
  1407 ;; *************** function _INT0_INTERRUPT_HANDLER *****************
  1408 ;; Defined at:
  1409 ;;		line 213 in file "MCAL_Layer/Interrupt/mcal_external_interrupt.c"
  1410 ;; Parameters:    Size  Location     Type
  1411 ;;  Interrupt_Ha    2   14[COMRAM] PTR FTN()void 
  1412 ;;		 -> int2_isr(1), int1_isr(1), int0_isr(1), 
  1413 ;; Auto vars:     Size  Location     Type
  1414 ;;  ret             1    0        unsigned char 
  1415 ;; Return value:  Size  Location     Type
  1416 ;;                  1    wreg      unsigned char 
  1417 ;; Registers used:
  1418 ;;		wreg, status,2, status,0
  1419 ;; Tracked objects:
  1420 ;;		On entry : 0/0
  1421 ;;		On exit  : 0/0
  1422 ;;		Unchanged: 0/0
  1423 ;; Data sizes:     COMRAM   BANK0   BANK1   BANK2   BANK3   BANK4   BANK5   BANK6   BANK7   BANK8   BANK9  BANK10  BANK1
      +1  BANK12  BANK13  BANK14  BANK15
  1424 ;;      Params:         2       0       0       0       0       0       0       0       0       0       0       0       
      +0       0       0       0       0
  1425 ;;      Locals:         0       0       0       0       0       0       0       0       0       0       0       0       
      +0       0       0       0       0
  1426 ;;      Temps:          0       0       0       0       0       0       0       0       0       0       0       0       
      +0       0       0       0       0
  1427 ;;      Totals:         2       0       0       0       0       0       0       0       0       0       0       0       
      +0       0       0       0       0
  1428 ;;Total ram usage:        2 bytes
  1429 ;; Hardware stack levels used: 1
  1430 ;; Hardware stack levels required when called: 5
  1431 ;; This function calls:
  1432 ;;		Nothing
  1433 ;; This function is called by:
  1434 ;;		_Set_Interrupt_Handler
  1435 ;; This function uses a non-reentrant model
  1436 ;;
  1437                           
  1438                           	psect	text10
  1439   0018EA                     __ptext10:
  1440                           	callstack 0
  1441   0018EA                     _INT0_INTERRUPT_HANDLER:
  1442                           	callstack 23
  1443   0018EA                     
  1444                           ;MCAL_Layer/Interrupt/mcal_external_interrupt.c: 215:     if(Interrupt_Handler == ((void
      +                          *)0)){
  1445   0018EA  5052               	movf	INT0_INTERRUPT_HANDLER@Interrupt_Handler^0,w,c
  1446   0018EC  1053               	iorwf	(INT0_INTERRUPT_HANDLER@Interrupt_Handler+1)^0,w,c
  1447   0018EE  A4D8               	btfss	status,2,c
  1448   0018F0  EF7C  F00C         	goto	u1331
  1449   0018F4  EF7E  F00C         	goto	u1330
  1450   0018F8                     u1331:
  1451   0018F8  EF80  F00C         	goto	l2497
  1452   0018FC                     u1330:
  1453   0018FC                     
  1454                           ;MCAL_Layer/Interrupt/mcal_external_interrupt.c: 217:     }
  1455   0018FC  EF84  F00C         	goto	l552
  1456   001900                     l2497:
  1457                           
  1458                           ;MCAL_Layer/Interrupt/mcal_external_interrupt.c: 219:         INT0_INTERRUPTHANDLER = In
      +                          terrupt_Handler;
  1459   001900  C052  F063         	movff	INT0_INTERRUPT_HANDLER@Interrupt_Handler,_INT0_INTERRUPTHANDLER
  1460   001904  C053  F064         	movff	INT0_INTERRUPT_HANDLER@Interrupt_Handler+1,_INT0_INTERRUPTHANDLER+1
  1461   001908                     l552:
  1462   001908  0012               	return		;funcret
  1463   00190A                     __end_of_INT0_INTERRUPT_HANDLER:
  1464                           	callstack 0
  1465                           
  1466 ;; *************** function _Interrupt_INTx_Pin_Init *****************
  1467 ;; Defined at:
  1468 ;;		line 203 in file "MCAL_Layer/Interrupt/mcal_external_interrupt.c"
  1469 ;; Parameters:    Size  Location     Type
  1470 ;;  int_obj         1   21[COMRAM] PTR const struct .
  1471 ;;		 -> int2(6), int1(6), int0(6), 
  1472 ;; Auto vars:     Size  Location     Type
  1473 ;;  ret             1   22[COMRAM] unsigned char 
  1474 ;; Return value:  Size  Location     Type
  1475 ;;                  1    wreg      unsigned char 
  1476 ;; Registers used:
  1477 ;;		wreg, fsr2l, fsr2h, status,2, status,0, prodl, prodh, cstack
  1478 ;; Tracked objects:
  1479 ;;		On entry : 0/0
  1480 ;;		On exit  : 0/0
  1481 ;;		Unchanged: 0/0
  1482 ;; Data sizes:     COMRAM   BANK0   BANK1   BANK2   BANK3   BANK4   BANK5   BANK6   BANK7   BANK8   BANK9  BANK10  BANK1
      +1  BANK12  BANK13  BANK14  BANK15
  1483 ;;      Params:         1       0       0       0       0       0       0       0       0       0       0       0       
      +0       0       0       0       0
  1484 ;;      Locals:         1       0       0       0       0       0       0       0       0       0       0       0       
      +0       0       0       0       0
  1485 ;;      Temps:          0       0       0       0       0       0       0       0       0       0       0       0       
      +0       0       0       0       0
  1486 ;;      Totals:         2       0       0       0       0       0       0       0       0       0       0       0       
      +0       0       0       0       0
  1487 ;;Total ram usage:        2 bytes
  1488 ;; Hardware stack levels used: 1
  1489 ;; Hardware stack levels required when called: 6
  1490 ;; This function calls:
  1491 ;;		_gpio_pin_direction_intialize
  1492 ;; This function is called by:
  1493 ;;		_Interrupt_INTx_Init
  1494 ;; This function uses a non-reentrant model
  1495 ;;
  1496                           
  1497                           	psect	text11
  1498   00185E                     __ptext11:
  1499                           	callstack 0
  1500   00185E                     _Interrupt_INTx_Pin_Init:
  1501                           	callstack 23
  1502   00185E                     
  1503                           ;MCAL_Layer/Interrupt/mcal_external_interrupt.c: 205:     if(int_obj == ((void*)0)){
  1504   00185E  5059               	movf	Interrupt_INTx_Pin_Init@int_obj^0,w,c
  1505   001860  A4D8               	btfss	status,2,c
  1506   001862  EF35  F00C         	goto	u1491
  1507   001866  EF37  F00C         	goto	u1490
  1508   00186A                     u1491:
  1509   00186A  EF3B  F00C         	goto	l2665
  1510   00186E                     u1490:
  1511   00186E                     
  1512                           ;MCAL_Layer/Interrupt/mcal_external_interrupt.c: 206:         ret = (std_ReturnType)0x00
      +                          ;
  1513   00186E  0E00               	movlw	0
  1514   001870  6E5A               	movwf	Interrupt_INTx_Pin_Init@ret^0,c
  1515                           
  1516                           ;MCAL_Layer/Interrupt/mcal_external_interrupt.c: 207:     }
  1517   001872  EF41  F00C         	goto	l2667
  1518   001876                     l2665:
  1519                           
  1520                           ;MCAL_Layer/Interrupt/mcal_external_interrupt.c: 209:         ret = gpio_pin_direction_i
      +                          ntialize(&(int_obj->pin));
  1521   001876  5059               	movf	Interrupt_INTx_Pin_Init@int_obj^0,w,c
  1522   001878  0F02               	addlw	2
  1523   00187A  6E52               	movwf	gpio_pin_direction_intialize@_pin_config^0,c
  1524   00187C  EC20  F008         	call	_gpio_pin_direction_intialize	;wreg free
  1525   001880  6E5A               	movwf	Interrupt_INTx_Pin_Init@ret^0,c
  1526   001882                     l2667:
  1527                           
  1528                           ;MCAL_Layer/Interrupt/mcal_external_interrupt.c: 211:     return ret;
  1529   001882  505A               	movf	Interrupt_INTx_Pin_Init@ret^0,w,c
  1530   001884  0012               	return		;funcret
  1531   001886                     __end_of_Interrupt_INTx_Pin_Init:
  1532                           	callstack 0
  1533                           
  1534 ;; *************** function _gpio_pin_direction_intialize *****************
  1535 ;; Defined at:
  1536 ;;		line 21 in file "MCAL_Layer/GPIO/hal_gpio.c"
  1537 ;; Parameters:    Size  Location     Type
  1538 ;;  _pin_config     1   14[COMRAM] PTR const struct .
  1539 ;;		 -> int2(6), int1(6), int0(6), relay_initialization@pin_obj(1), 
  1540 ;;		 -> led_initialize@pin_obj(1), 
  1541 ;; Auto vars:     Size  Location     Type
  1542 ;;  ret             1   20[COMRAM] unsigned char 
  1543 ;; Return value:  Size  Location     Type
  1544 ;;                  1    wreg      unsigned char 
  1545 ;; Registers used:
  1546 ;;		wreg, fsr2l, fsr2h, status,2, status,0, prodl, prodh
  1547 ;; Tracked objects:
  1548 ;;		On entry : 0/0
  1549 ;;		On exit  : 0/0
  1550 ;;		Unchanged: 0/0
  1551 ;; Data sizes:     COMRAM   BANK0   BANK1   BANK2   BANK3   BANK4   BANK5   BANK6   BANK7   BANK8   BANK9  BANK10  BANK1
      +1  BANK12  BANK13  BANK14  BANK15
  1552 ;;      Params:         1       0       0       0       0       0       0       0       0       0       0       0       
      +0       0       0       0       0
  1553 ;;      Locals:         1       0       0       0       0       0       0       0       0       0       0       0       
      +0       0       0       0       0
  1554 ;;      Temps:          5       0       0       0       0       0       0       0       0       0       0       0       
      +0       0       0       0       0
  1555 ;;      Totals:         7       0       0       0       0       0       0       0       0       0       0       0       
      +0       0       0       0       0
  1556 ;;Total ram usage:        7 bytes
  1557 ;; Hardware stack levels used: 1
  1558 ;; Hardware stack levels required when called: 5
  1559 ;; This function calls:
  1560 ;;		Nothing
  1561 ;; This function is called by:
  1562 ;;		_gpio_pin_initialize
  1563 ;;		_Interrupt_INTx_Pin_Init
  1564 ;;		_button_initialize
  1565 ;; This function uses a non-reentrant model
  1566 ;;
  1567                           
  1568                           	psect	text12
  1569   001040                     __ptext12:
  1570                           	callstack 0
  1571   001040                     _gpio_pin_direction_intialize:
  1572                           	callstack 21
  1573   001040                     
  1574                           ;MCAL_Layer/GPIO/hal_gpio.c: 22:     std_ReturnType ret = (std_ReturnType)0x01;
  1575   001040  0E01               	movlw	1
  1576   001042  6E58               	movwf	gpio_pin_direction_intialize@ret^0,c
  1577                           
  1578                           ;MCAL_Layer/GPIO/hal_gpio.c: 23:     if(((void*)0) == _pin_config || _pin_config->pin > 
      +                          8 - 1){
  1579   001044  5052               	movf	gpio_pin_direction_intialize@_pin_config^0,w,c
  1580   001046  B4D8               	btfsc	status,2,c
  1581   001048  EF28  F008         	goto	u1211
  1582   00104C  EF2A  F008         	goto	u1210
  1583   001050                     u1211:
  1584   001050  EF3A  F008         	goto	l2431
  1585   001054                     u1210:
  1586   001054  5052               	movf	gpio_pin_direction_intialize@_pin_config^0,w,c
  1587   001056  6ED9               	movwf	fsr2l,c
  1588   001058  6ADA               	clrf	fsr2h,c
  1589   00105A  30DF               	rrcf	223,w,c
  1590   00105C  32E8               	rrcf	wreg,f,c
  1591   00105E  32E8               	rrcf	wreg,f,c
  1592   001060  0B07               	andlw	7
  1593   001062  6E53               	movwf	??_gpio_pin_direction_intialize^0,c
  1594   001064  0E07               	movlw	7
  1595   001066  6453               	cpfsgt	??_gpio_pin_direction_intialize^0,c
  1596   001068  EF38  F008         	goto	u1221
  1597   00106C  EF3A  F008         	goto	u1220
  1598   001070                     u1221:
  1599   001070  EF91  F008         	goto	l2439
  1600   001074                     u1220:
  1601   001074                     l2431:
  1602                           
  1603                           ;MCAL_Layer/GPIO/hal_gpio.c: 24:         ret = (std_ReturnType)0x00;
  1604   001074  0E00               	movlw	0
  1605   001076  6E58               	movwf	gpio_pin_direction_intialize@ret^0,c
  1606                           
  1607                           ;MCAL_Layer/GPIO/hal_gpio.c: 25:     }
  1608   001078  EFA7  F008         	goto	l2441
  1609   00107C                     l2433:
  1610                           
  1611                           ;MCAL_Layer/GPIO/hal_gpio.c: 30:             (*tris_registers[_pin_config->port] &= ~((u
      +                          int8)1<<_pin_config->pin));
  1612   00107C  5052               	movf	gpio_pin_direction_intialize@_pin_config^0,w,c
  1613   00107E  6ED9               	movwf	fsr2l,c
  1614   001080  6ADA               	clrf	fsr2h,c
  1615   001082  30DF               	rrcf	223,w,c
  1616   001084  32E8               	rrcf	wreg,f,c
  1617   001086  32E8               	rrcf	wreg,f,c
  1618   001088  0B07               	andlw	7
  1619   00108A  6E53               	movwf	??_gpio_pin_direction_intialize^0,c
  1620   00108C  0E01               	movlw	1
  1621   00108E  6E54               	movwf	(??_gpio_pin_direction_intialize+1)^0,c
  1622   001090  2A53               	incf	??_gpio_pin_direction_intialize^0,f,c
  1623   001092  EF4D  F008         	goto	u1234
  1624   001096                     u1235:
  1625   001096  90D8               	bcf	status,0,c
  1626   001098  3654               	rlcf	(??_gpio_pin_direction_intialize+1)^0,f,c
  1627   00109A                     u1234:
  1628   00109A  2E53               	decfsz	??_gpio_pin_direction_intialize^0,f,c
  1629   00109C  EF4B  F008         	goto	u1235
  1630   0010A0  5054               	movf	(??_gpio_pin_direction_intialize+1)^0,w,c
  1631   0010A2  0AFF               	xorlw	255
  1632   0010A4  6E55               	movwf	(??_gpio_pin_direction_intialize+2)^0,c
  1633   0010A6  5052               	movf	gpio_pin_direction_intialize@_pin_config^0,w,c
  1634   0010A8  6ED9               	movwf	fsr2l,c
  1635   0010AA  6ADA               	clrf	fsr2h,c
  1636   0010AC  50DF               	movf	223,w,c
  1637   0010AE  0B07               	andlw	7
  1638   0010B0  0D02               	mullw	2
  1639   0010B2  50F3               	movf	243,w,c
  1640   0010B4  0F25               	addlw	low _tris_registers
  1641   0010B6  6ED9               	movwf	fsr2l,c
  1642   0010B8  6ADA               	clrf	fsr2h,c
  1643   0010BA  CFDE F056          	movff	postinc2,??_gpio_pin_direction_intialize+3
  1644   0010BE  CFDD F057          	movff	postdec2,??_gpio_pin_direction_intialize+4
  1645   0010C2  C056  FFD9         	movff	??_gpio_pin_direction_intialize+3,fsr2l
  1646   0010C6  C057  FFDA         	movff	??_gpio_pin_direction_intialize+4,fsr2h
  1647   0010CA  5055               	movf	(??_gpio_pin_direction_intialize+2)^0,w,c
  1648   0010CC  16DF               	andwf	indf2,f,c
  1649                           
  1650                           ;MCAL_Layer/GPIO/hal_gpio.c: 31:             break;
  1651   0010CE  EFA7  F008         	goto	l2441
  1652   0010D2                     l2435:
  1653                           
  1654                           ;MCAL_Layer/GPIO/hal_gpio.c: 33:             (*tris_registers[_pin_config->port] |= ((ui
      +                          nt8)1<<_pin_config->pin));
  1655   0010D2  5052               	movf	gpio_pin_direction_intialize@_pin_config^0,w,c
  1656   0010D4  6ED9               	movwf	fsr2l,c
  1657   0010D6  6ADA               	clrf	fsr2h,c
  1658   0010D8  30DF               	rrcf	223,w,c
  1659   0010DA  32E8               	rrcf	wreg,f,c
  1660   0010DC  32E8               	rrcf	wreg,f,c
  1661   0010DE  0B07               	andlw	7
  1662   0010E0  6E53               	movwf	??_gpio_pin_direction_intialize^0,c
  1663   0010E2  0E01               	movlw	1
  1664   0010E4  6E54               	movwf	(??_gpio_pin_direction_intialize+1)^0,c
  1665   0010E6  2A53               	incf	??_gpio_pin_direction_intialize^0,f,c
  1666   0010E8  EF78  F008         	goto	u1244
  1667   0010EC                     u1245:
  1668   0010EC  90D8               	bcf	status,0,c
  1669   0010EE  3654               	rlcf	(??_gpio_pin_direction_intialize+1)^0,f,c
  1670   0010F0                     u1244:
  1671   0010F0  2E53               	decfsz	??_gpio_pin_direction_intialize^0,f,c
  1672   0010F2  EF76  F008         	goto	u1245
  1673   0010F6  5052               	movf	gpio_pin_direction_intialize@_pin_config^0,w,c
  1674   0010F8  6ED9               	movwf	fsr2l,c
  1675   0010FA  6ADA               	clrf	fsr2h,c
  1676   0010FC  50DF               	movf	223,w,c
  1677   0010FE  0B07               	andlw	7
  1678   001100  0D02               	mullw	2
  1679   001102  50F3               	movf	243,w,c
  1680   001104  0F25               	addlw	low _tris_registers
  1681   001106  6ED9               	movwf	fsr2l,c
  1682   001108  6ADA               	clrf	fsr2h,c
  1683   00110A  CFDE F055          	movff	postinc2,??_gpio_pin_direction_intialize+2
  1684   00110E  CFDD F056          	movff	postdec2,??_gpio_pin_direction_intialize+3
  1685   001112  C055  FFD9         	movff	??_gpio_pin_direction_intialize+2,fsr2l
  1686   001116  C056  FFDA         	movff	??_gpio_pin_direction_intialize+3,fsr2h
  1687   00111A  5054               	movf	(??_gpio_pin_direction_intialize+1)^0,w,c
  1688   00111C  12DF               	iorwf	indf2,f,c
  1689                           
  1690                           ;MCAL_Layer/GPIO/hal_gpio.c: 34:             break;
  1691   00111E  EFA7  F008         	goto	l2441
  1692   001122                     l2439:
  1693   001122  5052               	movf	gpio_pin_direction_intialize@_pin_config^0,w,c
  1694   001124  6ED9               	movwf	fsr2l,c
  1695   001126  6ADA               	clrf	fsr2h,c
  1696   001128  BCDF               	btfsc	indf2,6,c
  1697   00112A  EF99  F008         	goto	u1251
  1698   00112E  EF9C  F008         	goto	u1250
  1699   001132                     u1251:
  1700   001132  0E01               	movlw	1
  1701   001134  EF9D  F008         	goto	u1256
  1702   001138                     u1250:
  1703   001138  0E00               	movlw	0
  1704   00113A                     u1256:
  1705                           
  1706                           ; Switch size 1, requested type "simple"
  1707                           ; Number of cases is 2, Range of values is 0 to 1
  1708                           ; switch strategies available:
  1709                           ; Name         Instructions Cycles
  1710                           ; simple_byte            7     4 (average)
  1711                           ;	Chosen strategy is simple_byte
  1712   00113A  0A00               	xorlw	0	; case 0
  1713   00113C  B4D8               	btfsc	status,2,c
  1714   00113E  EF3E  F008         	goto	l2433
  1715   001142  0A01               	xorlw	1	; case 1
  1716   001144  B4D8               	btfsc	status,2,c
  1717   001146  EF69  F008         	goto	l2435
  1718   00114A  EF3A  F008         	goto	l2431
  1719   00114E                     l2441:
  1720                           
  1721                           ;MCAL_Layer/GPIO/hal_gpio.c: 39:     return ret;
  1722   00114E  5058               	movf	gpio_pin_direction_intialize@ret^0,w,c
  1723   001150  0012               	return		;funcret
  1724   001152                     __end_of_gpio_pin_direction_intialize:
  1725                           	callstack 0
  1726                           
  1727 ;; *************** function _Interrupt_INTx_Enable *****************
  1728 ;; Defined at:
  1729 ;;		line 104 in file "MCAL_Layer/Interrupt/mcal_external_interrupt.c"
  1730 ;; Parameters:    Size  Location     Type
  1731 ;;  int_obj         1   14[COMRAM] PTR const struct .
  1732 ;;		 -> int2(6), int1(6), int0(6), 
  1733 ;; Auto vars:     Size  Location     Type
  1734 ;;  ret             1   17[COMRAM] unsigned char 
  1735 ;; Return value:  Size  Location     Type
  1736 ;;                  1    wreg      unsigned char 
  1737 ;; Registers used:
  1738 ;;		wreg, fsr2l, fsr2h, status,2, status,0
  1739 ;; Tracked objects:
  1740 ;;		On entry : 0/0
  1741 ;;		On exit  : 0/0
  1742 ;;		Unchanged: 0/0
  1743 ;; Data sizes:     COMRAM   BANK0   BANK1   BANK2   BANK3   BANK4   BANK5   BANK6   BANK7   BANK8   BANK9  BANK10  BANK1
      +1  BANK12  BANK13  BANK14  BANK15
  1744 ;;      Params:         1       0       0       0       0       0       0       0       0       0       0       0       
      +0       0       0       0       0
  1745 ;;      Locals:         1       0       0       0       0       0       0       0       0       0       0       0       
      +0       0       0       0       0
  1746 ;;      Temps:          2       0       0       0       0       0       0       0       0       0       0       0       
      +0       0       0       0       0
  1747 ;;      Totals:         4       0       0       0       0       0       0       0       0       0       0       0       
      +0       0       0       0       0
  1748 ;;Total ram usage:        4 bytes
  1749 ;; Hardware stack levels used: 1
  1750 ;; Hardware stack levels required when called: 5
  1751 ;; This function calls:
  1752 ;;		Nothing
  1753 ;; This function is called by:
  1754 ;;		_Interrupt_INTx_Init
  1755 ;; This function uses a non-reentrant model
  1756 ;;
  1757                           
  1758                           	psect	text13
  1759   001444                     __ptext13:
  1760                           	callstack 0
  1761   001444                     _Interrupt_INTx_Enable:
  1762                           	callstack 24
  1763   001444                     
  1764                           ;MCAL_Layer/Interrupt/mcal_external_interrupt.c: 105:     std_ReturnType ret = (std_Retu
      +                          rnType)0x01;
  1765   001444  0E01               	movlw	1
  1766   001446  6E55               	movwf	Interrupt_INTx_Enable@ret^0,c
  1767                           
  1768                           ;MCAL_Layer/Interrupt/mcal_external_interrupt.c: 106:     if(int_obj == ((void*)0)){
  1769   001448  5052               	movf	Interrupt_INTx_Enable@int_obj^0,w,c
  1770   00144A  A4D8               	btfss	status,2,c
  1771   00144C  EF2A  F00A         	goto	u1511
  1772   001450  EF2C  F00A         	goto	u1510
  1773   001454                     u1511:
  1774   001454  EF3F  F00A         	goto	l2699
  1775   001458                     u1510:
  1776   001458                     l2695:
  1777                           
  1778                           ;MCAL_Layer/Interrupt/mcal_external_interrupt.c: 107:         ret = (std_ReturnType)0x00
      +                          ;
  1779   001458  0E00               	movlw	0
  1780   00145A  6E55               	movwf	Interrupt_INTx_Enable@ret^0,c
  1781                           
  1782                           ;MCAL_Layer/Interrupt/mcal_external_interrupt.c: 108:     }
  1783   00145C  EF5D  F00A         	goto	l2701
  1784   001460                     l498:
  1785                           
  1786                           ;MCAL_Layer/Interrupt/mcal_external_interrupt.c: 112:                 (INTCONbits.GIEH =
      +                           1);
  1787   001460  8EF2               	bsf	242,7,c	;volatile
  1788                           
  1789                           ;MCAL_Layer/Interrupt/mcal_external_interrupt.c: 113:                 (INTCONbits.PEIE =
      +                           1);
  1790   001462  8CF2               	bsf	242,6,c	;volatile
  1791                           
  1792                           ;MCAL_Layer/Interrupt/mcal_external_interrupt.c: 114:                 (INTCONbits.INT0IE
      +                           = 1);
  1793   001464  88F2               	bsf	242,4,c	;volatile
  1794                           
  1795                           ;MCAL_Layer/Interrupt/mcal_external_interrupt.c: 115:                 break;
  1796   001466  EF5D  F00A         	goto	l2701
  1797   00146A                     l500:
  1798                           
  1799                           ;MCAL_Layer/Interrupt/mcal_external_interrupt.c: 117:                 (INTCONbits.GIEH =
      +                           1);
  1800   00146A  8EF2               	bsf	242,7,c	;volatile
  1801                           
  1802                           ;MCAL_Layer/Interrupt/mcal_external_interrupt.c: 118:                 (INTCONbits.PEIE =
      +                           1);
  1803   00146C  8CF2               	bsf	242,6,c	;volatile
  1804                           
  1805                           ;MCAL_Layer/Interrupt/mcal_external_interrupt.c: 119:                 (INTCON3bits.INT1I
      +                          E = 1);
  1806   00146E  86F0               	bsf	240,3,c	;volatile
  1807                           
  1808                           ;MCAL_Layer/Interrupt/mcal_external_interrupt.c: 120:                 break;
  1809   001470  EF5D  F00A         	goto	l2701
  1810   001474                     l501:
  1811                           
  1812                           ;MCAL_Layer/Interrupt/mcal_external_interrupt.c: 122:                 (INTCONbits.GIEH =
      +                           1);
  1813   001474  8EF2               	bsf	242,7,c	;volatile
  1814                           
  1815                           ;MCAL_Layer/Interrupt/mcal_external_interrupt.c: 123:                 (INTCONbits.PEIE =
      +                           1);
  1816   001476  8CF2               	bsf	242,6,c	;volatile
  1817                           
  1818                           ;MCAL_Layer/Interrupt/mcal_external_interrupt.c: 124:                 (INTCON3bits.INT2I
      +                          E = 1);
  1819   001478  88F0               	bsf	240,4,c	;volatile
  1820                           
  1821                           ;MCAL_Layer/Interrupt/mcal_external_interrupt.c: 125:                 break;
  1822   00147A  EF5D  F00A         	goto	l2701
  1823   00147E                     l2699:
  1824   00147E  5052               	movf	Interrupt_INTx_Enable@int_obj^0,w,c
  1825   001480  6ED9               	movwf	fsr2l,c
  1826   001482  6ADA               	clrf	fsr2h,c
  1827   001484  0E03               	movlw	3
  1828   001486  26D9               	addwf	fsr2l,f,c
  1829   001488  50DF               	movf	indf2,w,c
  1830   00148A  6E53               	movwf	??_Interrupt_INTx_Enable^0,c
  1831   00148C  6A54               	clrf	(??_Interrupt_INTx_Enable+1)^0,c
  1832                           
  1833                           ; Switch on 2 bytes has been partitioned into a top level switch of size 1, and 1 sub-sw
      +                          itches
  1834                           ; Switch size 1, requested type "simple"
  1835                           ; Number of cases is 1, Range of values is 0 to 0
  1836                           ; switch strategies available:
  1837                           ; Name         Instructions Cycles
  1838                           ; simple_byte            4     3 (average)
  1839                           ;	Chosen strategy is simple_byte
  1840   00148E  5054               	movf	(??_Interrupt_INTx_Enable+1)^0,w,c
  1841   001490  0A00               	xorlw	0	; case 0
  1842   001492  B4D8               	btfsc	status,2,c
  1843   001494  EF4E  F00A         	goto	l3341
  1844   001498  EF2C  F00A         	goto	l2695
  1845   00149C                     l3341:
  1846                           
  1847                           ; Switch size 1, requested type "simple"
  1848                           ; Number of cases is 3, Range of values is 0 to 2
  1849                           ; switch strategies available:
  1850                           ; Name         Instructions Cycles
  1851                           ; simple_byte           10     6 (average)
  1852                           ;	Chosen strategy is simple_byte
  1853   00149C  5053               	movf	??_Interrupt_INTx_Enable^0,w,c
  1854   00149E  0A00               	xorlw	0	; case 0
  1855   0014A0  B4D8               	btfsc	status,2,c
  1856   0014A2  EF30  F00A         	goto	l498
  1857   0014A6  0A01               	xorlw	1	; case 1
  1858   0014A8  B4D8               	btfsc	status,2,c
  1859   0014AA  EF35  F00A         	goto	l500
  1860   0014AE  0A03               	xorlw	3	; case 2
  1861   0014B0  B4D8               	btfsc	status,2,c
  1862   0014B2  EF3A  F00A         	goto	l501
  1863   0014B6  EF2C  F00A         	goto	l2695
  1864   0014BA                     l2701:
  1865                           
  1866                           ;MCAL_Layer/Interrupt/mcal_external_interrupt.c: 130:     return ret;
  1867   0014BA  5055               	movf	Interrupt_INTx_Enable@ret^0,w,c
  1868   0014BC  0012               	return		;funcret
  1869   0014BE                     __end_of_Interrupt_INTx_Enable:
  1870                           	callstack 0
  1871                           
  1872 ;; *************** function _Interrupt_INTx_Edge_Src *****************
  1873 ;; Defined at:
  1874 ;;		line 166 in file "MCAL_Layer/Interrupt/mcal_external_interrupt.c"
  1875 ;; Parameters:    Size  Location     Type
  1876 ;;  int_obj         1   14[COMRAM] PTR const struct .
  1877 ;;		 -> int2(6), int1(6), int0(6), 
  1878 ;; Auto vars:     Size  Location     Type
  1879 ;;  ret             1   17[COMRAM] unsigned char 
  1880 ;; Return value:  Size  Location     Type
  1881 ;;                  1    wreg      unsigned char 
  1882 ;; Registers used:
  1883 ;;		wreg, fsr2l, fsr2h, status,2, status,0
  1884 ;; Tracked objects:
  1885 ;;		On entry : 0/0
  1886 ;;		On exit  : 0/0
  1887 ;;		Unchanged: 0/0
  1888 ;; Data sizes:     COMRAM   BANK0   BANK1   BANK2   BANK3   BANK4   BANK5   BANK6   BANK7   BANK8   BANK9  BANK10  BANK1
      +1  BANK12  BANK13  BANK14  BANK15
  1889 ;;      Params:         1       0       0       0       0       0       0       0       0       0       0       0       
      +0       0       0       0       0
  1890 ;;      Locals:         1       0       0       0       0       0       0       0       0       0       0       0       
      +0       0       0       0       0
  1891 ;;      Temps:          2       0       0       0       0       0       0       0       0       0       0       0       
      +0       0       0       0       0
  1892 ;;      Totals:         4       0       0       0       0       0       0       0       0       0       0       0       
      +0       0       0       0       0
  1893 ;;Total ram usage:        4 bytes
  1894 ;; Hardware stack levels used: 1
  1895 ;; Hardware stack levels required when called: 5
  1896 ;; This function calls:
  1897 ;;		Nothing
  1898 ;; This function is called by:
  1899 ;;		_Interrupt_INTx_Init
  1900 ;; This function uses a non-reentrant model
  1901 ;;
  1902                           
  1903                           	psect	text14
  1904   001242                     __ptext14:
  1905                           	callstack 0
  1906   001242                     _Interrupt_INTx_Edge_Src:
  1907                           	callstack 24
  1908   001242                     
  1909                           ;MCAL_Layer/Interrupt/mcal_external_interrupt.c: 167:     std_ReturnType ret = (std_Retu
      +                          rnType)0x01;
  1910   001242  0E01               	movlw	1
  1911   001244  6E55               	movwf	Interrupt_INTx_Edge_Src@ret^0,c
  1912                           
  1913                           ;MCAL_Layer/Interrupt/mcal_external_interrupt.c: 168:     if(int_obj == ((void*)0)){
  1914   001246  5052               	movf	Interrupt_INTx_Edge_Src@int_obj^0,w,c
  1915   001248  A4D8               	btfss	status,2,c
  1916   00124A  EF29  F009         	goto	u1451
  1917   00124E  EF2B  F009         	goto	u1450
  1918   001252                     u1451:
  1919   001252  EF68  F009         	goto	l2651
  1920   001256                     u1450:
  1921   001256                     l2635:
  1922                           
  1923                           ;MCAL_Layer/Interrupt/mcal_external_interrupt.c: 169:         ret = (std_ReturnType)0x00
      +                          ;
  1924   001256  0E00               	movlw	0
  1925   001258  6E55               	movwf	Interrupt_INTx_Edge_Src@ret^0,c
  1926                           
  1927                           ;MCAL_Layer/Interrupt/mcal_external_interrupt.c: 170:     }
  1928   00125A  EF86  F009         	goto	l2653
  1929   00125E                     l2637:
  1930                           
  1931                           ;MCAL_Layer/Interrupt/mcal_external_interrupt.c: 174:                 if(int_obj->edge =
      +                          = Falling_Edge){
  1932   00125E  5052               	movf	Interrupt_INTx_Edge_Src@int_obj^0,w,c
  1933   001260  6ED9               	movwf	fsr2l,c
  1934   001262  6ADA               	clrf	fsr2h,c
  1935   001264  0E04               	movlw	4
  1936   001266  26D9               	addwf	fsr2l,f,c
  1937   001268  50DF               	movf	indf2,w,c
  1938   00126A  A4D8               	btfss	status,2,c
  1939   00126C  EF3A  F009         	goto	u1461
  1940   001270  EF3C  F009         	goto	u1460
  1941   001274                     u1461:
  1942   001274  EF3F  F009         	goto	l532
  1943   001278                     u1460:
  1944   001278                     
  1945                           ;MCAL_Layer/Interrupt/mcal_external_interrupt.c: 175:                     (INTCON2bits.I
      +                          NTEDG0 = 0);
  1946   001278  9CF1               	bcf	241,6,c	;volatile
  1947                           
  1948                           ;MCAL_Layer/Interrupt/mcal_external_interrupt.c: 176:                 }
  1949   00127A  EF86  F009         	goto	l2653
  1950   00127E                     l532:
  1951                           
  1952                           ;MCAL_Layer/Interrupt/mcal_external_interrupt.c: 178:                     (INTCON2bits.I
      +                          NTEDG0 = 1);
  1953   00127E  8CF1               	bsf	241,6,c	;volatile
  1954   001280  EF86  F009         	goto	l2653
  1955   001284                     l2641:
  1956                           
  1957                           ;MCAL_Layer/Interrupt/mcal_external_interrupt.c: 182:                 if(int_obj->edge =
      +                          = Falling_Edge){
  1958   001284  5052               	movf	Interrupt_INTx_Edge_Src@int_obj^0,w,c
  1959   001286  6ED9               	movwf	fsr2l,c
  1960   001288  6ADA               	clrf	fsr2h,c
  1961   00128A  0E04               	movlw	4
  1962   00128C  26D9               	addwf	fsr2l,f,c
  1963   00128E  50DF               	movf	indf2,w,c
  1964   001290  A4D8               	btfss	status,2,c
  1965   001292  EF4D  F009         	goto	u1471
  1966   001296  EF4F  F009         	goto	u1470
  1967   00129A                     u1471:
  1968   00129A  EF52  F009         	goto	l536
  1969   00129E                     u1470:
  1970   00129E                     
  1971                           ;MCAL_Layer/Interrupt/mcal_external_interrupt.c: 183:                     (INTCON2bits.I
      +                          NTEDG1 = 0);
  1972   00129E  9AF1               	bcf	241,5,c	;volatile
  1973                           
  1974                           ;MCAL_Layer/Interrupt/mcal_external_interrupt.c: 184:                 }
  1975   0012A0  EF86  F009         	goto	l2653
  1976   0012A4                     l536:
  1977                           
  1978                           ;MCAL_Layer/Interrupt/mcal_external_interrupt.c: 186:                     (INTCON2bits.I
      +                          NTEDG1 = 1);
  1979   0012A4  8AF1               	bsf	241,5,c	;volatile
  1980   0012A6  EF86  F009         	goto	l2653
  1981   0012AA                     l2645:
  1982                           
  1983                           ;MCAL_Layer/Interrupt/mcal_external_interrupt.c: 190:                 if(int_obj->edge =
      +                          = Falling_Edge){
  1984   0012AA  5052               	movf	Interrupt_INTx_Edge_Src@int_obj^0,w,c
  1985   0012AC  6ED9               	movwf	fsr2l,c
  1986   0012AE  6ADA               	clrf	fsr2h,c
  1987   0012B0  0E04               	movlw	4
  1988   0012B2  26D9               	addwf	fsr2l,f,c
  1989   0012B4  50DF               	movf	indf2,w,c
  1990   0012B6  A4D8               	btfss	status,2,c
  1991   0012B8  EF60  F009         	goto	u1481
  1992   0012BC  EF62  F009         	goto	u1480
  1993   0012C0                     u1481:
  1994   0012C0  EF65  F009         	goto	l539
  1995   0012C4                     u1480:
  1996   0012C4                     
  1997                           ;MCAL_Layer/Interrupt/mcal_external_interrupt.c: 191:                     (INTCON2bits.I
      +                          NTEDG2 = 0);
  1998   0012C4  98F1               	bcf	241,4,c	;volatile
  1999                           
  2000                           ;MCAL_Layer/Interrupt/mcal_external_interrupt.c: 192:                 }
  2001   0012C6  EF86  F009         	goto	l2653
  2002   0012CA                     l539:
  2003                           
  2004                           ;MCAL_Layer/Interrupt/mcal_external_interrupt.c: 194:                     (INTCON2bits.I
      +                          NTEDG2 = 1);
  2005   0012CA  88F1               	bsf	241,4,c	;volatile
  2006   0012CC  EF86  F009         	goto	l2653
  2007   0012D0                     l2651:
  2008   0012D0  5052               	movf	Interrupt_INTx_Edge_Src@int_obj^0,w,c
  2009   0012D2  6ED9               	movwf	fsr2l,c
  2010   0012D4  6ADA               	clrf	fsr2h,c
  2011   0012D6  0E03               	movlw	3
  2012   0012D8  26D9               	addwf	fsr2l,f,c
  2013   0012DA  50DF               	movf	indf2,w,c
  2014   0012DC  6E53               	movwf	??_Interrupt_INTx_Edge_Src^0,c
  2015   0012DE  6A54               	clrf	(??_Interrupt_INTx_Edge_Src+1)^0,c
  2016                           
  2017                           ; Switch on 2 bytes has been partitioned into a top level switch of size 1, and 1 sub-sw
      +                          itches
  2018                           ; Switch size 1, requested type "simple"
  2019                           ; Number of cases is 1, Range of values is 0 to 0
  2020                           ; switch strategies available:
  2021                           ; Name         Instructions Cycles
  2022                           ; simple_byte            4     3 (average)
  2023                           ;	Chosen strategy is simple_byte
  2024   0012E0  5054               	movf	(??_Interrupt_INTx_Edge_Src+1)^0,w,c
  2025   0012E2  0A00               	xorlw	0	; case 0
  2026   0012E4  B4D8               	btfsc	status,2,c
  2027   0012E6  EF77  F009         	goto	l3343
  2028   0012EA  EF2B  F009         	goto	l2635
  2029   0012EE                     l3343:
  2030                           
  2031                           ; Switch size 1, requested type "simple"
  2032                           ; Number of cases is 3, Range of values is 0 to 2
  2033                           ; switch strategies available:
  2034                           ; Name         Instructions Cycles
  2035                           ; simple_byte           10     6 (average)
  2036                           ;	Chosen strategy is simple_byte
  2037   0012EE  5053               	movf	??_Interrupt_INTx_Edge_Src^0,w,c
  2038   0012F0  0A00               	xorlw	0	; case 0
  2039   0012F2  B4D8               	btfsc	status,2,c
  2040   0012F4  EF2F  F009         	goto	l2637
  2041   0012F8  0A01               	xorlw	1	; case 1
  2042   0012FA  B4D8               	btfsc	status,2,c
  2043   0012FC  EF42  F009         	goto	l2641
  2044   001300  0A03               	xorlw	3	; case 2
  2045   001302  B4D8               	btfsc	status,2,c
  2046   001304  EF55  F009         	goto	l2645
  2047   001308  EF2B  F009         	goto	l2635
  2048   00130C                     l2653:
  2049                           
  2050                           ;MCAL_Layer/Interrupt/mcal_external_interrupt.c: 201:     return ret;
  2051   00130C  5055               	movf	Interrupt_INTx_Edge_Src@ret^0,w,c
  2052   00130E  0012               	return		;funcret
  2053   001310                     __end_of_Interrupt_INTx_Edge_Src:
  2054                           	callstack 0
  2055                           
  2056 ;; *************** function _Interrupt_INTx_Disable *****************
  2057 ;; Defined at:
  2058 ;;		line 133 in file "MCAL_Layer/Interrupt/mcal_external_interrupt.c"
  2059 ;; Parameters:    Size  Location     Type
  2060 ;;  int_obj         1   14[COMRAM] PTR const struct .
  2061 ;;		 -> int2(6), int1(6), int0(6), 
  2062 ;; Auto vars:     Size  Location     Type
  2063 ;;  ret             1   17[COMRAM] unsigned char 
  2064 ;; Return value:  Size  Location     Type
  2065 ;;                  1    wreg      unsigned char 
  2066 ;; Registers used:
  2067 ;;		wreg, fsr2l, fsr2h, status,2, status,0
  2068 ;; Tracked objects:
  2069 ;;		On entry : 0/0
  2070 ;;		On exit  : 0/0
  2071 ;;		Unchanged: 0/0
  2072 ;; Data sizes:     COMRAM   BANK0   BANK1   BANK2   BANK3   BANK4   BANK5   BANK6   BANK7   BANK8   BANK9  BANK10  BANK1
      +1  BANK12  BANK13  BANK14  BANK15
  2073 ;;      Params:         1       0       0       0       0       0       0       0       0       0       0       0       
      +0       0       0       0       0
  2074 ;;      Locals:         1       0       0       0       0       0       0       0       0       0       0       0       
      +0       0       0       0       0
  2075 ;;      Temps:          2       0       0       0       0       0       0       0       0       0       0       0       
      +0       0       0       0       0
  2076 ;;      Totals:         4       0       0       0       0       0       0       0       0       0       0       0       
      +0       0       0       0       0
  2077 ;;Total ram usage:        4 bytes
  2078 ;; Hardware stack levels used: 1
  2079 ;; Hardware stack levels required when called: 5
  2080 ;; This function calls:
  2081 ;;		Nothing
  2082 ;; This function is called by:
  2083 ;;		_Interrupt_INTx_Init
  2084 ;;		_Interrupt_INTx_DeInit
  2085 ;; This function uses a non-reentrant model
  2086 ;;
  2087                           
  2088                           	psect	text15
  2089   0014BE                     __ptext15:
  2090                           	callstack 0
  2091   0014BE                     _Interrupt_INTx_Disable:
  2092                           	callstack 24
  2093   0014BE                     
  2094                           ;MCAL_Layer/Interrupt/mcal_external_interrupt.c: 134:     std_ReturnType ret = (std_Retu
      +                          rnType)0x01;
  2095   0014BE  0E01               	movlw	1
  2096   0014C0  6E55               	movwf	Interrupt_INTx_Disable@ret^0,c
  2097                           
  2098                           ;MCAL_Layer/Interrupt/mcal_external_interrupt.c: 135:     if(int_obj == ((void*)0)){
  2099   0014C2  5052               	movf	Interrupt_INTx_Disable@int_obj^0,w,c
  2100   0014C4  A4D8               	btfss	status,2,c
  2101   0014C6  EF67  F00A         	goto	u1431
  2102   0014CA  EF69  F00A         	goto	u1430
  2103   0014CE                     u1431:
  2104   0014CE  EF76  F00A         	goto	l2607
  2105   0014D2                     u1430:
  2106   0014D2                     l2603:
  2107                           
  2108                           ;MCAL_Layer/Interrupt/mcal_external_interrupt.c: 136:         ret = (std_ReturnType)0x00
      +                          ;
  2109   0014D2  0E00               	movlw	0
  2110   0014D4  6E55               	movwf	Interrupt_INTx_Disable@ret^0,c
  2111                           
  2112                           ;MCAL_Layer/Interrupt/mcal_external_interrupt.c: 137:     }
  2113   0014D6  EF94  F00A         	goto	l2609
  2114   0014DA                     l509:
  2115   0014DA  98F2               	bcf	242,4,c	;volatile
  2116   0014DC  EF94  F00A         	goto	l2609
  2117   0014E0                     l511:
  2118   0014E0  96F0               	bcf	240,3,c	;volatile
  2119   0014E2  EF94  F00A         	goto	l2609
  2120   0014E6                     l512:
  2121   0014E6  98F0               	bcf	240,4,c	;volatile
  2122   0014E8  EF94  F00A         	goto	l2609
  2123   0014EC                     l2607:
  2124   0014EC  5052               	movf	Interrupt_INTx_Disable@int_obj^0,w,c
  2125   0014EE  6ED9               	movwf	fsr2l,c
  2126   0014F0  6ADA               	clrf	fsr2h,c
  2127   0014F2  0E03               	movlw	3
  2128   0014F4  26D9               	addwf	fsr2l,f,c
  2129   0014F6  50DF               	movf	indf2,w,c
  2130   0014F8  6E53               	movwf	??_Interrupt_INTx_Disable^0,c
  2131   0014FA  6A54               	clrf	(??_Interrupt_INTx_Disable+1)^0,c
  2132                           
  2133                           ; Switch on 2 bytes has been partitioned into a top level switch of size 1, and 1 sub-sw
      +                          itches
  2134                           ; Switch size 1, requested type "simple"
  2135                           ; Number of cases is 1, Range of values is 0 to 0
  2136                           ; switch strategies available:
  2137                           ; Name         Instructions Cycles
  2138                           ; simple_byte            4     3 (average)
  2139                           ;	Chosen strategy is simple_byte
  2140   0014FC  5054               	movf	(??_Interrupt_INTx_Disable+1)^0,w,c
  2141   0014FE  0A00               	xorlw	0	; case 0
  2142   001500  B4D8               	btfsc	status,2,c
  2143   001502  EF85  F00A         	goto	l3345
  2144   001506  EF69  F00A         	goto	l2603
  2145   00150A                     l3345:
  2146                           
  2147                           ; Switch size 1, requested type "simple"
  2148                           ; Number of cases is 3, Range of values is 0 to 2
  2149                           ; switch strategies available:
  2150                           ; Name         Instructions Cycles
  2151                           ; simple_byte           10     6 (average)
  2152                           ;	Chosen strategy is simple_byte
  2153   00150A  5053               	movf	??_Interrupt_INTx_Disable^0,w,c
  2154   00150C  0A00               	xorlw	0	; case 0
  2155   00150E  B4D8               	btfsc	status,2,c
  2156   001510  EF6D  F00A         	goto	l509
  2157   001514  0A01               	xorlw	1	; case 1
  2158   001516  B4D8               	btfsc	status,2,c
  2159   001518  EF70  F00A         	goto	l511
  2160   00151C  0A03               	xorlw	3	; case 2
  2161   00151E  B4D8               	btfsc	status,2,c
  2162   001520  EF73  F00A         	goto	l512
  2163   001524  EF69  F00A         	goto	l2603
  2164   001528                     l2609:
  2165                           
  2166                           ;MCAL_Layer/Interrupt/mcal_external_interrupt.c: 147:     return ret;
  2167   001528  5055               	movf	Interrupt_INTx_Disable@ret^0,w,c
  2168   00152A  0012               	return		;funcret
  2169   00152C                     __end_of_Interrupt_INTx_Disable:
  2170                           	callstack 0
  2171                           
  2172 ;; *************** function _Interrupt_INTx_Clear_Flag *****************
  2173 ;; Defined at:
  2174 ;;		line 149 in file "MCAL_Layer/Interrupt/mcal_external_interrupt.c"
  2175 ;; Parameters:    Size  Location     Type
  2176 ;;  int_obj         1   14[COMRAM] PTR const struct .
  2177 ;;		 -> int2(6), int1(6), int0(6), 
  2178 ;; Auto vars:     Size  Location     Type
  2179 ;;  ret             1   17[COMRAM] unsigned char 
  2180 ;; Return value:  Size  Location     Type
  2181 ;;                  1    wreg      unsigned char 
  2182 ;; Registers used:
  2183 ;;		wreg, fsr2l, fsr2h, status,2, status,0
  2184 ;; Tracked objects:
  2185 ;;		On entry : 0/0
  2186 ;;		On exit  : 0/0
  2187 ;;		Unchanged: 0/0
  2188 ;; Data sizes:     COMRAM   BANK0   BANK1   BANK2   BANK3   BANK4   BANK5   BANK6   BANK7   BANK8   BANK9  BANK10  BANK1
      +1  BANK12  BANK13  BANK14  BANK15
  2189 ;;      Params:         1       0       0       0       0       0       0       0       0       0       0       0       
      +0       0       0       0       0
  2190 ;;      Locals:         1       0       0       0       0       0       0       0       0       0       0       0       
      +0       0       0       0       0
  2191 ;;      Temps:          2       0       0       0       0       0       0       0       0       0       0       0       
      +0       0       0       0       0
  2192 ;;      Totals:         4       0       0       0       0       0       0       0       0       0       0       0       
      +0       0       0       0       0
  2193 ;;Total ram usage:        4 bytes
  2194 ;; Hardware stack levels used: 1
  2195 ;; Hardware stack levels required when called: 5
  2196 ;; This function calls:
  2197 ;;		Nothing
  2198 ;; This function is called by:
  2199 ;;		_Interrupt_INTx_Init
  2200 ;; This function uses a non-reentrant model
  2201 ;;
  2202                           
  2203                           	psect	text16
  2204   00152C                     __ptext16:
  2205                           	callstack 0
  2206   00152C                     _Interrupt_INTx_Clear_Flag:
  2207                           	callstack 24
  2208   00152C                     
  2209                           ;MCAL_Layer/Interrupt/mcal_external_interrupt.c: 150:     std_ReturnType ret = (std_Retu
      +                          rnType)0x01;
  2210   00152C  0E01               	movlw	1
  2211   00152E  6E55               	movwf	Interrupt_INTx_Clear_Flag@ret^0,c
  2212                           
  2213                           ;MCAL_Layer/Interrupt/mcal_external_interrupt.c: 151:     if(int_obj == ((void*)0)){
  2214   001530  5052               	movf	Interrupt_INTx_Clear_Flag@int_obj^0,w,c
  2215   001532  A4D8               	btfss	status,2,c
  2216   001534  EF9E  F00A         	goto	u1441
  2217   001538  EFA0  F00A         	goto	u1440
  2218   00153C                     u1441:
  2219   00153C  EFAD  F00A         	goto	l2623
  2220   001540                     u1440:
  2221   001540                     l2619:
  2222                           
  2223                           ;MCAL_Layer/Interrupt/mcal_external_interrupt.c: 152:         ret = (std_ReturnType)0x00
      +                          ;
  2224   001540  0E00               	movlw	0
  2225   001542  6E55               	movwf	Interrupt_INTx_Clear_Flag@ret^0,c
  2226                           
  2227                           ;MCAL_Layer/Interrupt/mcal_external_interrupt.c: 153:     }
  2228   001544  EFCB  F00A         	goto	l2625
  2229   001548                     l520:
  2230   001548  92F2               	bcf	242,1,c	;volatile
  2231   00154A  EFCB  F00A         	goto	l2625
  2232   00154E                     l522:
  2233   00154E  90F0               	bcf	240,0,c	;volatile
  2234   001550  EFCB  F00A         	goto	l2625
  2235   001554                     l523:
  2236   001554  92F0               	bcf	240,1,c	;volatile
  2237   001556  EFCB  F00A         	goto	l2625
  2238   00155A                     l2623:
  2239   00155A  5052               	movf	Interrupt_INTx_Clear_Flag@int_obj^0,w,c
  2240   00155C  6ED9               	movwf	fsr2l,c
  2241   00155E  6ADA               	clrf	fsr2h,c
  2242   001560  0E03               	movlw	3
  2243   001562  26D9               	addwf	fsr2l,f,c
  2244   001564  50DF               	movf	indf2,w,c
  2245   001566  6E53               	movwf	??_Interrupt_INTx_Clear_Flag^0,c
  2246   001568  6A54               	clrf	(??_Interrupt_INTx_Clear_Flag+1)^0,c
  2247                           
  2248                           ; Switch on 2 bytes has been partitioned into a top level switch of size 1, and 1 sub-sw
      +                          itches
  2249                           ; Switch size 1, requested type "simple"
  2250                           ; Number of cases is 1, Range of values is 0 to 0
  2251                           ; switch strategies available:
  2252                           ; Name         Instructions Cycles
  2253                           ; simple_byte            4     3 (average)
  2254                           ;	Chosen strategy is simple_byte
  2255   00156A  5054               	movf	(??_Interrupt_INTx_Clear_Flag+1)^0,w,c
  2256   00156C  0A00               	xorlw	0	; case 0
  2257   00156E  B4D8               	btfsc	status,2,c
  2258   001570  EFBC  F00A         	goto	l3347
  2259   001574  EFA0  F00A         	goto	l2619
  2260   001578                     l3347:
  2261                           
  2262                           ; Switch size 1, requested type "simple"
  2263                           ; Number of cases is 3, Range of values is 0 to 2
  2264                           ; switch strategies available:
  2265                           ; Name         Instructions Cycles
  2266                           ; simple_byte           10     6 (average)
  2267                           ;	Chosen strategy is simple_byte
  2268   001578  5053               	movf	??_Interrupt_INTx_Clear_Flag^0,w,c
  2269   00157A  0A00               	xorlw	0	; case 0
  2270   00157C  B4D8               	btfsc	status,2,c
  2271   00157E  EFA4  F00A         	goto	l520
  2272   001582  0A01               	xorlw	1	; case 1
  2273   001584  B4D8               	btfsc	status,2,c
  2274   001586  EFA7  F00A         	goto	l522
  2275   00158A  0A03               	xorlw	3	; case 2
  2276   00158C  B4D8               	btfsc	status,2,c
  2277   00158E  EFAA  F00A         	goto	l523
  2278   001592  EFA0  F00A         	goto	l2619
  2279   001596                     l2625:
  2280                           
  2281                           ;MCAL_Layer/Interrupt/mcal_external_interrupt.c: 163:     return ret;
  2282   001596  5055               	movf	Interrupt_INTx_Clear_Flag@ret^0,w,c
  2283   001598  0012               	return		;funcret
  2284   00159A                     __end_of_Interrupt_INTx_Clear_Flag:
  2285                           	callstack 0
  2286                           
  2287 ;; *************** function _InterruptMangaer *****************
  2288 ;; Defined at:
  2289 ;;		line 19 in file "MCAL_Layer/Interrupt/mcal_interrupt_manager.c"
  2290 ;; Parameters:    Size  Location     Type
  2291 ;;		None
  2292 ;; Auto vars:     Size  Location     Type
  2293 ;;		None
  2294 ;; Return value:  Size  Location     Type
  2295 ;;                  1    wreg      void 
  2296 ;; Registers used:
  2297 ;;		wreg, fsr2l, fsr2h, status,2, status,0, pcl, pclath, pclatu, tosl, prodl, prodh, cstack
  2298 ;; Tracked objects:
  2299 ;;		On entry : 0/0
  2300 ;;		On exit  : 0/0
  2301 ;;		Unchanged: 0/0
  2302 ;; Data sizes:     COMRAM   BANK0   BANK1   BANK2   BANK3   BANK4   BANK5   BANK6   BANK7   BANK8   BANK9  BANK10  BANK1
      +1  BANK12  BANK13  BANK14  BANK15
  2303 ;;      Params:         0       0       0       0       0       0       0       0       0       0       0       0       
      +0       0       0       0       0
  2304 ;;      Locals:         0       0       0       0       0       0       0       0       0       0       0       0       
      +0       0       0       0       0
  2305 ;;      Temps:          6       0       0       0       0       0       0       0       0       0       0       0       
      +0       0       0       0       0
  2306 ;;      Totals:         6       0       0       0       0       0       0       0       0       0       0       0       
      +0       0       0       0       0
  2307 ;;Total ram usage:        6 bytes
  2308 ;; Hardware stack levels used: 1
  2309 ;; Hardware stack levels required when called: 4
  2310 ;; This function calls:
  2311 ;;		_INT0_ISR
  2312 ;;		_INT1_ISR
  2313 ;;		_INT2_ISR
  2314 ;; This function is called by:
  2315 ;;		Interrupt level 2
  2316 ;; This function uses a non-reentrant model
  2317 ;;
  2318                           
  2319                           	psect	intcode
  2320   000008                     __pintcode:
  2321                           	callstack 0
  2322   000008                     _InterruptMangaer:
  2323                           	callstack 21
  2324                           
  2325                           ;incstack = 0
  2326   000008  826D               	bsf	int$flags,1,c	;set compiler interrupt flag (level 2)
  2327   00000A  EDD7  F009         	call	int_func,f	;refresh shadow registers
  2328                           
  2329                           	psect	intcode_body
  2330   0013AE                     __pintcode_body:
  2331                           	callstack 21
  2332   0013AE                     int_func:
  2333                           	callstack 21
  2334   0013AE  0006               	pop		; remove dummy address from shadow register refresh
  2335   0013B0  CFFA F04C          	movff	pclath,??_InterruptMangaer
  2336   0013B4  CFFB F04D          	movff	pclatu,??_InterruptMangaer+1
  2337   0013B8  CFD9 F04E          	movff	fsr2l,??_InterruptMangaer+2
  2338   0013BC  CFDA F04F          	movff	fsr2h,??_InterruptMangaer+3
  2339   0013C0  CFF3 F050          	movff	prodl,??_InterruptMangaer+4
  2340   0013C4  CFF4 F051          	movff	prodh,??_InterruptMangaer+5
  2341   0013C8                     
  2342                           ;MCAL_Layer/Interrupt/mcal_interrupt_manager.c: 20:     if((INTCONbits.INT0IE == 1) && (
      +                          INTCONbits.INT0IF == 1)){
  2343   0013C8  A8F2               	btfss	242,4,c	;volatile
  2344   0013CA  EFE9  F009         	goto	i2u210_41
  2345   0013CE  EFEB  F009         	goto	i2u210_40
  2346   0013D2                     i2u210_41:
  2347   0013D2  EFF4  F009         	goto	i2l645
  2348   0013D6                     i2u210_40:
  2349   0013D6  A2F2               	btfss	242,1,c	;volatile
  2350   0013D8  EFF0  F009         	goto	i2u211_41
  2351   0013DC  EFF2  F009         	goto	i2u211_40
  2352   0013E0                     i2u211_41:
  2353   0013E0  EFF4  F009         	goto	i2l645
  2354   0013E4                     i2u211_40:
  2355   0013E4                     
  2356                           ;MCAL_Layer/Interrupt/mcal_interrupt_manager.c: 21:         INT0_ISR();
  2357   0013E4  EC18  F00C         	call	_INT0_ISR	;wreg free
  2358   0013E8                     i2l645:
  2359                           
  2360                           ;MCAL_Layer/Interrupt/mcal_interrupt_manager.c: 26:     if((1 == INTCON3bits.INT1E) && (
      +                          1 == INTCON3bits.INT1F)){
  2361   0013E8  A6F0               	btfss	240,3,c	;volatile
  2362   0013EA  EFF9  F009         	goto	i2u212_41
  2363   0013EE  EFFB  F009         	goto	i2u212_40
  2364   0013F2                     i2u212_41:
  2365   0013F2  EF04  F00A         	goto	i2l647
  2366   0013F6                     i2u212_40:
  2367   0013F6  A0F0               	btfss	240,0,c	;volatile
  2368   0013F8  EF00  F00A         	goto	i2u213_41
  2369   0013FC  EF02  F00A         	goto	i2u213_40
  2370   001400                     i2u213_41:
  2371   001400  EF04  F00A         	goto	i2l647
  2372   001404                     i2u213_40:
  2373   001404                     
  2374                           ;MCAL_Layer/Interrupt/mcal_interrupt_manager.c: 27:         INT1_ISR();
  2375   001404  EC01  F00C         	call	_INT1_ISR	;wreg free
  2376   001408                     i2l647:
  2377                           
  2378                           ;MCAL_Layer/Interrupt/mcal_interrupt_manager.c: 30:     if((1 == INTCON3bits.INT2IE) && 
      +                          (1 == INTCON3bits.INT2IF)){
  2379   001408  A8F0               	btfss	240,4,c	;volatile
  2380   00140A  EF09  F00A         	goto	i2u214_41
  2381   00140E  EF0B  F00A         	goto	i2u214_40
  2382   001412                     i2u214_41:
  2383   001412  EF14  F00A         	goto	i2l650
  2384   001416                     i2u214_40:
  2385   001416  A2F0               	btfss	240,1,c	;volatile
  2386   001418  EF10  F00A         	goto	i2u215_41
  2387   00141C  EF12  F00A         	goto	i2u215_40
  2388   001420                     i2u215_41:
  2389   001420  EF14  F00A         	goto	i2l650
  2390   001424                     i2u215_40:
  2391   001424                     
  2392                           ;MCAL_Layer/Interrupt/mcal_interrupt_manager.c: 31:         INT2_ISR();
  2393   001424  ECEA  F00B         	call	_INT2_ISR	;wreg free
  2394   001428                     i2l650:
  2395   001428  C051  FFF4         	movff	??_InterruptMangaer+5,prodh
  2396   00142C  C050  FFF3         	movff	??_InterruptMangaer+4,prodl
  2397   001430  C04F  FFDA         	movff	??_InterruptMangaer+3,fsr2h
  2398   001434  C04E  FFD9         	movff	??_InterruptMangaer+2,fsr2l
  2399   001438  C04D  FFFB         	movff	??_InterruptMangaer+1,pclatu
  2400   00143C  C04C  FFFA         	movff	??_InterruptMangaer,pclath
  2401   001440  926D               	bcf	int$flags,1,c	;clear compiler interrupt flag (level 2)
  2402   001442  0011               	retfie		f
  2403   001444                     __end_of_InterruptMangaer:
  2404                           	callstack 0
  2405                           
  2406 ;; *************** function _INT2_ISR *****************
  2407 ;; Defined at:
  2408 ;;		line 70 in file "MCAL_Layer/Interrupt/mcal_external_interrupt.c"
  2409 ;; Parameters:    Size  Location     Type
  2410 ;;		None
  2411 ;; Auto vars:     Size  Location     Type
  2412 ;;		None
  2413 ;; Return value:  Size  Location     Type
  2414 ;;                  1    wreg      void 
  2415 ;; Registers used:
  2416 ;;		wreg, fsr2l, fsr2h, status,2, status,0, pcl, pclath, pclatu, tosl, prodl, prodh, cstack
  2417 ;; Tracked objects:
  2418 ;;		On entry : 0/0
  2419 ;;		On exit  : 0/0
  2420 ;;		Unchanged: 0/0
  2421 ;; Data sizes:     COMRAM   BANK0   BANK1   BANK2   BANK3   BANK4   BANK5   BANK6   BANK7   BANK8   BANK9  BANK10  BANK1
      +1  BANK12  BANK13  BANK14  BANK15
  2422 ;;      Params:         0       0       0       0       0       0       0       0       0       0       0       0       
      +0       0       0       0       0
  2423 ;;      Locals:         0       0       0       0       0       0       0       0       0       0       0       0       
      +0       0       0       0       0
  2424 ;;      Temps:          0       0       0       0       0       0       0       0       0       0       0       0       
      +0       0       0       0       0
  2425 ;;      Totals:         0       0       0       0       0       0       0       0       0       0       0       0       
      +0       0       0       0       0
  2426 ;;Total ram usage:        0 bytes
  2427 ;; Hardware stack levels used: 1
  2428 ;; Hardware stack levels required when called: 3
  2429 ;; This function calls:
  2430 ;;		NULL
  2431 ;;		_int0_isr
  2432 ;;		_int1_isr
  2433 ;;		_int2_isr
  2434 ;; This function is called by:
  2435 ;;		_InterruptMangaer
  2436 ;; This function uses a non-reentrant model
  2437 ;;
  2438                           
  2439                           	psect	text18
  2440   0017D4                     __ptext18:
  2441                           	callstack 0
  2442   0017D4                     _INT2_ISR:
  2443                           	callstack 21
  2444   0017D4                     
  2445                           ;MCAL_Layer/Interrupt/mcal_external_interrupt.c: 72:     (INTCON3bits.INT2IF = 0);
  2446   0017D4  92F0               	bcf	240,1,c	;volatile
  2447   0017D6                     
  2448                           ;MCAL_Layer/Interrupt/mcal_external_interrupt.c: 76:     if(INT2_INTERRUPTHANDLER){
  2449   0017D6  505F               	movf	_INT2_INTERRUPTHANDLER^0,w,c
  2450   0017D8  1060               	iorwf	(_INT2_INTERRUPTHANDLER+1)^0,w,c
  2451   0017DA  B4D8               	btfsc	status,2,c
  2452   0017DC  EFF2  F00B         	goto	i2u167_41
  2453   0017E0  EFF4  F00B         	goto	i2u167_40
  2454   0017E4                     i2u167_41:
  2455   0017E4  EF00  F00C         	goto	i2l487
  2456   0017E8                     i2u167_40:
  2457   0017E8                     
  2458                           ;MCAL_Layer/Interrupt/mcal_external_interrupt.c: 77:         INT2_INTERRUPTHANDLER();
  2459   0017E8  D802               	call	i2u168_48
  2460   0017EA  EF00  F00C         	goto	i2u168_49
  2461   0017EE                     i2u168_48:
  2462   0017EE  0005               	push	
  2463   0017F0  6EFA               	movwf	pclath,c
  2464   0017F2  505F               	movf	_INT2_INTERRUPTHANDLER^0,w,c
  2465   0017F4  6EFD               	movwf	tosl,c
  2466   0017F6  5060               	movf	(_INT2_INTERRUPTHANDLER+1)^0,w,c
  2467   0017F8  6EFE               	movwf	tosh,c
  2468   0017FA  6AFF               	clrf	tosu,c
  2469   0017FC  50FA               	movf	pclath,w,c
  2470   0017FE  0012               	return		;indir
  2471   001800                     i2u168_49:
  2472   001800                     i2l487:
  2473   001800  0012               	return		;funcret
  2474   001802                     __end_of_INT2_ISR:
  2475                           	callstack 0
  2476                           
  2477 ;; *************** function _INT1_ISR *****************
  2478 ;; Defined at:
  2479 ;;		line 56 in file "MCAL_Layer/Interrupt/mcal_external_interrupt.c"
  2480 ;; Parameters:    Size  Location     Type
  2481 ;;		None
  2482 ;; Auto vars:     Size  Location     Type
  2483 ;;		None
  2484 ;; Return value:  Size  Location     Type
  2485 ;;                  1    wreg      void 
  2486 ;; Registers used:
  2487 ;;		wreg, fsr2l, fsr2h, status,2, status,0, pcl, pclath, pclatu, tosl, prodl, prodh, cstack
  2488 ;; Tracked objects:
  2489 ;;		On entry : 0/0
  2490 ;;		On exit  : 0/0
  2491 ;;		Unchanged: 0/0
  2492 ;; Data sizes:     COMRAM   BANK0   BANK1   BANK2   BANK3   BANK4   BANK5   BANK6   BANK7   BANK8   BANK9  BANK10  BANK1
      +1  BANK12  BANK13  BANK14  BANK15
  2493 ;;      Params:         0       0       0       0       0       0       0       0       0       0       0       0       
      +0       0       0       0       0
  2494 ;;      Locals:         0       0       0       0       0       0       0       0       0       0       0       0       
      +0       0       0       0       0
  2495 ;;      Temps:          0       0       0       0       0       0       0       0       0       0       0       0       
      +0       0       0       0       0
  2496 ;;      Totals:         0       0       0       0       0       0       0       0       0       0       0       0       
      +0       0       0       0       0
  2497 ;;Total ram usage:        0 bytes
  2498 ;; Hardware stack levels used: 1
  2499 ;; Hardware stack levels required when called: 3
  2500 ;; This function calls:
  2501 ;;		NULL
  2502 ;;		_int0_isr
  2503 ;;		_int1_isr
  2504 ;;		_int2_isr
  2505 ;; This function is called by:
  2506 ;;		_InterruptMangaer
  2507 ;; This function uses a non-reentrant model
  2508 ;;
  2509                           
  2510                           	psect	text19
  2511   001802                     __ptext19:
  2512                           	callstack 0
  2513   001802                     _INT1_ISR:
  2514                           	callstack 21
  2515   001802                     
  2516                           ;MCAL_Layer/Interrupt/mcal_external_interrupt.c: 58:     (INTCON3bits.INT1IF = 0);
  2517   001802  90F0               	bcf	240,0,c	;volatile
  2518   001804                     
  2519                           ;MCAL_Layer/Interrupt/mcal_external_interrupt.c: 62:     if(INT1_INTERRUPTHANDLER){
  2520   001804  5061               	movf	_INT1_INTERRUPTHANDLER^0,w,c
  2521   001806  1062               	iorwf	(_INT1_INTERRUPTHANDLER+1)^0,w,c
  2522   001808  B4D8               	btfsc	status,2,c
  2523   00180A  EF09  F00C         	goto	i2u165_41
  2524   00180E  EF0B  F00C         	goto	i2u165_40
  2525   001812                     i2u165_41:
  2526   001812  EF17  F00C         	goto	i2l482
  2527   001816                     i2u165_40:
  2528   001816                     
  2529                           ;MCAL_Layer/Interrupt/mcal_external_interrupt.c: 63:         INT1_INTERRUPTHANDLER();
  2530   001816  D802               	call	i2u166_48
  2531   001818  EF17  F00C         	goto	i2u166_49
  2532   00181C                     i2u166_48:
  2533   00181C  0005               	push	
  2534   00181E  6EFA               	movwf	pclath,c
  2535   001820  5061               	movf	_INT1_INTERRUPTHANDLER^0,w,c
  2536   001822  6EFD               	movwf	tosl,c
  2537   001824  5062               	movf	(_INT1_INTERRUPTHANDLER+1)^0,w,c
  2538   001826  6EFE               	movwf	tosh,c
  2539   001828  6AFF               	clrf	tosu,c
  2540   00182A  50FA               	movf	pclath,w,c
  2541   00182C  0012               	return		;indir
  2542   00182E                     i2u166_49:
  2543   00182E                     i2l482:
  2544   00182E  0012               	return		;funcret
  2545   001830                     __end_of_INT1_ISR:
  2546                           	callstack 0
  2547                           
  2548 ;; *************** function _INT0_ISR *****************
  2549 ;; Defined at:
  2550 ;;		line 42 in file "MCAL_Layer/Interrupt/mcal_external_interrupt.c"
  2551 ;; Parameters:    Size  Location     Type
  2552 ;;		None
  2553 ;; Auto vars:     Size  Location     Type
  2554 ;;		None
  2555 ;; Return value:  Size  Location     Type
  2556 ;;                  1    wreg      void 
  2557 ;; Registers used:
  2558 ;;		wreg, fsr2l, fsr2h, status,2, status,0, pcl, pclath, pclatu, tosl, prodl, prodh, cstack
  2559 ;; Tracked objects:
  2560 ;;		On entry : 0/0
  2561 ;;		On exit  : 0/0
  2562 ;;		Unchanged: 0/0
  2563 ;; Data sizes:     COMRAM   BANK0   BANK1   BANK2   BANK3   BANK4   BANK5   BANK6   BANK7   BANK8   BANK9  BANK10  BANK1
      +1  BANK12  BANK13  BANK14  BANK15
  2564 ;;      Params:         0       0       0       0       0       0       0       0       0       0       0       0       
      +0       0       0       0       0
  2565 ;;      Locals:         0       0       0       0       0       0       0       0       0       0       0       0       
      +0       0       0       0       0
  2566 ;;      Temps:          0       0       0       0       0       0       0       0       0       0       0       0       
      +0       0       0       0       0
  2567 ;;      Totals:         0       0       0       0       0       0       0       0       0       0       0       0       
      +0       0       0       0       0
  2568 ;;Total ram usage:        0 bytes
  2569 ;; Hardware stack levels used: 1
  2570 ;; Hardware stack levels required when called: 3
  2571 ;; This function calls:
  2572 ;;		NULL
  2573 ;;		_int0_isr
  2574 ;;		_int1_isr
  2575 ;;		_int2_isr
  2576 ;; This function is called by:
  2577 ;;		_InterruptMangaer
  2578 ;; This function uses a non-reentrant model
  2579 ;;
  2580                           
  2581                           	psect	text20
  2582   001830                     __ptext20:
  2583                           	callstack 0
  2584   001830                     _INT0_ISR:
  2585                           	callstack 21
  2586   001830                     
  2587                           ;MCAL_Layer/Interrupt/mcal_external_interrupt.c: 44:     (INTCONbits.INT0IF = 0);
  2588   001830  92F2               	bcf	242,1,c	;volatile
  2589   001832                     
  2590                           ;MCAL_Layer/Interrupt/mcal_external_interrupt.c: 48:     if(INT0_INTERRUPTHANDLER){
  2591   001832  5063               	movf	_INT0_INTERRUPTHANDLER^0,w,c
  2592   001834  1064               	iorwf	(_INT0_INTERRUPTHANDLER+1)^0,w,c
  2593   001836  B4D8               	btfsc	status,2,c
  2594   001838  EF20  F00C         	goto	i2u163_41
  2595   00183C  EF22  F00C         	goto	i2u163_40
  2596   001840                     i2u163_41:
  2597   001840  EF2E  F00C         	goto	i2l477
  2598   001844                     i2u163_40:
  2599   001844                     
  2600                           ;MCAL_Layer/Interrupt/mcal_external_interrupt.c: 49:         INT0_INTERRUPTHANDLER();
  2601   001844  D802               	call	i2u164_48
  2602   001846  EF2E  F00C         	goto	i2u164_49
  2603   00184A                     i2u164_48:
  2604   00184A  0005               	push	
  2605   00184C  6EFA               	movwf	pclath,c
  2606   00184E  5063               	movf	_INT0_INTERRUPTHANDLER^0,w,c
  2607   001850  6EFD               	movwf	tosl,c
  2608   001852  5064               	movf	(_INT0_INTERRUPTHANDLER+1)^0,w,c
  2609   001854  6EFE               	movwf	tosh,c
  2610   001856  6AFF               	clrf	tosu,c
  2611   001858  50FA               	movf	pclath,w,c
  2612   00185A  0012               	return		;indir
  2613   00185C                     i2u164_49:
  2614   00185C                     i2l477:
  2615   00185C  0012               	return		;funcret
  2616   00185E                     __end_of_INT0_ISR:
  2617                           	callstack 0
  2618                           
  2619 ;; *************** function _int1_isr *****************
  2620 ;; Defined at:
  2621 ;;		line 13 in file "application.c"
  2622 ;; Parameters:    Size  Location     Type
  2623 ;;		None
  2624 ;; Auto vars:     Size  Location     Type
  2625 ;;		None
  2626 ;; Return value:  Size  Location     Type
  2627 ;;                  1    wreg      void 
  2628 ;; Registers used:
  2629 ;;		wreg, fsr2l, fsr2h, status,2, status,0, prodl, prodh, cstack
  2630 ;; Tracked objects:
  2631 ;;		On entry : 0/0
  2632 ;;		On exit  : 0/0
  2633 ;;		Unchanged: 0/0
  2634 ;; Data sizes:     COMRAM   BANK0   BANK1   BANK2   BANK3   BANK4   BANK5   BANK6   BANK7   BANK8   BANK9  BANK10  BANK1
      +1  BANK12  BANK13  BANK14  BANK15
  2635 ;;      Params:         0       0       0       0       0       0       0       0       0       0       0       0       
      +0       0       0       0       0
  2636 ;;      Locals:         0       0       0       0       0       0       0       0       0       0       0       0       
      +0       0       0       0       0
  2637 ;;      Temps:          0       0       0       0       0       0       0       0       0       0       0       0       
      +0       0       0       0       0
  2638 ;;      Totals:         0       0       0       0       0       0       0       0       0       0       0       0       
      +0       0       0       0       0
  2639 ;;Total ram usage:        0 bytes
  2640 ;; Hardware stack levels used: 1
  2641 ;; Hardware stack levels required when called: 2
  2642 ;; This function calls:
  2643 ;;		_led_turn_toggle
  2644 ;; This function is called by:
  2645 ;;		_INT0_ISR
  2646 ;;		_INT1_ISR
  2647 ;;		_INT2_ISR
  2648 ;; This function uses a non-reentrant model
  2649 ;;
  2650                           
  2651                           	psect	text21
  2652   001924                     __ptext21:
  2653                           	callstack 0
  2654   001924                     _int1_isr:
  2655                           	callstack 21
  2656   001924                     
  2657                           ;application.c: 14:     led_turn_toggle(&led2);
  2658   001924  0E42               	movlw	low _led2
  2659   001926  6E49               	movwf	led_turn_toggle@led^0,c
  2660   001928  EC02  F00B         	call	_led_turn_toggle	;wreg free
  2661   00192C  0012               	return		;funcret
  2662   00192E                     __end_of_int1_isr:
  2663                           	callstack 0
  2664                           
  2665 ;; *************** function _int0_isr *****************
  2666 ;; Defined at:
  2667 ;;		line 10 in file "application.c"
  2668 ;; Parameters:    Size  Location     Type
  2669 ;;		None
  2670 ;; Auto vars:     Size  Location     Type
  2671 ;;		None
  2672 ;; Return value:  Size  Location     Type
  2673 ;;                  1    wreg      void 
  2674 ;; Registers used:
  2675 ;;		wreg, fsr2l, fsr2h, status,2, status,0, prodl, prodh, cstack
  2676 ;; Tracked objects:
  2677 ;;		On entry : 0/0
  2678 ;;		On exit  : 0/0
  2679 ;;		Unchanged: 0/0
  2680 ;; Data sizes:     COMRAM   BANK0   BANK1   BANK2   BANK3   BANK4   BANK5   BANK6   BANK7   BANK8   BANK9  BANK10  BANK1
      +1  BANK12  BANK13  BANK14  BANK15
  2681 ;;      Params:         0       0       0       0       0       0       0       0       0       0       0       0       
      +0       0       0       0       0
  2682 ;;      Locals:         0       0       0       0       0       0       0       0       0       0       0       0       
      +0       0       0       0       0
  2683 ;;      Temps:          0       0       0       0       0       0       0       0       0       0       0       0       
      +0       0       0       0       0
  2684 ;;      Totals:         0       0       0       0       0       0       0       0       0       0       0       0       
      +0       0       0       0       0
  2685 ;;Total ram usage:        0 bytes
  2686 ;; Hardware stack levels used: 1
  2687 ;; Hardware stack levels required when called: 2
  2688 ;; This function calls:
  2689 ;;		_led_turn_toggle
  2690 ;; This function is called by:
  2691 ;;		_INT0_ISR
  2692 ;;		_INT1_ISR
  2693 ;;		_INT2_ISR
  2694 ;; This function uses a non-reentrant model
  2695 ;;
  2696                           
  2697                           	psect	text22
  2698   00192E                     __ptext22:
  2699                           	callstack 0
  2700   00192E                     _int0_isr:
  2701                           	callstack 21
  2702   00192E                     
  2703                           ;application.c: 11:     led_turn_toggle(&led1);
  2704   00192E  0E43               	movlw	low _led1
  2705   001930  6E49               	movwf	led_turn_toggle@led^0,c
  2706   001932  EC02  F00B         	call	_led_turn_toggle	;wreg free
  2707   001936  0012               	return		;funcret
  2708   001938                     __end_of_int0_isr:
  2709                           	callstack 0
  2710                           
  2711 ;; *************** function _int2_isr *****************
  2712 ;; Defined at:
  2713 ;;		line 16 in file "application.c"
  2714 ;; Parameters:    Size  Location     Type
  2715 ;;		None
  2716 ;; Auto vars:     Size  Location     Type
  2717 ;;		None
  2718 ;; Return value:  Size  Location     Type
  2719 ;;                  1    wreg      void 
  2720 ;; Registers used:
  2721 ;;		wreg, fsr2l, fsr2h, status,2, status,0, prodl, prodh, cstack
  2722 ;; Tracked objects:
  2723 ;;		On entry : 0/0
  2724 ;;		On exit  : 0/0
  2725 ;;		Unchanged: 0/0
  2726 ;; Data sizes:     COMRAM   BANK0   BANK1   BANK2   BANK3   BANK4   BANK5   BANK6   BANK7   BANK8   BANK9  BANK10  BANK1
      +1  BANK12  BANK13  BANK14  BANK15
  2727 ;;      Params:         0       0       0       0       0       0       0       0       0       0       0       0       
      +0       0       0       0       0
  2728 ;;      Locals:         0       0       0       0       0       0       0       0       0       0       0       0       
      +0       0       0       0       0
  2729 ;;      Temps:          0       0       0       0       0       0       0       0       0       0       0       0       
      +0       0       0       0       0
  2730 ;;      Totals:         0       0       0       0       0       0       0       0       0       0       0       0       
      +0       0       0       0       0
  2731 ;;Total ram usage:        0 bytes
  2732 ;; Hardware stack levels used: 1
  2733 ;; Hardware stack levels required when called: 2
  2734 ;; This function calls:
  2735 ;;		_led_turn_toggle
  2736 ;; This function is called by:
  2737 ;;		_INT0_ISR
  2738 ;;		_INT1_ISR
  2739 ;;		_INT2_ISR
  2740 ;; This function uses a non-reentrant model
  2741 ;;
  2742                           
  2743                           	psect	text23
  2744   001938                     __ptext23:
  2745                           	callstack 0
  2746   001938                     _int2_isr:
  2747                           	callstack 21
  2748   001938                     
  2749                           ;application.c: 17:     led_turn_toggle(&led3);
  2750   001938  0E41               	movlw	low _led3
  2751   00193A  6E49               	movwf	led_turn_toggle@led^0,c
  2752   00193C  EC02  F00B         	call	_led_turn_toggle	;wreg free
  2753   001940  0012               	return		;funcret
  2754   001942                     __end_of_int2_isr:
  2755                           	callstack 0
  2756                           
  2757 ;; *************** function _led_turn_toggle *****************
  2758 ;; Defined at:
  2759 ;;		line 54 in file "ECU_Layer/LED/ecu_led.c"
  2760 ;; Parameters:    Size  Location     Type
  2761 ;;  led             1    5[COMRAM] PTR const struct .
  2762 ;;		 -> led3(1), led2(1), led1(1), 
  2763 ;; Auto vars:     Size  Location     Type
  2764 ;;  pin_obj         1    7[COMRAM] struct .
  2765 ;;  ret             1    0        unsigned char 
  2766 ;; Return value:  Size  Location     Type
  2767 ;;                  1    wreg      unsigned char 
  2768 ;; Registers used:
  2769 ;;		wreg, fsr2l, fsr2h, status,2, status,0, prodl, prodh, cstack
  2770 ;; Tracked objects:
  2771 ;;		On entry : 0/0
  2772 ;;		On exit  : 0/0
  2773 ;;		Unchanged: 0/0
  2774 ;; Data sizes:     COMRAM   BANK0   BANK1   BANK2   BANK3   BANK4   BANK5   BANK6   BANK7   BANK8   BANK9  BANK10  BANK1
      +1  BANK12  BANK13  BANK14  BANK15
  2775 ;;      Params:         1       0       0       0       0       0       0       0       0       0       0       0       
      +0       0       0       0       0
  2776 ;;      Locals:         1       0       0       0       0       0       0       0       0       0       0       0       
      +0       0       0       0       0
  2777 ;;      Temps:          1       0       0       0       0       0       0       0       0       0       0       0       
      +0       0       0       0       0
  2778 ;;      Totals:         3       0       0       0       0       0       0       0       0       0       0       0       
      +0       0       0       0       0
  2779 ;;Total ram usage:        3 bytes
  2780 ;; Hardware stack levels used: 1
  2781 ;; Hardware stack levels required when called: 1
  2782 ;; This function calls:
  2783 ;;		_gpio_pin_toggle_logic
  2784 ;; This function is called by:
  2785 ;;		_int0_isr
  2786 ;;		_int1_isr
  2787 ;;		_int2_isr
  2788 ;; This function uses a non-reentrant model
  2789 ;;
  2790                           
  2791                           	psect	text24
  2792   001604                     __ptext24:
  2793                           	callstack 0
  2794   001604                     _led_turn_toggle:
  2795                           	callstack 21
  2796   001604                     
  2797                           ;ECU_Layer/LED/ecu_led.c: 56:     if(led == ((void*)0)){
  2798   001604  5049               	movf	led_turn_toggle@led^0,w,c
  2799   001606  A4D8               	btfss	status,2,c
  2800   001608  EF08  F00B         	goto	i2u131_41
  2801   00160C  EF0A  F00B         	goto	i2u131_40
  2802   001610                     i2u131_41:
  2803   001610  EF0C  F00B         	goto	i2l266
  2804   001614                     i2u131_40:
  2805   001614                     
  2806                           ;ECU_Layer/LED/ecu_led.c: 58:     }
  2807   001614  EF36  F00B         	goto	i2l270
  2808   001618                     i2l266:
  2809                           
  2810                           ;ECU_Layer/LED/ecu_led.c: 60:         pin_config_t pin_obj = {.port = led->port_name, .p
      +                          in = led->pin_name,
  2811   001618  C068  F04B         	movff	led_turn_toggle@F3077,led_turn_toggle@pin_obj
  2812   00161C  5049               	movf	led_turn_toggle@led^0,w,c
  2813   00161E  6ED9               	movwf	fsr2l,c
  2814   001620  6ADA               	clrf	fsr2h,c
  2815   001622  50DF               	movf	223,w,c
  2816   001624  0B07               	andlw	7
  2817   001626  6E4A               	movwf	??_led_turn_toggle^0,c
  2818   001628  504B               	movf	led_turn_toggle@pin_obj^0,w,c
  2819   00162A  184A               	xorwf	??_led_turn_toggle^0,w,c
  2820   00162C  0BF8               	andlw	-8
  2821   00162E  184A               	xorwf	??_led_turn_toggle^0,w,c
  2822   001630  6E4B               	movwf	led_turn_toggle@pin_obj^0,c
  2823   001632  5049               	movf	led_turn_toggle@led^0,w,c
  2824   001634  6ED9               	movwf	fsr2l,c
  2825   001636  6ADA               	clrf	fsr2h,c
  2826   001638  30DF               	rrcf	223,w,c
  2827   00163A  32E8               	rrcf	wreg,f,c
  2828   00163C  32E8               	rrcf	wreg,f,c
  2829   00163E  0B07               	andlw	7
  2830   001640  6E4A               	movwf	??_led_turn_toggle^0,c
  2831   001642  464A               	rlncf	??_led_turn_toggle^0,f,c
  2832   001644  464A               	rlncf	??_led_turn_toggle^0,f,c
  2833   001646  464A               	rlncf	??_led_turn_toggle^0,f,c
  2834   001648  504B               	movf	led_turn_toggle@pin_obj^0,w,c
  2835   00164A  184A               	xorwf	??_led_turn_toggle^0,w,c
  2836   00164C  0BC7               	andlw	-57
  2837   00164E  184A               	xorwf	??_led_turn_toggle^0,w,c
  2838   001650  6E4B               	movwf	led_turn_toggle@pin_obj^0,c
  2839   001652  9C4B               	bcf	led_turn_toggle@pin_obj^0,6,c
  2840   001654  5049               	movf	led_turn_toggle@led^0,w,c
  2841   001656  6ED9               	movwf	fsr2l,c
  2842   001658  6ADA               	clrf	fsr2h,c
  2843   00165A  ACDF               	btfss	indf2,6,c
  2844   00165C  D002               	bra	i2u132_45
  2845   00165E  8E4B               	bsf	led_turn_toggle@pin_obj^0,7,c
  2846   001660  D001               	bra	i2u132_47
  2847   001662                     i2u132_45:
  2848   001662  9E4B               	bcf	led_turn_toggle@pin_obj^0,7,c
  2849   001664                     i2u132_47:
  2850   001664                     
  2851                           ;ECU_Layer/LED/ecu_led.c: 62:         gpio_pin_toggle_logic(&pin_obj);
  2852   001664  0E4B               	movlw	low led_turn_toggle@pin_obj
  2853   001666  6E44               	movwf	gpio_pin_toggle_logic@_pin_config^0,c
  2854   001668  EC37  F00B         	call	_gpio_pin_toggle_logic	;wreg free
  2855   00166C                     i2l270:
  2856   00166C  0012               	return		;funcret
  2857   00166E                     __end_of_led_turn_toggle:
  2858                           	callstack 0
  2859                           
  2860 ;; *************** function _gpio_pin_toggle_logic *****************
  2861 ;; Defined at:
  2862 ;;		line 116 in file "MCAL_Layer/GPIO/hal_gpio.c"
  2863 ;; Parameters:    Size  Location     Type
  2864 ;;  _pin_config     1    0[COMRAM] PTR const struct .
  2865 ;;		 -> led_turn_toggle@pin_obj(1), 
  2866 ;; Auto vars:     Size  Location     Type
  2867 ;;  ret             1    0        unsigned char 
  2868 ;; Return value:  Size  Location     Type
  2869 ;;                  1    wreg      unsigned char 
  2870 ;; Registers used:
  2871 ;;		wreg, fsr2l, fsr2h, status,2, status,0, prodl, prodh
  2872 ;; Tracked objects:
  2873 ;;		On entry : 0/0
  2874 ;;		On exit  : 0/0
  2875 ;;		Unchanged: 0/0
  2876 ;; Data sizes:     COMRAM   BANK0   BANK1   BANK2   BANK3   BANK4   BANK5   BANK6   BANK7   BANK8   BANK9  BANK10  BANK1
      +1  BANK12  BANK13  BANK14  BANK15
  2877 ;;      Params:         1       0       0       0       0       0       0       0       0       0       0       0       
      +0       0       0       0       0
  2878 ;;      Locals:         0       0       0       0       0       0       0       0       0       0       0       0       
      +0       0       0       0       0
  2879 ;;      Temps:          4       0       0       0       0       0       0       0       0       0       0       0       
      +0       0       0       0       0
  2880 ;;      Totals:         5       0       0       0       0       0       0       0       0       0       0       0       
      +0       0       0       0       0
  2881 ;;Total ram usage:        5 bytes
  2882 ;; Hardware stack levels used: 1
  2883 ;; This function calls:
  2884 ;;		Nothing
  2885 ;; This function is called by:
  2886 ;;		_led_turn_toggle
  2887 ;; This function uses a non-reentrant model
  2888 ;;
  2889                           
  2890                           	psect	text25
  2891   00166E                     __ptext25:
  2892                           	callstack 0
  2893   00166E                     _gpio_pin_toggle_logic:
  2894                           	callstack 21
  2895   00166E                     
  2896                           ;MCAL_Layer/GPIO/hal_gpio.c: 118:     if(((void*)0) == _pin_config ){
  2897   00166E  5044               	movf	gpio_pin_toggle_logic@_pin_config^0,w,c
  2898   001670  A4D8               	btfss	status,2,c
  2899   001672  EF3D  F00B         	goto	i2u127_41
  2900   001676  EF3F  F00B         	goto	i2u127_40
  2901   00167A                     i2u127_41:
  2902   00167A  EF41  F00B         	goto	i2l2459
  2903   00167E                     i2u127_40:
  2904   00167E                     
  2905                           ;MCAL_Layer/GPIO/hal_gpio.c: 120:     }
  2906   00167E  EF67  F00B         	goto	i2l407
  2907   001682                     i2l2459:
  2908                           
  2909                           ;MCAL_Layer/GPIO/hal_gpio.c: 122:         (*lat_registers[_pin_config->port] ^= ((uint8)
      +                          1<<_pin_config->pin));
  2910   001682  5044               	movf	gpio_pin_toggle_logic@_pin_config^0,w,c
  2911   001684  6ED9               	movwf	fsr2l,c
  2912   001686  6ADA               	clrf	fsr2h,c
  2913   001688  30DF               	rrcf	223,w,c
  2914   00168A  32E8               	rrcf	wreg,f,c
  2915   00168C  32E8               	rrcf	wreg,f,c
  2916   00168E  0B07               	andlw	7
  2917   001690  6E45               	movwf	??_gpio_pin_toggle_logic^0,c
  2918   001692  0E01               	movlw	1
  2919   001694  6E46               	movwf	(??_gpio_pin_toggle_logic+1)^0,c
  2920   001696  2A45               	incf	??_gpio_pin_toggle_logic^0,f,c
  2921   001698  EF50  F00B         	goto	i2u128_44
  2922   00169C                     i2u128_45:
  2923   00169C  90D8               	bcf	status,0,c
  2924   00169E  3646               	rlcf	(??_gpio_pin_toggle_logic+1)^0,f,c
  2925   0016A0                     i2u128_44:
  2926   0016A0  2E45               	decfsz	??_gpio_pin_toggle_logic^0,f,c
  2927   0016A2  EF4E  F00B         	goto	i2u128_45
  2928   0016A6  5044               	movf	gpio_pin_toggle_logic@_pin_config^0,w,c
  2929   0016A8  6ED9               	movwf	fsr2l,c
  2930   0016AA  6ADA               	clrf	fsr2h,c
  2931   0016AC  50DF               	movf	223,w,c
  2932   0016AE  0B07               	andlw	7
  2933   0016B0  0D02               	mullw	2
  2934   0016B2  50F3               	movf	243,w,c
  2935   0016B4  0F1B               	addlw	low _lat_registers
  2936   0016B6  6ED9               	movwf	fsr2l,c
  2937   0016B8  6ADA               	clrf	fsr2h,c
  2938   0016BA  CFDE F047          	movff	postinc2,??_gpio_pin_toggle_logic+2
  2939   0016BE  CFDD F048          	movff	postdec2,??_gpio_pin_toggle_logic+3
  2940   0016C2  C047  FFD9         	movff	??_gpio_pin_toggle_logic+2,fsr2l
  2941   0016C6  C048  FFDA         	movff	??_gpio_pin_toggle_logic+3,fsr2h
  2942   0016CA  5046               	movf	(??_gpio_pin_toggle_logic+1)^0,w,c
  2943   0016CC  1ADF               	xorwf	indf2,f,c
  2944   0016CE                     i2l407:
  2945   0016CE  0012               	return		;funcret
  2946   0016D0                     __end_of_gpio_pin_toggle_logic:
  2947                           	callstack 0
  2948                           
  2949                           	psect	rparam
  2950   000000                     
  2951                           	psect	temp
  2952   00006D                     btemp:
  2953                           	callstack 0
  2954   00006D                     	ds	1
  2955   000000                     int$flags	set	btemp
  2956   000000                     wtemp8	set	btemp+1
  2957   000000                     ttemp5	set	btemp+1
  2958   000000                     ttemp6	set	btemp+4
  2959   000000                     ttemp7	set	btemp+8
  2960                           
  2961                           	psect	config
  2962                           
  2963                           ; Padding undefined space
  2964   300000                     	org	3145728
  2965   300000  FF                 	db	255
  2966                           
  2967                           ;Config register CONFIG1H @ 0x300001
  2968                           ;	Oscillator Selection bits
  2969                           ;	OSC = HS, HS oscillator
  2970                           ;	Fail-Safe Clock Monitor Enable bit
  2971                           ;	FCMEN = OFF, Fail-Safe Clock Monitor disabled
  2972                           ;	Internal/External Oscillator Switchover bit
  2973                           ;	IESO = OFF, Oscillator Switchover mode disabled
  2974   300001                     	org	3145729
  2975   300001  02                 	db	2
  2976                           
  2977                           ;Config register CONFIG2L @ 0x300002
  2978                           ;	Power-up Timer Enable bit
  2979                           ;	PWRT = OFF, PWRT disabled
  2980                           ;	Brown-out Reset Enable bits
  2981                           ;	BOREN = OFF, Brown-out Reset disabled in hardware and software
  2982                           ;	Brown Out Reset Voltage bits
  2983                           ;	BORV = 1, 
  2984   300002                     	org	3145730
  2985   300002  09                 	db	9
  2986                           
  2987                           ;Config register CONFIG2H @ 0x300003
  2988                           ;	Watchdog Timer Enable bit
  2989                           ;	WDT = OFF, WDT disabled (control is placed on the SWDTEN bit)
  2990                           ;	Watchdog Timer Postscale Select bits
  2991                           ;	WDTPS = 32768, 1:32768
  2992   300003                     	org	3145731
  2993   300003  1E                 	db	30
  2994                           
  2995                           ; Padding undefined space
  2996   300004                     	org	3145732
  2997   300004  FF                 	db	255
  2998                           
  2999                           ;Config register CONFIG3H @ 0x300005
  3000                           ;	CCP2 MUX bit
  3001                           ;	CCP2MX = PORTC, CCP2 input/output is multiplexed with RC1
  3002                           ;	PORTB A/D Enable bit
  3003                           ;	PBADEN = OFF, PORTB<4:0> pins are configured as digital I/O on Reset
  3004                           ;	Low-Power Timer1 Oscillator Enable bit
  3005                           ;	LPT1OSC = OFF, Timer1 configured for higher power operation
  3006                           ;	MCLR Pin Enable bit
  3007                           ;	MCLRE = ON, MCLR pin enabled; RE3 input pin disabled
  3008   300005                     	org	3145733
  3009   300005  81                 	db	129
  3010                           
  3011                           ;Config register CONFIG4L @ 0x300006
  3012                           ;	Stack Full/Underflow Reset Enable bit
  3013                           ;	STVREN = ON, Stack full/underflow will cause Reset
  3014                           ;	Single-Supply ICSP Enable bit
  3015                           ;	LVP = OFF, Single-Supply ICSP disabled
  3016                           ;	Extended Instruction Set Enable bit
  3017                           ;	XINST = OFF, Instruction set extension and Indexed Addressing mode disabled (Legacy mo
      +                          de)
  3018                           ;	Background Debugger Enable bit
  3019                           ;	DEBUG = 0x1, unprogrammed default
  3020   300006                     	org	3145734
  3021   300006  81                 	db	129
  3022                           
  3023                           ; Padding undefined space
  3024   300007                     	org	3145735
  3025   300007  FF                 	db	255
  3026                           
  3027                           ;Config register CONFIG5L @ 0x300008
  3028                           ;	Code Protection bit
  3029                           ;	CP0 = OFF, Block 0 (000800-003FFFh) not code-protected
  3030                           ;	Code Protection bit
  3031                           ;	CP1 = OFF, Block 1 (004000-007FFFh) not code-protected
  3032                           ;	Code Protection bit
  3033                           ;	CP2 = OFF, Block 2 (008000-00BFFFh) not code-protected
  3034                           ;	Code Protection bit
  3035                           ;	CP3 = OFF, Block 3 (00C000-00FFFFh) not code-protected
  3036   300008                     	org	3145736
  3037   300008  0F                 	db	15
  3038                           
  3039                           ;Config register CONFIG5H @ 0x300009
  3040                           ;	Boot Block Code Protection bit
  3041                           ;	CPB = OFF, Boot block (000000-0007FFh) not code-protected
  3042                           ;	Data EEPROM Code Protection bit
  3043                           ;	CPD = OFF, Data EEPROM not code-protected
  3044   300009                     	org	3145737
  3045   300009  C0                 	db	192
  3046                           
  3047                           ;Config register CONFIG6L @ 0x30000A
  3048                           ;	Write Protection bit
  3049                           ;	WRT0 = OFF, Block 0 (000800-003FFFh) not write-protected
  3050                           ;	Write Protection bit
  3051                           ;	WRT1 = OFF, Block 1 (004000-007FFFh) not write-protected
  3052                           ;	Write Protection bit
  3053                           ;	WRT2 = OFF, Block 2 (008000-00BFFFh) not write-protected
  3054                           ;	Write Protection bit
  3055                           ;	WRT3 = OFF, Block 3 (00C000-00FFFFh) not write-protected
  3056   30000A                     	org	3145738
  3057   30000A  0F                 	db	15
  3058                           
  3059                           ;Config register CONFIG6H @ 0x30000B
  3060                           ;	Configuration Register Write Protection bit
  3061                           ;	WRTC = OFF, Configuration registers (300000-3000FFh) not write-protected
  3062                           ;	Boot Block Write Protection bit
  3063                           ;	WRTB = OFF, Boot Block (000000-0007FFh) not write-protected
  3064                           ;	Data EEPROM Write Protection bit
  3065                           ;	WRTD = OFF, Data EEPROM not write-protected
  3066   30000B                     	org	3145739
  3067   30000B  E0                 	db	224
  3068                           
  3069                           ;Config register CONFIG7L @ 0x30000C
  3070                           ;	Table Read Protection bit
  3071                           ;	EBTR0 = OFF, Block 0 (000800-003FFFh) not protected from table reads executed in other
      +                           blocks
  3072                           ;	Table Read Protection bit
  3073                           ;	EBTR1 = OFF, Block 1 (004000-007FFFh) not protected from table reads executed in other
      +                           blocks
  3074                           ;	Table Read Protection bit
  3075                           ;	EBTR2 = OFF, Block 2 (008000-00BFFFh) not protected from table reads executed in other
      +                           blocks
  3076                           ;	Table Read Protection bit
  3077                           ;	EBTR3 = OFF, Block 3 (00C000-00FFFFh) not protected from table reads executed in other
      +                           blocks
  3078   30000C                     	org	3145740
  3079   30000C  0F                 	db	15
  3080                           
  3081                           ;Config register CONFIG7H @ 0x30000D
  3082                           ;	Boot Block Table Read Protection bit
  3083                           ;	EBTRB = OFF, Boot Block (000000-0007FFh) not protected from table reads executed in ot
      +                          her blocks
  3084   30000D                     	org	3145741
  3085   30000D  40                 	db	64
  3086                           tosu	equ	0xFFF
  3087                           tosh	equ	0xFFE
  3088                           tosl	equ	0xFFD
  3089                           stkptr	equ	0xFFC
  3090                           pclatu	equ	0xFFB
  3091                           pclath	equ	0xFFA
  3092                           pcl	equ	0xFF9
  3093                           tblptru	equ	0xFF8
  3094                           tblptrh	equ	0xFF7
  3095                           tblptrl	equ	0xFF6
  3096                           tablat	equ	0xFF5
  3097                           prodh	equ	0xFF4
  3098                           prodl	equ	0xFF3
  3099                           indf0	equ	0xFEF
  3100                           postinc0	equ	0xFEE
  3101                           postdec0	equ	0xFED
  3102                           preinc0	equ	0xFEC
  3103                           plusw0	equ	0xFEB
  3104                           fsr0h	equ	0xFEA
  3105                           fsr0l	equ	0xFE9
  3106                           wreg	equ	0xFE8
  3107                           indf1	equ	0xFE7
  3108                           postinc1	equ	0xFE6
  3109                           postdec1	equ	0xFE5
  3110                           preinc1	equ	0xFE4
  3111                           plusw1	equ	0xFE3
  3112                           fsr1h	equ	0xFE2
  3113                           fsr1l	equ	0xFE1
  3114                           bsr	equ	0xFE0
  3115                           indf2	equ	0xFDF
  3116                           postinc2	equ	0xFDE
  3117                           postdec2	equ	0xFDD
  3118                           preinc2	equ	0xFDC
  3119                           plusw2	equ	0xFDB
  3120                           fsr2h	equ	0xFDA
  3121                           fsr2l	equ	0xFD9
  3122                           status	equ	0xFD8

Data Sizes:
    Strings     6
    Constant    56
    Data        67
    BSS         13
    Persistent  1
    Stack       0

Auto Spaces:
    Space          Size  Autos    Used
    COMRAM          126     27     108
    BANK0           128      0       0
    BANK1           256      0       0
    BANK2           256      0       0
    BANK3           256      0       0
    BANK4           256      0       0
    BANK5           256      0       0
    BANK6           256      0       0
    BANK7           256      0       0
    BANK8           256      0       0
    BANK9           256      0       0
    BANK10          256      0       0
    BANK11          256      0       0
    BANK12          256      0       0
    BANK13          256      0       0
    BANK14          256      0       0
    BANK15          128      0       0

Pointer List with Targets:

    f$.$buffer	PTR unsigned char  size(2) Largest target is 0

    f$.$source	PTR const unsigned char  size(2) Largest target is 0

    gpio_pin_direction_intialize@_pin_config	PTR const struct . size(1) Largest target is 6
		 -> int0(COMRAM[6]), int1(COMRAM[6]), int2(COMRAM[6]), led_initialize@pin_obj(COMRAM[1]), 
		 -> relay_initialization@pin_obj(COMRAM[1]), 

    gpio_pin_initialize@_pin_config	PTR const struct . size(1) Largest target is 1
		 -> led_initialize@pin_obj(COMRAM[1]), relay_initialization@pin_obj(COMRAM[1]), 

    gpio_pin_toggle_logic@_pin_config	PTR const struct . size(1) Largest target is 1
		 -> led_turn_toggle@pin_obj(COMRAM[1]), 

    gpio_pin_write_logic@_pin_config	PTR const struct . size(1) Largest target is 1
		 -> led_initialize@pin_obj(COMRAM[1]), led_turn_off@pin_obj(COMRAM[1]), led_turn_on@pin_obj(COMRAM[1]), relay_initialization@pin_obj(COMRAM[1]), 
		 -> relay_turn_off@pin_obj(COMRAM[1]), relay_turn_on@pin_obj(COMRAM[1]), 

    int0$EXT_INTERRUPT_HANDLER	PTR FTN()void  size(2) Largest target is 1
		 -> int0_isr(), int1_isr(), int2_isr(), 

    INT0_INTERRUPT_HANDLER@Interrupt_Handler	PTR FTN()void  size(2) Largest target is 1
		 -> int0_isr(), int1_isr(), int2_isr(), 

    INT0_INTERRUPTHANDLER	PTR FTN()void  size(2) Largest target is 1
		 -> int0_isr(), int1_isr(), int2_isr(), NULL(), 

    int1$EXT_INTERRUPT_HANDLER	PTR FTN()void  size(2) Largest target is 1
		 -> int0_isr(), int1_isr(), int2_isr(), 

    INT1_INTERRUPT_HANDLER@Interrupt_Handler	PTR FTN()void  size(2) Largest target is 1
		 -> int0_isr(), int1_isr(), int2_isr(), 

    INT1_INTERRUPTHANDLER	PTR FTN()void  size(2) Largest target is 1
		 -> int0_isr(), int1_isr(), int2_isr(), NULL(), 

    int2$EXT_INTERRUPT_HANDLER	PTR FTN()void  size(2) Largest target is 1
		 -> int0_isr(), int1_isr(), int2_isr(), 

    INT2_INTERRUPT_HANDLER@Interrupt_Handler	PTR FTN()void  size(2) Largest target is 1
		 -> int0_isr(), int1_isr(), int2_isr(), 

    INT2_INTERRUPTHANDLER	PTR FTN()void  size(2) Largest target is 1
		 -> int0_isr(), int1_isr(), int2_isr(), NULL(), 

    Interrupt_INTx_Clear_Flag@int_obj	PTR const struct . size(1) Largest target is 6
		 -> int0(COMRAM[6]), int1(COMRAM[6]), int2(COMRAM[6]), 

    Interrupt_INTx_Clear_Flag@int_obj$EXT_INTERRUPT_HANDLER	PTR FTN()void  size(2) Largest target is 1
		 -> int0_isr(), int1_isr(), int2_isr(), 

    Interrupt_INTx_Disable@int_obj	PTR const struct . size(1) Largest target is 6
		 -> int0(COMRAM[6]), int1(COMRAM[6]), int2(COMRAM[6]), 

    Interrupt_INTx_Disable@int_obj$EXT_INTERRUPT_HANDLER	PTR FTN()void  size(2) Largest target is 1
		 -> int0_isr(), int1_isr(), int2_isr(), 

    Interrupt_INTx_Edge_Src@int_obj	PTR const struct . size(1) Largest target is 6
		 -> int0(COMRAM[6]), int1(COMRAM[6]), int2(COMRAM[6]), 

    Interrupt_INTx_Edge_Src@int_obj$EXT_INTERRUPT_HANDLER	PTR FTN()void  size(2) Largest target is 1
		 -> int0_isr(), int1_isr(), int2_isr(), 

    Interrupt_INTx_Enable@int_obj	PTR const struct . size(1) Largest target is 6
		 -> int0(COMRAM[6]), int1(COMRAM[6]), int2(COMRAM[6]), 

    Interrupt_INTx_Enable@int_obj$EXT_INTERRUPT_HANDLER	PTR FTN()void  size(2) Largest target is 1
		 -> int0_isr(), int1_isr(), int2_isr(), 

    Interrupt_INTx_Init@int_obj	PTR const struct . size(1) Largest target is 6
		 -> int0(COMRAM[6]), int1(COMRAM[6]), int2(COMRAM[6]), 

    Interrupt_INTx_Pin_Init@int_obj	PTR const struct . size(1) Largest target is 6
		 -> int0(COMRAM[6]), int1(COMRAM[6]), int2(COMRAM[6]), 

    Interrupt_INTx_Pin_Init@int_obj$EXT_INTERRUPT_HANDLER	PTR FTN()void  size(2) Largest target is 1
		 -> int0_isr(), int1_isr(), int2_isr(), 

    lat_registers	PTR volatile unsigned char [5] size(2) Largest target is 1
		 -> LATA(BITBIGSFRll[1]), LATB(BITBIGSFRlh[1]), LATC(BITBIGSFRlh[1]), LATD(BITBIGSFRlh[1]), 
		 -> LATE(BITBIGSFRlh[1]), 

    led_initialize@led	PTR const struct . size(1) Largest target is 1
		 -> led1(COMRAM[1]), led2(COMRAM[1]), led3(COMRAM[1]), 

    led_turn_toggle@led	PTR const struct . size(1) Largest target is 1
		 -> led1(COMRAM[1]), led2(COMRAM[1]), led3(COMRAM[1]), 

    port_registers	PTR volatile unsigned char [5] size(2) Largest target is 1
		 -> PORTA(BITBIGSFRll[1]), PORTB(BITBIGSFRll[1]), PORTC(BITBIGSFRll[1]), PORTD(BITBIGSFRll[1]), 
		 -> PORTE(BITBIGSFRll[1]), 

    S1729$buffer	PTR unsigned char  size(2) Largest target is 0

    S1729$source	PTR const unsigned char  size(2) Largest target is 0

    S803$EXT_INTERRUPT_HANDLER	PTR FTN()void  size(2) Largest target is 1
		 -> int0_isr(), int1_isr(), int2_isr(), 

    Set_Interrupt_Handler@int_obj	PTR const struct . size(1) Largest target is 6
		 -> int0(COMRAM[6]), int1(COMRAM[6]), int2(COMRAM[6]), 

    Set_Interrupt_Handler@int_obj$EXT_INTERRUPT_HANDLER	PTR FTN()void  size(2) Largest target is 1
		 -> int0_isr(), int1_isr(), int2_isr(), 

    sp__memset	PTR void  size(2) Largest target is 0

    tris_registers	PTR volatile unsigned char [5] size(2) Largest target is 1
		 -> TRISA(BITBIGSFRll[1]), TRISB(BITBIGSFRhll[1]), TRISC(BITBIGSFRhll[1]), TRISD(BITBIGSFRhll[1]), 
		 -> TRISE(BITBIGSFRhll[1]), 

    vfprintf$0	PTR struct _IO_FILE size(1) Largest target is 12
		 -> sprintf@f(COMRAM[12]), 

    vfprintf$1	PTR const unsigned char  size(1) Largest target is 3
		 -> STR_1(CODE[3]), STR_2(CODE[3]), STR_3(CODE[3]), 

    vfprintf$2	PTR PTR void  size(1) Largest target is 1
		 -> sprintf@ap(COMRAM[1]), 


Critical Paths under _main in COMRAM

    _Ecu_initialize->_led_initialize
    _led_initialize->_gpio_pin_initialize
    _gpio_pin_initialize->_gpio_pin_write_logic
    _Interrupt_INTx_Init->_Interrupt_INTx_Pin_Init
    _Set_Interrupt_Handler->_INT0_INTERRUPT_HANDLER
    _Set_Interrupt_Handler->_INT1_INTERRUPT_HANDLER
    _Set_Interrupt_Handler->_INT2_INTERRUPT_HANDLER
    _Interrupt_INTx_Pin_Init->_gpio_pin_direction_intialize

Critical Paths under _InterruptMangaer in COMRAM

    _int2_isr->_led_turn_toggle
    _int1_isr->_led_turn_toggle
    _int0_isr->_led_turn_toggle
    _led_turn_toggle->_gpio_pin_toggle_logic

Critical Paths under _main in BANK0

    None.

Critical Paths under _InterruptMangaer in BANK0

    None.

Critical Paths under _main in BANK1

    None.

Critical Paths under _InterruptMangaer in BANK1

    None.

Critical Paths under _main in BANK2

    None.

Critical Paths under _InterruptMangaer in BANK2

    None.

Critical Paths under _main in BANK3

    None.

Critical Paths under _InterruptMangaer in BANK3

    None.

Critical Paths under _main in BANK4

    None.

Critical Paths under _InterruptMangaer in BANK4

    None.

Critical Paths under _main in BANK5

    None.

Critical Paths under _InterruptMangaer in BANK5

    None.

Critical Paths under _main in BANK6

    None.

Critical Paths under _InterruptMangaer in BANK6

    None.

Critical Paths under _main in BANK7

    None.

Critical Paths under _InterruptMangaer in BANK7

    None.

Critical Paths under _main in BANK8

    None.

Critical Paths under _InterruptMangaer in BANK8

    None.

Critical Paths under _main in BANK9

    None.

Critical Paths under _InterruptMangaer in BANK9

    None.

Critical Paths under _main in BANK10

    None.

Critical Paths under _InterruptMangaer in BANK10

    None.

Critical Paths under _main in BANK11

    None.

Critical Paths under _InterruptMangaer in BANK11

    None.

Critical Paths under _main in BANK12

    None.

Critical Paths under _InterruptMangaer in BANK12

    None.

Critical Paths under _main in BANK13

    None.

Critical Paths under _InterruptMangaer in BANK13

    None.

Critical Paths under _main in BANK14

    None.

Critical Paths under _InterruptMangaer in BANK14

    None.

Critical Paths under _main in BANK15

    None.

Critical Paths under _InterruptMangaer in BANK15

    None.

Call Graph Tables:

 ---------------------------------------------------------------------------------
 (Depth) Function   	        Calls       Base Space   Used Autos Params    Refs
 ---------------------------------------------------------------------------------
 (0) _main                                                 0     0      0    9382
                _Interrupt_INTx_Init
             _application_initialize
 ---------------------------------------------------------------------------------
 (1) _application_initialize                               0     0      0    7117
                     _Ecu_initialize
 ---------------------------------------------------------------------------------
 (2) _Ecu_initialize                                       0     0      0    7117
                     _led_initialize
 ---------------------------------------------------------------------------------
 (3) _led_initialize                                       4     3      1    7117
                                             24 COMRAM     3     2      1
                _gpio_pin_initialize
 ---------------------------------------------------------------------------------
 (4) _gpio_pin_initialize                                  2     1      1    6755
                                             22 COMRAM     2     1      1
       _gpio_pin_direction_intialize
               _gpio_pin_write_logic
 ---------------------------------------------------------------------------------
 (5) _gpio_pin_write_logic                                 8     6      2    5020
                                             14 COMRAM     8     6      2
 ---------------------------------------------------------------------------------
 (1) _Interrupt_INTx_Init                                  2     1      1    2265
                                             23 COMRAM     2     1      1
          _Interrupt_INTx_Clear_Flag
             _Interrupt_INTx_Disable
            _Interrupt_INTx_Edge_Src
              _Interrupt_INTx_Enable
            _Interrupt_INTx_Pin_Init
              _Set_Interrupt_Handler
 ---------------------------------------------------------------------------------
 (2) _Set_Interrupt_Handler                                4     3      1     595
                                             16 COMRAM     4     3      1
             _INT0_INTERRUPT_HANDLER
             _INT1_INTERRUPT_HANDLER
             _INT2_INTERRUPT_HANDLER
 ---------------------------------------------------------------------------------
 (3) _INT2_INTERRUPT_HANDLER                               3     1      2     128
                                             14 COMRAM     2     0      2
 ---------------------------------------------------------------------------------
 (3) _INT1_INTERRUPT_HANDLER                               3     1      2     128
                                             14 COMRAM     2     0      2
 ---------------------------------------------------------------------------------
 (3) _INT0_INTERRUPT_HANDLER                               3     1      2     128
                                             14 COMRAM     2     0      2
 ---------------------------------------------------------------------------------
 (2) _Interrupt_INTx_Pin_Init                              2     1      1     552
                                             21 COMRAM     2     1      1
       _gpio_pin_direction_intialize
 ---------------------------------------------------------------------------------
 (5) _gpio_pin_direction_intialize                         7     6      1     407
                                             14 COMRAM     7     6      1
 ---------------------------------------------------------------------------------
 (2) _Interrupt_INTx_Enable                                4     3      1     145
                                             14 COMRAM     4     3      1
 ---------------------------------------------------------------------------------
 (2) _Interrupt_INTx_Edge_Src                              4     3      1     211
                                             14 COMRAM     4     3      1
 ---------------------------------------------------------------------------------
 (2) _Interrupt_INTx_Disable                               4     3      1     221
                                             14 COMRAM     4     3      1
 ---------------------------------------------------------------------------------
 (2) _Interrupt_INTx_Clear_Flag                            4     3      1     145
                                             14 COMRAM     4     3      1
 ---------------------------------------------------------------------------------
 Estimated maximum stack depth 5
 ---------------------------------------------------------------------------------
 (Depth) Function   	        Calls       Base Space   Used Autos Params    Refs
 ---------------------------------------------------------------------------------
 (6) _InterruptMangaer                                     6     6      0    4527
                                              8 COMRAM     6     6      0
                           _INT0_ISR
                           _INT1_ISR
                           _INT2_ISR
 ---------------------------------------------------------------------------------
 (7) _INT2_ISR                                             0     0      0    1509
                                NULL *
                           _int0_isr *
                           _int1_isr *
                           _int2_isr *
 ---------------------------------------------------------------------------------
 (7) _INT1_ISR                                             0     0      0    1509
                                NULL *
                           _int0_isr *
                           _int1_isr *
                           _int2_isr *
 ---------------------------------------------------------------------------------
 (7) _INT0_ISR                                             0     0      0    1509
                                NULL *
                           _int0_isr *
                           _int1_isr *
                           _int2_isr *
 ---------------------------------------------------------------------------------
 (8) _int2_isr                                             0     0      0     503
                    _led_turn_toggle
 ---------------------------------------------------------------------------------
 (8) _int1_isr                                             0     0      0     503
                    _led_turn_toggle
 ---------------------------------------------------------------------------------
 (8) _int0_isr                                             0     0      0     503
                    _led_turn_toggle
 ---------------------------------------------------------------------------------
 (9) _led_turn_toggle                                      4     3      1     503
                                              5 COMRAM     3     2      1
              _gpio_pin_toggle_logic
 ---------------------------------------------------------------------------------
 (10) _gpio_pin_toggle_logic                               6     5      1     150
                                              0 COMRAM     5     4      1
 ---------------------------------------------------------------------------------
 (8) NULL(Fake)                                            0     0      0       0
 ---------------------------------------------------------------------------------
 Estimated maximum stack depth 10
 ---------------------------------------------------------------------------------

 Call Graph Graphs:

 _main (ROOT)
   _Interrupt_INTx_Init
     _Interrupt_INTx_Clear_Flag
     _Interrupt_INTx_Disable
     _Interrupt_INTx_Edge_Src
     _Interrupt_INTx_Enable
     _Interrupt_INTx_Pin_Init
       _gpio_pin_direction_intialize
     _Set_Interrupt_Handler
       _INT0_INTERRUPT_HANDLER
       _INT1_INTERRUPT_HANDLER
       _INT2_INTERRUPT_HANDLER
   _application_initialize
     _Ecu_initialize
       _led_initialize
         _gpio_pin_initialize
           _gpio_pin_direction_intialize
           _gpio_pin_write_logic

 _InterruptMangaer (ROOT)
   _INT0_ISR
     NULL(Fake) *
     _int0_isr *
       _led_turn_toggle
         _gpio_pin_toggle_logic
     _int1_isr *
       _led_turn_toggle
     _int2_isr *
       _led_turn_toggle
   _INT1_ISR
     NULL(Fake) *
     _int0_isr *
     _int1_isr *
     _int2_isr *
   _INT2_ISR
     NULL(Fake) *
     _int0_isr *
     _int1_isr *
     _int2_isr *

 Address spaces:
Name               Size   Autos  Total    Cost      Usage
BIGRAM             F7F      0       0      41        0.0%
EEDATA             400      0       0       0        0.0%
BITBANK14          100      0       0      33        0.0%
BANK14             100      0       0      34        0.0%
BITBANK13          100      0       0      31        0.0%
BANK13             100      0       0      32        0.0%
BITBANK12          100      0       0      29        0.0%
BANK12             100      0       0      30        0.0%
BITBANK11          100      0       0      27        0.0%
BANK11             100      0       0      28        0.0%
BITBANK10          100      0       0      24        0.0%
BANK10             100      0       0      25        0.0%
BITBANK9           100      0       0      22        0.0%
BANK9              100      0       0      23        0.0%
BITBANK8           100      0       0      20        0.0%
BANK8              100      0       0      21        0.0%
BITBANK7           100      0       0      18        0.0%
BANK7              100      0       0      19        0.0%
BITBANK6           100      0       0      16        0.0%
BANK6              100      0       0      17        0.0%
BITBANK5           100      0       0      14        0.0%
BANK5              100      0       0      15        0.0%
BITBANK4           100      0       0      12        0.0%
BANK4              100      0       0      13        0.0%
BITBANK3           100      0       0      10        0.0%
BANK3              100      0       0      11        0.0%
BITBANK2           100      0       0       8        0.0%
BANK2              100      0       0       9        0.0%
BITBANK1           100      0       0       6        0.0%
BANK1              100      0       0       7        0.0%
BITBANK15           80      0       0      35        0.0%
BANK15              80      0       0      36        0.0%
BITBANK0            80      0       0       4        0.0%
BANK0               80      0       0       5        0.0%
BITCOMRAM           7E      0       0       0        0.0%
COMRAM              7E     1B      6C       1       85.7%
BITBIGSFRhll        59      0       0      38        0.0%
BITBIGSFRhh          D      0       0      37        0.0%
BITBIGSFRlh          4      0       0      39        0.0%
BITBIGSFRll          4      0       0      40        0.0%
BIGSFR               0      0       0     200        0.0%
BITSFR               0      0       0     200        0.0%
SFR                  0      0       0     200        0.0%
STACK                0      0       0       2        0.0%
NULL                 0      0       0       0        0.0%
ABS                  0      0      6C      26        0.0%
DATA                 0      0      6C       3        0.0%
CODE                 0      0       0       0        0.0%


Microchip Technology PIC18 Macro Assembler V2.46 build 20240104201356 
Symbol Table                                                                                   Sun Jul 14 09:21:24 2024

                     ??_InterruptMangaer 004C                  ?_INT2_INTERRUPT_HANDLER 0052  
                      ??_led_turn_toggle 004A                    _INT0_INTERRUPTHANDLER 0063  
                                    l330 1922                                      l500 146A  
                                    l412 179C                                      l501 1474  
                                    l245 15AE                                      l511 14E0  
                                    l503 14BC                                      l520 1548  
                                    l512 14E6                                      l249 1602  
                                    l522 154E                                      l514 152A  
                                    l523 1554                                      l532 127E  
                                    l525 1598                                      l509 14DA  
                                    l542 130E                                      l623 18A2  
                                    l536 12A4                                      l552 1908  
                                    l472 171A                                      l624 18A2  
                                    l378 1150                                      l562 18C8  
                                    l539 12CA                                      l547 1884  
                                    l395 1240                                      l557 18E8  
                                    l573 13AC                                      l629 1948  
                                    l498 1460                                      _ret 006C  
                    led_initialize@F3062 006B                                      tosl 0FFD  
                                    wreg 0FE8                                     l2411 116E  
                                   l2501 18CA                                     l2413 11C4  
                                   l2431 1074                                     l2503 18CA  
                                   l2511 18AA                                     l2407 1152  
                                   l2601 14BE                                     l2433 107C  
                                   l2441 114E                                     l2505 18DC  
                                   l2513 18AA                                     l2409 1166  
                                   l2417 1214                                     l2603 14D2  
                                   l2435 10D2                                     l2427 1040  
                                   l2507 18E0                                     l2515 18BC  
                                   l2419 123E                                     l2451 179A  
                                   l3341 149C                                     l2701 14BA  
                                   l2429 1054                                     l2517 18C0  
                                   l2445 1760                                     l2623 155A  
                                   l2607 14EC                                     l3343 12EE  
                                   l2439 1122                                     l2447 1774  
                                   l2471 15EA                                     l2463 159A  
                                   l2625 1596                                     l2617 152C  
                                   l3345 150A                                     l2609 1528  
                                   l2641 1284                                     l2633 1242  
                                   l3337 1228                                     l2449 177C  
                                   l2473 15FA                                     l2465 15AA  
                                   l3347 1578                                     l2619 1540  
                                   l2643 129E                                     l2635 1256  
                                   l2651 12D0                                     l2491 18EA  
                                   l3339 138C                                     l2811 16E0  
                                   l2467 15B2                                     l2645 12AA  
                                   l2637 125E                                     l2653 130C  
                                   l2661 185E                                     l2493 18EA  
                                   l2813 16E4                                     l2469 15E8  
                                   l2647 12C4                                     l2639 1278  
                                   l2663 186E                                     l2495 18FC  
                                   l2671 1310                                     l2815 1702  
                                   l2665 1876                                     l2497 1900  
                                   l2673 1324                                     l2817 170A  
                                   l2809 16D0                                     l2841 1942  
                                   l3297 1886                                     l2667 1882  
                                   l2675 132C                                     l2683 136E  
                                   l2819 1712                                     l2693 1444  
                                   l2677 1342                                     l2685 13AA  
                                   l2695 1458                                     l2679 1358  
                                   l2599 190A                                     l2699 147E  
                                   STR_1 103C                                     STR_2 1039  
                                   u1210 1054                                     u1211 1050  
                                   u1220 1074                                     u1204 11E2  
                                   u1221 1070                                     u1205 11DE  
                                   u1305 15F8                                     u1250 1138  
                                   u1234 109A                                     u1330 18FC  
                                   u1251 1132                                     u1235 1096  
                                   u1331 18F8                                     u1307 15FA  
                                   u1244 10F0                                     u1340 18DC  
                                   u1500 1324                                     u1180 1166  
                                   u1260 1774                                     u1245 10EC  
                                   u1341 18D8                                     u1501 1320  
                                   u1181 1162                                     u1261 1770  
                                   _LATA 0F89                                     u1430 14D2  
                                   u1510 1458                                     u1350 18BC  
                                   _LATB 0F8A                                     u1431 14CE  
                                   u1511 1454                                     u1351 18B8  
                                   _LATC 0F8B                                     u1440 1540  
                                   u1256 113A                                     _LATD 0F8C  
                                   u1441 153C                                     _LATE 0F8D  
                                   u1450 1256                                     u1194 118C  
                                   u1290 15AA                                     u1451 1252  
                                   u1195 1188                                     u1291 15A6  
                                   u1460 1278                                     u1620 16E0  
                                   u1461 1274                                     u1621 16DC  
                                   u1470 129E                                     u1471 129A  
                                   u1480 12C4                                     u1481 12C0  
                                   u1490 186E                                     u1491 186A  
                                   _led1 0043                                     _led2 0042  
                                   _led3 0041                                     _int0 003B  
                                   _int1 0035                                     _int2 002F  
                                   _main 1886                                     fsr2h 0FDA  
                                   indf2 0FDF                                     fsr1l 0FE1  
                                   fsr2l 0FD9                                     btemp 006D  
                 __end_of_led_initialize 1604                                     prodh 0FF4  
                                   prodl 0FF3                                     start 000E  
           Set_Interrupt_Handler@int_obj 0054                             ___param_bank 0000  
                 ?_gpio_pin_toggle_logic 0044           __end_of_INT2_INTERRUPT_HANDLER 18CA  
                   _gpio_pin_write_logic 1152                         __end_of_INT0_ISR 185E  
                       __end_of_INT1_ISR 1830                         __end_of_INT2_ISR 1802  
                                  ?_main 0044                 ??_application_initialize 005F  
                 _INT0_INTERRUPT_HANDLER 18EA                                    i2l270 166C  
                                  i2l407 16CE                                    i2l266 1618  
                                  i2l610 1940                                    i2l604 1936  
                                  i2l607 192C                                    i2l482 182E  
                                  i2l650 1428                                    i2l477 185C  
                                  i2l645 13E8                                    i2l487 1800  
                                  i2l647 1408                      relay_turn_off@F3065 0065  
                                  _PORTA 0F80                                    _PORTB 0F81  
                                  _PORTC 0F82                                    _PORTD 0F83  
                                  _PORTE 0F84                                    _TRISA 0F92  
                                  _TRISB 0F93                                    _TRISC 0F94  
                                  _TRISD 0F95                                    _TRISE 0F96  
               Interrupt_INTx_Enable@ret 0055                                    pclath 0FFA  
                                  pclatu 0FFB                                    tablat 0FF5  
                                  ttemp5 006E                                    ttemp6 0071  
                                  ttemp7 0075                                    status 0FD8  
                                  wtemp8 006E                          ?_led_initialize 005C  
                 _Interrupt_INTx_Disable 14BE                          __initialization 179E  
                           __end_of_main 18AA                    ?_gpio_pin_write_logic 0052  
                          _lat_registers 001B                                   ??_main 005F  
                         _Ecu_initialize 190A                            __activetblptr 0003  
                       led_turn_on@F3067 006A                    _Set_Interrupt_Handler 1310  
         Interrupt_INTx_Edge_Src@int_obj 0052                                   i2l3301 13D6  
                                 i2l3311 1424                                   i2l3303 13E4  
                                 i2l3305 13F6                                   i2l3307 1404  
                                 i2l3309 1416                                   i2l2455 166E  
                                 i2l2711 1924                                   i2l2457 167E  
                                 i2l2481 161C                                   i2l2713 1938  
           Interrupt_INTx_Enable@int_obj 0052                                   i2l2459 1682  
                                 i2l2483 1652                                   i2l2485 1654  
                                 i2l2477 1604                                   i2l2709 192E  
                                 i2l2487 1664                                   i2l2479 1614  
                                 i2l2823 1830                                   i2l2831 1804  
                                 i2l2825 1832                                   i2l2833 1816  
                                 i2l2827 1844                                   i2l2835 17D4  
                                 i2l3299 13C8                                   i2l2829 1802  
                                 i2l2837 17D6                                   i2l2839 17E8  
                  _INT1_INTERRUPTHANDLER 0061               ?_Interrupt_INTx_Clear_Flag 0052  
               ??_INT1_INTERRUPT_HANDLER 0054         gpio_pin_toggle_logic@_pin_config 0044  
                       __end_of_int0_isr 1938                         __end_of_int1_isr 192E  
                       __end_of_int2_isr 1942                   __end_of_Ecu_initialize 1924  
                                 clear_0 17C4                    led_initialize@pin_obj 005E  
                                 isa$std 0001            __end_of_Interrupt_INTx_Enable 14BE  
gpio_pin_direction_intialize@_pin_config 0052                             __pdataCOMRAM 0001  
                           __mediumconst 0000                                   tblptrh 0FF7  
                                 tblptrl 0FF6                                   tblptru 0FF8  
                _Interrupt_INTx_Edge_Src 1242                               __accesstop 0080  
                __end_of__initialization 17CA                                ?_INT0_ISR 0044  
                              ?_INT1_ISR 0044                                ?_INT2_ISR 0044  
                          ___rparam_used 0001        __end_of_Interrupt_INTx_Clear_Flag 159A  
                      led_initialize@led 005C                          _led_turn_toggle 1604  
                _Interrupt_INTx_Pin_Init 185E                   ??_gpio_pin_write_logic 0054  
                         __pcstackCOMRAM 0044                          ?_Ecu_initialize 0044  
                 ?_Set_Interrupt_Handler 0054              __end_of_Interrupt_INTx_Init 171C  
                             ??_INT0_ISR 004C                               ??_INT1_ISR 004C  
                             ??_INT2_ISR 004C                   _application_initialize 1942  
                             __pnvCOMRAM 006C                  ??_gpio_pin_toggle_logic 0045  
                      led_turn_off@F3072 0069                  ?_INT0_INTERRUPT_HANDLER 0052  
                  _INT2_INTERRUPTHANDLER 005F                ??_Interrupt_INTx_Edge_Src 0053  
                          _keypad_values 0001                     led_turn_toggle@F3077 0068  
                       ??_led_initialize 005D                                ?_int0_isr 0044  
                              ?_int1_isr 0044                                ?_int2_isr 0044  
                ?_Interrupt_INTx_Disable 0052                  __end_of_led_turn_toggle 166E  
                         _tris_registers 0025                ??_Interrupt_INTx_Pin_Init 005A  
                                __Hparam 0000                                  __Lparam 0000  
         __end_of_INT0_INTERRUPT_HANDLER 190A                      _gpio_pin_initialize 1760  
                           __psmallconst 1000                                  __pcinit 179E  
                                __ramtop 1000                               _customChar 1031  
                                __ptext0 1886                                  __ptext1 1942  
                                __ptext2 190A                                  __ptext3 159A  
                                __ptext4 1760                                  __ptext5 1152  
                                __ptext6 16D0                                  __ptext7 1310  
                                __ptext8 18AA                                  __ptext9 18CA  
                 _INT1_INTERRUPT_HANDLER 18CA                     ?_gpio_pin_initialize 005A  
         __end_of_Interrupt_INTx_Disable 152C                               ??_int0_isr 004C  
                             ??_int1_isr 004C                               ??_int2_isr 004C  
                         __pintcode_body 13AE                     end_of_initialization 17CA  
                                int_func 13AE              ??_Interrupt_INTx_Clear_Flag 0053  
             Interrupt_INTx_Edge_Src@ret 0055                                  postdec1 0FE5  
                                postdec2 0FDD                                  postinc0 0FEE  
                                postinc2 0FDE                         _InterruptMangaer 0008  
   __end_of_gpio_pin_direction_intialize 1152             _gpio_pin_direction_intialize 1040  
                  ??_gpio_pin_initialize 005B                         ?_led_turn_toggle 0049  
               ??_INT2_INTERRUPT_HANDLER 0054                         ??_Ecu_initialize 005F  
                     relay_turn_on@F3060 0066  INT2_INTERRUPT_HANDLER@Interrupt_Handler 0052  
INT1_INTERRUPT_HANDLER@Interrupt_Handler 0052  INT0_INTERRUPT_HANDLER@Interrupt_Handler 0052  
                 Interrupt_INTx_Init@ret 005C                            __pidataCOMRAM 171C  
                ??_Set_Interrupt_Handler 0055            Interrupt_INTx_Disable@int_obj 0052  
              _Interrupt_INTx_Clear_Flag 152C                    _Interrupt_INTx_Enable 1444  
                    start_initialization 179E                   led_turn_toggle@pin_obj 004B  
          ?_gpio_pin_direction_intialize 0052                  ?_application_initialize 0044  
          __end_of_gpio_pin_toggle_logic 16D0                              __pbssCOMRAM 005F  
         __end_of_application_initialize 194A          gpio_pin_direction_intialize@ret 0058  
                              __pintcode 0008          gpio_pin_write_logic@_pin_config 0052  
                ?_INT1_INTERRUPT_HANDLER 0052                gpio_pin_write_logic@logic 0053  
                 ?_Interrupt_INTx_Enable 0052                              __smallconst 1000  
                    __end_of_customChar2 1031                      __end_of_customChar3 1029  
                    __end_of_customChar4 1021                      __end_of_customChar5 1019  
                    __end_of_customChar6 1011                      __end_of_customChar7 1009  
         ??_gpio_pin_direction_intialize 0053                                 _INT0_ISR 1830  
                               _INT1_ISR 1802                                 _INT2_ISR 17D4  
               __end_of_InterruptMangaer 1444                                 i2u210_40 13D6  
                               i2u210_41 13D2                                 i2u131_40 1614  
                               i2u211_40 13E4                                 i2u131_41 1610  
                               i2u211_41 13E0                                 i2u212_40 13F6  
                               i2u212_41 13F2                                 i2u132_45 1662  
                               i2u132_47 1664                                 i2u213_40 1404  
                               i2u213_41 1400                                 i2u214_40 1416  
                               i2u214_41 1412                                 i2u127_40 167E  
                               i2u215_40 1424                                 i2u127_41 167A  
                               i2u215_41 1420                                 i2u128_44 16A0  
                               i2u128_45 169C                                 i2u163_40 1844  
                               i2u163_41 1840                                 i2u164_48 184A  
                               i2u165_40 1816                                 i2u164_49 185C  
                               i2u165_41 1812                                 i2u166_48 181C  
                               i2u167_40 17E8                                 i2u166_49 182E  
                               i2u167_41 17E4                                 i2u168_48 17EE  
                               i2u168_49 1800           Interrupt_INTx_Pin_Init@int_obj 0059  
         __end_of_INT1_INTERRUPT_HANDLER 18EA                 ?_Interrupt_INTx_Edge_Src 0052  
                 _INT2_INTERRUPT_HANDLER 18AA                   gpio_pin_initialize@ret 005B  
                gpio_pin_write_logic@ret 0059                              _INTCON2bits 0FF1  
                            _INTCON3bits 0FF0                                copy_data0 17B2  
               ?_Interrupt_INTx_Pin_Init 0059                relay_initialization@F3055 0067  
               Set_Interrupt_Handler@ret 0057                                 __Hrparam 0000  
                               __Lrparam 0000                Interrupt_INTx_Disable@ret 0055  
             Interrupt_INTx_Init@int_obj 005B              __end_of_gpio_pin_initialize 179E  
         gpio_pin_initialize@_pin_config 005A            __end_of_Set_Interrupt_Handler 13AE  
                            _customChar2 1029                              _customChar3 1021  
                            _customChar4 1019                              _customChar5 1011  
                            _customChar6 1009                              _customChar7 1001  
                               __ptext10 18EA                                 __ptext11 185E  
                               __ptext20 1830                                 __ptext12 1040  
                               __ptext21 1924                                 __ptext13 1444  
                               __ptext22 192E                                 __ptext14 1242  
                               __ptext23 1938                                 __ptext15 14BE  
                               __ptext24 1604                                 __ptext16 152C  
                               __ptext25 166E                                 __ptext18 17D4  
                               __ptext19 1802                                 _int0_isr 192E  
                               _int1_isr 1924                                 _int2_isr 1938  
       Interrupt_INTx_Clear_Flag@int_obj 0052                       led_turn_toggle@led 0049  
               ??_INT0_INTERRUPT_HANDLER 0054                       __end_of_customChar 1039  
        __end_of_Interrupt_INTx_Edge_Src 1310                                 isa$xinst 0000  
                               int$flags 006D                 ??_Interrupt_INTx_Disable 0053  
                    _Interrupt_INTx_Init 16D0                               _INTCONbits 0FF2  
        __end_of_Interrupt_INTx_Pin_Init 1886             __end_of_gpio_pin_write_logic 1242  
                               intlevel2 0000             Interrupt_INTx_Clear_Flag@ret 0055  
                   ?_Interrupt_INTx_Init 005B               Interrupt_INTx_Pin_Init@ret 005A  
                  _gpio_pin_toggle_logic 166E                  ??_Interrupt_INTx_Enable 0053  
                         _port_registers 0011                    ??_Interrupt_INTx_Init 005C  
                      ?_InterruptMangaer 0044                           _led_initialize 159A  
