

Microchip MPLAB XC8 Assembler V2.46 build 20240104201356 
                                                                                               Tue Jul 16 07:07:10 2024

Microchip MPLAB XC8 C Compiler v2.46 (Free license) build 20240104201356 Og1 
     1                           	processor	18F4620
     2                           	fnconf	rparam,??,?,0
     3                           	pagewidth 120
     4                           	opt	flic
     5                           	psect	idataCOMRAM,global,class=CODE,delta=1,noexec
     6                           	psect	smallconst,global,reloc=2,class=SMALLCONST,delta=1,noexec
     7                           	psect	nvCOMRAM,global,class=COMRAM,space=1,delta=1,lowdata,noexec
     8                           	psect	cinit,global,reloc=2,class=CODE,delta=1
     9                           	psect	bssCOMRAM,global,class=COMRAM,space=1,delta=1,lowdata,noexec
    10                           	psect	dataCOMRAM,global,class=COMRAM,space=1,delta=1,lowdata,noexec
    11                           	psect	cstackBANK0,global,class=BANK0,space=1,delta=1,lowdata,noexec
    12                           	psect	cstackCOMRAM,global,class=COMRAM,space=1,delta=1,lowdata,noexec
    13                           	psect	text0,global,reloc=2,class=CODE,delta=1
    14                           	psect	text1,global,reloc=2,class=CODE,delta=1
    15                           	psect	text2,global,reloc=2,class=CODE,delta=1
    16                           	psect	text3,global,reloc=2,class=CODE,delta=1
    17                           	psect	text4,global,reloc=2,class=CODE,delta=1
    18                           	psect	text5,global,reloc=2,class=CODE,delta=1
    19                           	psect	text6,global,reloc=2,class=CODE,delta=1
    20                           	psect	text7,global,reloc=2,class=CODE,delta=1
    21                           	psect	intcode,global,reloc=2,class=CODE,delta=1
    22                           	psect	intcode_body,global,reloc=2,class=CODE,delta=1
    23                           	psect	text9,global,reloc=2,class=CODE,delta=1
    24                           	psect	text10,global,reloc=2,class=CODE,delta=1
    25                           	psect	text11,global,reloc=2,class=CODE,delta=1
    26                           	psect	text12,global,reloc=2,class=CODE,delta=1
    27                           	psect	text13,global,reloc=2,class=CODE,delta=1
    28                           	psect	text14,global,reloc=2,class=CODE,delta=1
    29                           	psect	text15,global,reloc=2,class=CODE,delta=1
    30                           	psect	text16,global,reloc=2,class=CODE,delta=1
    31                           	psect	text17,global,reloc=2,class=CODE,delta=1
    32                           	psect	text18,global,reloc=2,class=CODE,delta=1
    33                           	psect	intsave_regs,global,class=BIGRAM,space=1,delta=1,noexec
    34                           	psect	rparam,global,class=COMRAM,space=1,delta=1,noexec
    35                           	psect	temp,global,ovrld,common,class=COMRAM,space=1,delta=1,lowdata
    36                           	psect	config,global,abs,ovrld,class=CONFIG,space=4,delta=1,noexec
    37   000000                     
    38                           ; Generated 17/10/2023 GMT
    39                           ; 
    40                           ; Copyright © 2023, Microchip Technology Inc. and its subsidiaries ("Microchip")
    41                           ; All rights reserved.
    42                           ; 
    43                           ; This software is developed by Microchip Technology Inc. and its subsidiaries ("Microch
      +                          ip").
    44                           ; 
    45                           ; Redistribution and use in source and binary forms, with or without modification, are
    46                           ; permitted provided that the following conditions are met:
    47                           ; 
    48                           ;     1. Redistributions of source code must retain the above copyright notice, this lis
      +                          t of
    49                           ;        conditions and the following disclaimer.
    50                           ; 
    51                           ;     2. Redistributions in binary form must reproduce the above copyright notice, this 
      +                          list
    52                           ;        of conditions and the following disclaimer in the documentation and/or other
    53                           ;        materials provided with the distribution. Publication is not required when
    54                           ;        this file is used in an embedded application.
    55                           ; 
    56                           ;     3. Microchip's name may not be used to endorse or promote products derived from th
      +                          is
    57                           ;        software without specific prior written permission.
    58                           ; 
    59                           ; THIS SOFTWARE IS PROVIDED BY MICROCHIP "AS IS" AND ANY EXPRESS OR IMPLIED WARRANTIES,
    60                           ; INCLUDING, BUT NOT LIMITED TO, THE IMPLIED WARRANTIES OF MERCHANTABILITY AND FITNESS F
      +                          OR
    61                           ; PURPOSE ARE DISCLAIMED.  IN NO EVENT SHALL MICROCHIP BE LIABLE FOR ANY DIRECT, INDIREC
      +                          T,
    62                           ; INCIDENTAL, SPECIAL, EXEMPLARY, OR CONSEQUENTIAL DAMAGES (INCLUDING BUT NOT LIMITED TO
    63                           ; PROCUREMENT OF SUBSTITUTE GOODS OR SERVICES; LOSS OF USE, DATA OR PROFITS; OR BUSINESS
    64                           ; INTERRUPTION) HOWSOEVER CAUSED AND ON ANY THEORY OF LIABILITY, WHETHER IN CONTRACT, ST
      +                          RICT
    65                           ; LIABILITY, OR TORT (INCLUDING NEGLIGENCE OR OTHERWISE) ARISING IN ANY WAY OUT OF THE U
      +                          SE OF
    66                           ; THIS SOFTWARE, EVEN IF ADVISED OF THE POSSIBILITY OF SUCH DAMAGE.
    67                           ; 
    68                           ; 
    69                           ; Code-generator required, PIC18F4620 Definitions
    70                           ; 
    71                           ; SFR Addresses
    72   000000                     
    73                           	psect	idataCOMRAM
    74   00188C                     __pidataCOMRAM:
    75                           	callstack 0
    76                           
    77                           ;initializer for _keypad_values
    78   00188C  37                 	db	55
    79   00188D  38                 	db	56
    80   00188E  39                 	db	57
    81   00188F  2F                 	db	47
    82   001890  34                 	db	52
    83   001891  35                 	db	53
    84   001892  36                 	db	54
    85   001893  2A                 	db	42
    86   001894  31                 	db	49
    87   001895  32                 	db	50
    88   001896  33                 	db	51
    89   001897  2D                 	db	45
    90   001898  23                 	db	35
    91   001899  30                 	db	48
    92   00189A  3D                 	db	61
    93   00189B  2B                 	db	43
    94                           
    95                           ;initializer for _port_registers
    96   00189C  80                 	db	128
    97   00189D  0F                 	db	15
    98   00189E  81                 	db	129
    99   00189F  0F                 	db	15
   100   0018A0  82                 	db	130
   101   0018A1  0F                 	db	15
   102   0018A2  83                 	db	131
   103   0018A3  0F                 	db	15
   104   0018A4  84                 	db	132
   105   0018A5  0F                 	db	15
   106                           
   107                           ;initializer for _lat_registers
   108   0018A6  89                 	db	137
   109   0018A7  0F                 	db	15
   110   0018A8  8A                 	db	138
   111   0018A9  0F                 	db	15
   112   0018AA  8B                 	db	139
   113   0018AB  0F                 	db	15
   114   0018AC  8C                 	db	140
   115   0018AD  0F                 	db	15
   116   0018AE  8D                 	db	141
   117   0018AF  0F                 	db	15
   118                           
   119                           ;initializer for _tris_registers
   120   0018B0  92                 	db	146
   121   0018B1  0F                 	db	15
   122   0018B2  93                 	db	147
   123   0018B3  0F                 	db	15
   124   0018B4  94                 	db	148
   125   0018B5  0F                 	db	15
   126   0018B6  95                 	db	149
   127   0018B7  0F                 	db	15
   128   0018B8  96                 	db	150
   129   0018B9  0F                 	db	15
   130                           
   131                           ;initializer for _RB7_F
   132   0018BA  01                 	db	1
   133                           
   134                           ;initializer for _RB6_F
   135   0018BB  01                 	db	1
   136                           
   137                           ;initializer for _RB5_F
   138   0018BC  01                 	db	1
   139                           
   140                           ;initializer for _RB4_F
   141   0018BD  01                 	db	1
   142                           
   143                           ;initializer for _rb4
   144   0018BE  1E                 	db	low _RB4_isr
   145   0018BF  19                 	db	high _RB4_isr
   146   0018C0  00                 	db	0
   147   0018C1  00                 	db	0
   148   0018C2  61                 	db	97
   149   0018C3  01                 	db	1
   150                           
   151                           ;initializer for _led3
   152   0018C4  12                 	db	18
   153                           
   154                           ;initializer for _led2
   155   0018C5  0A                 	db	10
   156                           
   157                           ;initializer for _led1
   158   0018C6  02                 	db	2
   159                           
   160                           	psect	smallconst
   161   001000                     __psmallconst:
   162                           	callstack 0
   163   001000  00                 	db	0
   164   001001                     _customChar7:
   165                           	callstack 0
   166   001001  04                 	db	4
   167   001002  0A                 	db	10
   168   001003  04                 	db	4
   169   001004  04                 	db	4
   170   001005  04                 	db	4
   171   001006  0E                 	db	14
   172   001007  15                 	db	21
   173   001008  0E                 	db	14
   174   001009                     __end_of_customChar7:
   175                           	callstack 0
   176   001009                     _customChar6:
   177                           	callstack 0
   178   001009  0E                 	db	14
   179   00100A  0E                 	db	14
   180   00100B  1F                 	db	31
   181   00100C  1F                 	db	31
   182   00100D  1F                 	db	31
   183   00100E  1F                 	db	31
   184   00100F  1F                 	db	31
   185   001010  00                 	db	0
   186   001011                     __end_of_customChar6:
   187                           	callstack 0
   188   001011                     _customChar5:
   189                           	callstack 0
   190   001011  0E                 	db	14
   191   001012  0A                 	db	10
   192   001013  1F                 	db	31
   193   001014  1F                 	db	31
   194   001015  1F                 	db	31
   195   001016  1F                 	db	31
   196   001017  1F                 	db	31
   197   001018  00                 	db	0
   198   001019                     __end_of_customChar5:
   199                           	callstack 0
   200   001019                     _customChar4:
   201                           	callstack 0
   202   001019  0E                 	db	14
   203   00101A  0A                 	db	10
   204   00101B  11                 	db	17
   205   00101C  1F                 	db	31
   206   00101D  1F                 	db	31
   207   00101E  1F                 	db	31
   208   00101F  1F                 	db	31
   209   001020  00                 	db	0
   210   001021                     __end_of_customChar4:
   211                           	callstack 0
   212   001021                     _customChar3:
   213                           	callstack 0
   214   001021  0E                 	db	14
   215   001022  0A                 	db	10
   216   001023  11                 	db	17
   217   001024  11                 	db	17
   218   001025  1F                 	db	31
   219   001026  1F                 	db	31
   220   001027  1F                 	db	31
   221   001028  00                 	db	0
   222   001029                     __end_of_customChar3:
   223                           	callstack 0
   224   001029                     _customChar2:
   225                           	callstack 0
   226   001029  0E                 	db	14
   227   00102A  0A                 	db	10
   228   00102B  11                 	db	17
   229   00102C  11                 	db	17
   230   00102D  11                 	db	17
   231   00102E  1F                 	db	31
   232   00102F  1F                 	db	31
   233   001030  00                 	db	0
   234   001031                     __end_of_customChar2:
   235                           	callstack 0
   236   001031                     _customChar:
   237                           	callstack 0
   238   001031  0E                 	db	14
   239   001032  0A                 	db	10
   240   001033  11                 	db	17
   241   001034  11                 	db	17
   242   001035  11                 	db	17
   243   001036  11                 	db	17
   244   001037  1F                 	db	31
   245   001038  00                 	db	0
   246   001039                     __end_of_customChar:
   247                           	callstack 0
   248   000000                     _INTCON2bits	set	4081
   249   001039                     STR_2:
   250   001039  25                 	db	37
   251   00103A  69                 	db	105	;'i'
   252   00103B  00                 	db	0
   253   00103C  25                 	db	37
   254   00103D  75                 	db	117	;'u'
   255   00103E  00                 	db	0
   256   00103F  00                 	db	0	; dummy byte at the end
   257   000000                     
   258                           	psect	nvCOMRAM
   259   00006D                     __pnvCOMRAM:
   260                           	callstack 0
   261   00006D                     _ret:
   262                           	callstack 0
   263   00006D                     	ds	1
   264   000000                     _PORTBbits	set	3969
   265   000000                     _PORTE	set	3972
   266   000000                     _PORTD	set	3971
   267   000000                     _PORTC	set	3970
   268   000000                     _PORTB	set	3969
   269   000000                     _PORTA	set	3968
   270   000000                     _LATA	set	3977
   271   000000                     _TRISA	set	3986
   272   000000                     _INTCON3bits	set	4080
   273   000000                     _INTCONbits	set	4082
   274   000000                     _TRISE	set	3990
   275   000000                     _TRISD	set	3989
   276   000000                     _TRISC	set	3988
   277   000000                     _TRISB	set	3987
   278   000000                     _LATE	set	3981
   279   000000                     _LATD	set	3980
   280   000000                     _LATC	set	3979
   281   000000                     _LATB	set	3978
   282                           
   283                           ; #config settings
   284                           
   285                           	psect	cinit
   286   0018C8                     __pcinit:
   287                           	callstack 0
   288   0018C8                     start_initialization:
   289                           	callstack 0
   290   0018C8                     __initialization:
   291                           	callstack 0
   292                           
   293                           ; Initialize objects allocated to COMRAM (59 bytes)
   294                           ; load TBLPTR registers with __pidataCOMRAM
   295   0018C8  0E8C               	movlw	low __pidataCOMRAM
   296   0018CA  6EF6               	movwf	tblptrl,c
   297   0018CC  0E18               	movlw	high __pidataCOMRAM
   298   0018CE  6EF7               	movwf	tblptrh,c
   299   0018D0  0E00               	movlw	low (__pidataCOMRAM shr (0+16))
   300   0018D2  6EF8               	movwf	tblptru,c
   301   0018D4  EE00  F001         	lfsr	0,__pdataCOMRAM
   302   0018D8  EE10 F03B          	lfsr	1,59
   303   0018DC                     copy_data0:
   304   0018DC  0009               	tblrd		*+
   305   0018DE  CFF5 FFEE          	movff	tablat,postinc0
   306   0018E2  50E5               	movf	postdec1,w,c
   307   0018E4  50E1               	movf	fsr1l,w,c
   308   0018E6  E1FA               	bnz	copy_data0
   309                           
   310                           ; Clear objects allocated to COMRAM (29 bytes)
   311   0018E8  EE00  F03C         	lfsr	0,__pbssCOMRAM
   312   0018EC  0E1D               	movlw	29
   313   0018EE                     clear_0:
   314   0018EE  6AEE               	clrf	postinc0,c
   315   0018F0  06E8               	decf	wreg,f,c
   316   0018F2  E1FD               	bnz	clear_0
   317   0018F4                     end_of_initialization:
   318                           	callstack 0
   319   0018F4                     __end_of__initialization:
   320                           	callstack 0
   321   0018F4  906E               	bcf	int$flags,0,c	;clear compiler interrupt flag (level 1)
   322   0018F6  926E               	bcf	int$flags,1,c	;clear compiler interrupt flag (level 2)
   323   0018F8  0100               	movlb	0
   324   0018FA  EF9F  F00C         	goto	_main	;jump to C main() function
   325                           
   326                           	psect	bssCOMRAM
   327   00003C                     __pbssCOMRAM:
   328                           	callstack 0
   329   00003C                     _RB7_INTERRUPTHANDLERLOW:
   330                           	callstack 0
   331   00003C                     	ds	2
   332   00003E                     _RB7_INTERRUPTHANDLERHIGH:
   333                           	callstack 0
   334   00003E                     	ds	2
   335   000040                     _RB6_INTERRUPTHANDLERLOW:
   336                           	callstack 0
   337   000040                     	ds	2
   338   000042                     _RB6_INTERRUPTHANDLERHIGH:
   339                           	callstack 0
   340   000042                     	ds	2
   341   000044                     _RB5_INTERRUPTHANDLERLOW:
   342                           	callstack 0
   343   000044                     	ds	2
   344   000046                     _RB5_INTERRUPTHANDLERHIGH:
   345                           	callstack 0
   346   000046                     	ds	2
   347   000048                     _RB4_INTERRUPTHANDLERLOW:
   348                           	callstack 0
   349   000048                     	ds	2
   350   00004A                     _RB4_INTERRUPTHANDLERHIGH:
   351                           	callstack 0
   352   00004A                     	ds	2
   353   00004C                     _INT2_INTERRUPTHANDLER:
   354                           	callstack 0
   355   00004C                     	ds	2
   356   00004E                     _INT1_INTERRUPTHANDLER:
   357                           	callstack 0
   358   00004E                     	ds	2
   359   000050                     _INT0_INTERRUPTHANDLER:
   360                           	callstack 0
   361   000050                     	ds	2
   362   000052                     relay_turn_off@F3065:
   363                           	callstack 0
   364   000052                     	ds	1
   365   000053                     relay_turn_on@F3060:
   366                           	callstack 0
   367   000053                     	ds	1
   368   000054                     relay_initialization@F3055:
   369                           	callstack 0
   370   000054                     	ds	1
   371   000055                     led_turn_toggle@F3077:
   372                           	callstack 0
   373   000055                     	ds	1
   374   000056                     led_turn_off@F3072:
   375                           	callstack 0
   376   000056                     	ds	1
   377   000057                     led_turn_on@F3067:
   378                           	callstack 0
   379   000057                     	ds	1
   380   000058                     led_initialize@F3062:
   381                           	callstack 0
   382   000058                     	ds	1
   383                           
   384                           	psect	dataCOMRAM
   385   000001                     __pdataCOMRAM:
   386                           	callstack 0
   387   000001                     _keypad_values:
   388                           	callstack 0
   389   000001                     	ds	16
   390   000011                     _port_registers:
   391                           	callstack 0
   392   000011                     	ds	10
   393   00001B                     _lat_registers:
   394                           	callstack 0
   395   00001B                     	ds	10
   396   000025                     _tris_registers:
   397                           	callstack 0
   398   000025                     	ds	10
   399   00002F                     _RB7_F:
   400                           	callstack 0
   401   00002F                     	ds	1
   402   000030                     _RB6_F:
   403                           	callstack 0
   404   000030                     	ds	1
   405   000031                     _RB5_F:
   406                           	callstack 0
   407   000031                     	ds	1
   408   000032                     _RB4_F:
   409                           	callstack 0
   410   000032                     	ds	1
   411   000033                     _rb4:
   412                           	callstack 0
   413   000033                     	ds	6
   414   000039                     _led3:
   415                           	callstack 0
   416   000039                     	ds	1
   417   00003A                     _led2:
   418                           	callstack 0
   419   00003A                     	ds	1
   420   00003B                     _led1:
   421                           	callstack 0
   422   00003B                     	ds	1
   423                           
   424                           	psect	cstackBANK0
   425   000080                     __pcstackBANK0:
   426                           	callstack 0
   427   000080                     ??_gpio_pin_write_logic:
   428   000080                     ??_gpio_pin_direction_intialize:
   429                           
   430                           ; 1 bytes @ 0x0
   431   000080                     	ds	5
   432   000085                     gpio_pin_initialize@_pin_config:
   433                           	callstack 0
   434                           
   435                           ; 1 bytes @ 0x5
   436   000085                     	ds	1
   437   000086                     gpio_pin_initialize@ret:
   438                           	callstack 0
   439                           
   440                           ; 1 bytes @ 0x6
   441   000086                     	ds	1
   442   000087                     led_initialize@led:
   443                           	callstack 0
   444                           
   445                           ; 1 bytes @ 0x7
   446   000087                     	ds	1
   447   000088                     ??_led_initialize:
   448                           
   449                           ; 1 bytes @ 0x8
   450   000088                     	ds	1
   451   000089                     led_initialize@pin_obj:
   452                           	callstack 0
   453                           
   454                           ; 1 bytes @ 0x9
   455   000089                     	ds	1
   456                           
   457                           	psect	cstackCOMRAM
   458   000059                     __pcstackCOMRAM:
   459                           	callstack 0
   460   000059                     gpio_pin_toggle_logic@_pin_config:
   461                           	callstack 0
   462                           
   463                           ; 1 bytes @ 0x0
   464   000059                     	ds	1
   465   00005A                     ??_gpio_pin_toggle_logic:
   466                           
   467                           ; 1 bytes @ 0x1
   468   00005A                     	ds	4
   469   00005E                     led_turn_toggle@led:
   470                           	callstack 0
   471                           
   472                           ; 1 bytes @ 0x5
   473   00005E                     	ds	1
   474   00005F                     ??_led_turn_toggle:
   475                           
   476                           ; 1 bytes @ 0x6
   477   00005F                     	ds	1
   478   000060                     led_turn_toggle@pin_obj:
   479                           	callstack 0
   480                           
   481                           ; 1 bytes @ 0x7
   482   000060                     	ds	1
   483   000061                     ??_RB4_isr:
   484                           
   485                           ; 1 bytes @ 0x8
   486   000061                     	ds	2
   487   000063                     RB4_ISR@n:
   488                           	callstack 0
   489   000063                     RB5_ISR@n:
   490                           	callstack 0
   491   000063                     RB6_ISR@n:
   492                           	callstack 0
   493   000063                     RB7_ISR@n:
   494                           	callstack 0
   495                           
   496                           ; 1 bytes @ 0xA
   497   000063                     	ds	1
   498   000064                     ??_InterruptMangaer:
   499                           
   500                           ; 1 bytes @ 0xB
   501   000064                     	ds	6
   502   00006A                     gpio_pin_direction_intialize@_pin_config:
   503                           	callstack 0
   504   00006A                     gpio_pin_write_logic@_pin_config:
   505                           	callstack 0
   506                           
   507                           ; 1 bytes @ 0x11
   508   00006A                     	ds	1
   509   00006B                     gpio_pin_direction_intialize@ret:
   510                           	callstack 0
   511   00006B                     gpio_pin_write_logic@logic:
   512                           	callstack 0
   513                           
   514                           ; 1 bytes @ 0x12
   515   00006B                     	ds	1
   516   00006C                     gpio_pin_write_logic@ret:
   517                           	callstack 0
   518   00006C                     Interrupt_RBx_Init@int_obj:
   519                           	callstack 0
   520                           
   521                           ; 1 bytes @ 0x13
   522   00006C                     	ds	1
   523   00006D                     
   524                           ; 1 bytes @ 0x14
   525 ;;
   526 ;;Main: autosize = 0, tempsize = 0, incstack = 0, save=0
   527 ;;
   528 ;; *************** function _main *****************
   529 ;; Defined at:
   530 ;;		line 40 in file "application.c"
   531 ;; Parameters:    Size  Location     Type
   532 ;;		None
   533 ;; Auto vars:     Size  Location     Type
   534 ;;		None
   535 ;; Return value:  Size  Location     Type
   536 ;;                  2  702[None  ] int 
   537 ;; Registers used:
   538 ;;		wreg, fsr2l, fsr2h, status,2, status,0, prodl, prodh, cstack
   539 ;; Tracked objects:
   540 ;;		On entry : 0/0
   541 ;;		On exit  : 0/0
   542 ;;		Unchanged: 0/0
   543 ;; Data sizes:     COMRAM   BANK0   BANK1   BANK2   BANK3   BANK4   BANK5   BANK6   BANK7   BANK8   BANK9  BANK10  BANK1
      +1  BANK12  BANK13  BANK14  BANK15
   544 ;;      Params:         0       0       0       0       0       0       0       0       0       0       0       0       
      +0       0       0       0       0
   545 ;;      Locals:         0       0       0       0       0       0       0       0       0       0       0       0       
      +0       0       0       0       0
   546 ;;      Temps:          0       0       0       0       0       0       0       0       0       0       0       0       
      +0       0       0       0       0
   547 ;;      Totals:         0       0       0       0       0       0       0       0       0       0       0       0       
      +0       0       0       0       0
   548 ;;Total ram usage:        0 bytes
   549 ;; Hardware stack levels required when called: 10
   550 ;; This function calls:
   551 ;;		_Interrupt_RBx_Init
   552 ;;		_application_initialize
   553 ;; This function is called by:
   554 ;;		Startup code after reset
   555 ;; This function uses a non-reentrant model
   556 ;;
   557                           
   558                           	psect	text0
   559   00193E                     __ptext0:
   560                           	callstack 0
   561   00193E                     _main:
   562                           	callstack 21
   563   00193E                     
   564                           ;application.c: 42:     application_initialize();
   565   00193E  ECA9  F00C         	call	_application_initialize	;wreg free
   566                           
   567                           ;application.c: 46:     Interrupt_RBx_Init(&rb4);
   568   001942  0E33               	movlw	low _rb4
   569   001944  6E6C               	movwf	Interrupt_RBx_Init@int_obj^0,c
   570   001946  EC07  F00A         	call	_Interrupt_RBx_Init	;wreg free
   571   00194A                     l703:
   572   00194A  EFA5  F00C         	goto	l703
   573   00194E  EF07  F000         	goto	start
   574   001952                     __end_of_main:
   575                           	callstack 0
   576                           
   577 ;; *************** function _application_initialize *****************
   578 ;; Defined at:
   579 ;;		line 58 in file "application.c"
   580 ;; Parameters:    Size  Location     Type
   581 ;;		None
   582 ;; Auto vars:     Size  Location     Type
   583 ;;		None
   584 ;; Return value:  Size  Location     Type
   585 ;;                  1    wreg      void 
   586 ;; Registers used:
   587 ;;		wreg, fsr2l, fsr2h, status,2, status,0, prodl, prodh, cstack
   588 ;; Tracked objects:
   589 ;;		On entry : 0/0
   590 ;;		On exit  : 0/0
   591 ;;		Unchanged: 0/0
   592 ;; Data sizes:     COMRAM   BANK0   BANK1   BANK2   BANK3   BANK4   BANK5   BANK6   BANK7   BANK8   BANK9  BANK10  BANK1
      +1  BANK12  BANK13  BANK14  BANK15
   593 ;;      Params:         0       0       0       0       0       0       0       0       0       0       0       0       
      +0       0       0       0       0
   594 ;;      Locals:         0       0       0       0       0       0       0       0       0       0       0       0       
      +0       0       0       0       0
   595 ;;      Temps:          0       0       0       0       0       0       0       0       0       0       0       0       
      +0       0       0       0       0
   596 ;;      Totals:         0       0       0       0       0       0       0       0       0       0       0       0       
      +0       0       0       0       0
   597 ;;Total ram usage:        0 bytes
   598 ;; Hardware stack levels used: 1
   599 ;; Hardware stack levels required when called: 9
   600 ;; This function calls:
   601 ;;		_Ecu_initialize
   602 ;; This function is called by:
   603 ;;		_main
   604 ;; This function uses a non-reentrant model
   605 ;;
   606                           
   607                           	psect	text1
   608   001952                     __ptext1:
   609                           	callstack 0
   610   001952                     _application_initialize:
   611                           	callstack 21
   612   001952                     
   613                           ;application.c: 59:     ret = Ecu_initialize();
   614   001952  EC7F  F00C         	call	_Ecu_initialize	;wreg free
   615   001956  6E6D               	movwf	_ret^0,c
   616   001958  0012               	return		;funcret
   617   00195A                     __end_of_application_initialize:
   618                           	callstack 0
   619                           
   620 ;; *************** function _Ecu_initialize *****************
   621 ;; Defined at:
   622 ;;		line 42 in file "ECU_Layer/ECU_LAYER.c"
   623 ;; Parameters:    Size  Location     Type
   624 ;;		None
   625 ;; Auto vars:     Size  Location     Type
   626 ;;		None
   627 ;; Return value:  Size  Location     Type
   628 ;;                  1    wreg      unsigned char 
   629 ;; Registers used:
   630 ;;		wreg, fsr2l, fsr2h, status,2, status,0, prodl, prodh, cstack
   631 ;; Tracked objects:
   632 ;;		On entry : 0/0
   633 ;;		On exit  : 0/0
   634 ;;		Unchanged: 0/0
   635 ;; Data sizes:     COMRAM   BANK0   BANK1   BANK2   BANK3   BANK4   BANK5   BANK6   BANK7   BANK8   BANK9  BANK10  BANK1
      +1  BANK12  BANK13  BANK14  BANK15
   636 ;;      Params:         0       0       0       0       0       0       0       0       0       0       0       0       
      +0       0       0       0       0
   637 ;;      Locals:         0       0       0       0       0       0       0       0       0       0       0       0       
      +0       0       0       0       0
   638 ;;      Temps:          0       0       0       0       0       0       0       0       0       0       0       0       
      +0       0       0       0       0
   639 ;;      Totals:         0       0       0       0       0       0       0       0       0       0       0       0       
      +0       0       0       0       0
   640 ;;Total ram usage:        0 bytes
   641 ;; Hardware stack levels used: 1
   642 ;; Hardware stack levels required when called: 8
   643 ;; This function calls:
   644 ;;		_led_initialize
   645 ;; This function is called by:
   646 ;;		_application_initialize
   647 ;; This function uses a non-reentrant model
   648 ;;
   649                           
   650                           	psect	text2
   651   0018FE                     __ptext2:
   652                           	callstack 0
   653   0018FE                     _Ecu_initialize:
   654                           	callstack 21
   655   0018FE                     
   656                           ;ECU_Layer/ECU_LAYER.c: 44:     led_initialize(&led1);
   657   0018FE  0E3B               	movlw	low _led1
   658   001900  0100               	movlb	0	; () banked
   659   001902  6F87               	movwf	led_initialize@led& (0+255),b
   660   001904  ECFE  F00A         	call	_led_initialize	;wreg free
   661                           
   662                           ;ECU_Layer/ECU_LAYER.c: 45:     led_initialize(&led2);
   663   001908  0E3A               	movlw	low _led2
   664   00190A  0100               	movlb	0	; () banked
   665   00190C  6F87               	movwf	led_initialize@led& (0+255),b
   666   00190E  ECFE  F00A         	call	_led_initialize	;wreg free
   667                           
   668                           ;ECU_Layer/ECU_LAYER.c: 46:     led_initialize(&led3);
   669   001912  0E39               	movlw	low _led3
   670   001914  0100               	movlb	0	; () banked
   671   001916  6F87               	movwf	led_initialize@led& (0+255),b
   672   001918  ECFE  F00A         	call	_led_initialize	;wreg free
   673   00191C  0012               	return		;funcret
   674   00191E                     __end_of_Ecu_initialize:
   675                           	callstack 0
   676                           
   677 ;; *************** function _led_initialize *****************
   678 ;; Defined at:
   679 ;;		line 13 in file "ECU_Layer/LED/ecu_led.c"
   680 ;; Parameters:    Size  Location     Type
   681 ;;  led             1    7[BANK0 ] PTR const struct .
   682 ;;		 -> led3(1), led2(1), led1(1), 
   683 ;; Auto vars:     Size  Location     Type
   684 ;;  pin_obj         1    9[BANK0 ] struct .
   685 ;;  ret             1    0        unsigned char 
   686 ;; Return value:  Size  Location     Type
   687 ;;                  1    wreg      unsigned char 
   688 ;; Registers used:
   689 ;;		wreg, fsr2l, fsr2h, status,2, status,0, prodl, prodh, cstack
   690 ;; Tracked objects:
   691 ;;		On entry : 0/0
   692 ;;		On exit  : 0/0
   693 ;;		Unchanged: 0/0
   694 ;; Data sizes:     COMRAM   BANK0   BANK1   BANK2   BANK3   BANK4   BANK5   BANK6   BANK7   BANK8   BANK9  BANK10  BANK1
      +1  BANK12  BANK13  BANK14  BANK15
   695 ;;      Params:         0       1       0       0       0       0       0       0       0       0       0       0       
      +0       0       0       0       0
   696 ;;      Locals:         0       1       0       0       0       0       0       0       0       0       0       0       
      +0       0       0       0       0
   697 ;;      Temps:          0       1       0       0       0       0       0       0       0       0       0       0       
      +0       0       0       0       0
   698 ;;      Totals:         0       3       0       0       0       0       0       0       0       0       0       0       
      +0       0       0       0       0
   699 ;;Total ram usage:        3 bytes
   700 ;; Hardware stack levels used: 1
   701 ;; Hardware stack levels required when called: 7
   702 ;; This function calls:
   703 ;;		_gpio_pin_initialize
   704 ;; This function is called by:
   705 ;;		_Ecu_initialize
   706 ;; This function uses a non-reentrant model
   707 ;;
   708                           
   709                           	psect	text3
   710   0015FC                     __ptext3:
   711                           	callstack 0
   712   0015FC                     _led_initialize:
   713                           	callstack 21
   714   0015FC                     
   715                           ;ECU_Layer/LED/ecu_led.c: 15:     if(led == ((void*)0)){
   716   0015FC  0100               	movlb	0	; () banked
   717   0015FE  5187               	movf	led_initialize@led& (0+255),w,b
   718   001600  A4D8               	btfss	status,2,c
   719   001602  EF05  F00B         	goto	u2921
   720   001606  EF07  F00B         	goto	u2920
   721   00160A                     u2921:
   722   00160A  EF09  F00B         	goto	l245
   723   00160E                     u2920:
   724   00160E                     
   725                           ; BSR set to: 0
   726                           ;ECU_Layer/LED/ecu_led.c: 17:     }
   727   00160E  EF34  F00B         	goto	l249
   728   001612                     l245:
   729                           
   730                           ; BSR set to: 0
   731                           ;ECU_Layer/LED/ecu_led.c: 19:         pin_config_t pin_obj = {.port = led->port_name, .p
      +                          in = led->pin_name,
   732   001612  C058  F089         	movff	led_initialize@F3062,led_initialize@pin_obj
   733   001616                     
   734                           ; BSR set to: 0
   735   001616  5187               	movf	led_initialize@led& (0+255),w,b
   736   001618  6ED9               	movwf	fsr2l,c
   737   00161A  6ADA               	clrf	fsr2h,c
   738   00161C  50DF               	movf	223,w,c
   739   00161E  0B07               	andlw	7
   740   001620  6F88               	movwf	??_led_initialize& (0+255),b
   741   001622  5189               	movf	led_initialize@pin_obj& (0+255),w,b
   742   001624  1988               	xorwf	??_led_initialize& (0+255),w,b
   743   001626  0BF8               	andlw	-8
   744   001628  1988               	xorwf	??_led_initialize& (0+255),w,b
   745   00162A  6F89               	movwf	led_initialize@pin_obj& (0+255),b
   746   00162C  5187               	movf	led_initialize@led& (0+255),w,b
   747   00162E  6ED9               	movwf	fsr2l,c
   748   001630  6ADA               	clrf	fsr2h,c
   749   001632  30DF               	rrcf	223,w,c
   750   001634  32E8               	rrcf	wreg,f,c
   751   001636  32E8               	rrcf	wreg,f,c
   752   001638  0B07               	andlw	7
   753   00163A  6F88               	movwf	??_led_initialize& (0+255),b
   754   00163C  4788               	rlncf	??_led_initialize& (0+255),f,b
   755   00163E  4788               	rlncf	??_led_initialize& (0+255),f,b
   756   001640  4788               	rlncf	??_led_initialize& (0+255),f,b
   757   001642  5189               	movf	led_initialize@pin_obj& (0+255),w,b
   758   001644  1988               	xorwf	??_led_initialize& (0+255),w,b
   759   001646  0BC7               	andlw	-57
   760   001648  1988               	xorwf	??_led_initialize& (0+255),w,b
   761   00164A  6F89               	movwf	led_initialize@pin_obj& (0+255),b
   762   00164C                     
   763                           ; BSR set to: 0
   764   00164C  9D89               	bcf	led_initialize@pin_obj& (0+255),6,b
   765   00164E                     
   766                           ; BSR set to: 0
   767   00164E  5187               	movf	led_initialize@led& (0+255),w,b
   768   001650  6ED9               	movwf	fsr2l,c
   769   001652  6ADA               	clrf	fsr2h,c
   770   001654  ACDF               	btfss	indf2,6,c
   771   001656  D002               	bra	u2935
   772   001658  8F89               	bsf	led_initialize@pin_obj& (0+255),7,b
   773   00165A  D002               	bra	u2937
   774   00165C                     u2935:
   775   00165C  0100               	movlb	0	; () banked
   776   00165E  9F89               	bcf	led_initialize@pin_obj& (0+255),7,b
   777   001660                     u2937:
   778   001660                     
   779                           ; BSR set to: 0
   780                           ;ECU_Layer/LED/ecu_led.c: 21:         gpio_pin_initialize(&pin_obj);
   781   001660  0E89               	movlw	low led_initialize@pin_obj
   782   001662  6F85               	movwf	gpio_pin_initialize@_pin_config& (0+255),b
   783   001664  ECBE  F00B         	call	_gpio_pin_initialize	;wreg free
   784   001668                     l249:
   785   001668  0012               	return		;funcret
   786   00166A                     __end_of_led_initialize:
   787                           	callstack 0
   788                           
   789 ;; *************** function _gpio_pin_initialize *****************
   790 ;; Defined at:
   791 ;;		line 134 in file "MCAL_Layer/GPIO/hal_gpio.c"
   792 ;; Parameters:    Size  Location     Type
   793 ;;  _pin_config     1    5[BANK0 ] PTR const struct .
   794 ;;		 -> relay_initialization@pin_obj(1), led_initialize@pin_obj(1), 
   795 ;; Auto vars:     Size  Location     Type
   796 ;;  ret             1    6[BANK0 ] unsigned char 
   797 ;; Return value:  Size  Location     Type
   798 ;;                  1    wreg      unsigned char 
   799 ;; Registers used:
   800 ;;		wreg, fsr2l, fsr2h, status,2, status,0, prodl, prodh, cstack
   801 ;; Tracked objects:
   802 ;;		On entry : 0/0
   803 ;;		On exit  : 0/0
   804 ;;		Unchanged: 0/0
   805 ;; Data sizes:     COMRAM   BANK0   BANK1   BANK2   BANK3   BANK4   BANK5   BANK6   BANK7   BANK8   BANK9  BANK10  BANK1
      +1  BANK12  BANK13  BANK14  BANK15
   806 ;;      Params:         0       1       0       0       0       0       0       0       0       0       0       0       
      +0       0       0       0       0
   807 ;;      Locals:         0       1       0       0       0       0       0       0       0       0       0       0       
      +0       0       0       0       0
   808 ;;      Temps:          0       0       0       0       0       0       0       0       0       0       0       0       
      +0       0       0       0       0
   809 ;;      Totals:         0       2       0       0       0       0       0       0       0       0       0       0       
      +0       0       0       0       0
   810 ;;Total ram usage:        2 bytes
   811 ;; Hardware stack levels used: 1
   812 ;; Hardware stack levels required when called: 6
   813 ;; This function calls:
   814 ;;		_gpio_pin_direction_intialize
   815 ;;		_gpio_pin_write_logic
   816 ;; This function is called by:
   817 ;;		_led_initialize
   818 ;;		_sev_seg_initialize
   819 ;;		_keypad_initialize
   820 ;;		_lcd_8bit_initialize
   821 ;;		_lcd_4bit_initialize
   822 ;;		_motor_initialize
   823 ;;		_relay_initialization
   824 ;; This function uses a non-reentrant model
   825 ;;
   826                           
   827                           	psect	text4
   828   00177C                     __ptext4:
   829                           	callstack 0
   830   00177C                     _gpio_pin_initialize:
   831                           	callstack 21
   832   00177C                     
   833                           ;MCAL_Layer/GPIO/hal_gpio.c: 135:     std_ReturnType ret = (std_ReturnType)0x01;
   834   00177C  0E01               	movlw	1
   835   00177E  0100               	movlb	0	; () banked
   836   001780  6F86               	movwf	gpio_pin_initialize@ret& (0+255),b
   837                           
   838                           ;MCAL_Layer/GPIO/hal_gpio.c: 136:     if(((void*)0) == _pin_config ){
   839   001782  5185               	movf	gpio_pin_initialize@_pin_config& (0+255),w,b
   840   001784  A4D8               	btfss	status,2,c
   841   001786  EFC7  F00B         	goto	u2911
   842   00178A  EFC9  F00B         	goto	u2910
   843   00178E                     u2911:
   844   00178E  EFCD  F00B         	goto	l3661
   845   001792                     u2910:
   846   001792                     
   847                           ; BSR set to: 0
   848                           ;MCAL_Layer/GPIO/hal_gpio.c: 137:         ret = (std_ReturnType)0x00;
   849   001792  0E00               	movlw	0
   850   001794  6F86               	movwf	gpio_pin_initialize@ret& (0+255),b
   851                           
   852                           ;MCAL_Layer/GPIO/hal_gpio.c: 138:     }
   853   001796  EFDD  F00B         	goto	l3663
   854   00179A                     l3661:
   855                           
   856                           ; BSR set to: 0
   857                           ;MCAL_Layer/GPIO/hal_gpio.c: 140:         gpio_pin_direction_intialize(_pin_config);
   858   00179A  C085  F06A         	movff	gpio_pin_initialize@_pin_config,gpio_pin_direction_intialize@_pin_config
   859   00179E  EC7B  F009         	call	_gpio_pin_direction_intialize	;wreg free
   860                           
   861                           ;MCAL_Layer/GPIO/hal_gpio.c: 141:         gpio_pin_write_logic(_pin_config,_pin_config->
      +                          logic);
   862   0017A2  C085  F06A         	movff	gpio_pin_initialize@_pin_config,gpio_pin_write_logic@_pin_config
   863   0017A6  0100               	movlb	0	; () banked
   864   0017A8  5185               	movf	gpio_pin_initialize@_pin_config& (0+255),w,b
   865   0017AA  6ED9               	movwf	fsr2l,c
   866   0017AC  6ADA               	clrf	fsr2h,c
   867   0017AE  0E00               	movlw	0
   868   0017B0  BEDF               	btfsc	indf2,7,c
   869   0017B2  0E01               	movlw	1
   870   0017B4  6E6B               	movwf	gpio_pin_write_logic@logic^0,c
   871   0017B6  EC83  F00A         	call	_gpio_pin_write_logic	;wreg free
   872   0017BA                     l3663:
   873                           
   874                           ;MCAL_Layer/GPIO/hal_gpio.c: 143:     return ret;
   875   0017BA  0100               	movlb	0	; () banked
   876   0017BC  5186               	movf	gpio_pin_initialize@ret& (0+255),w,b
   877   0017BE                     
   878                           ; BSR set to: 0
   879   0017BE  0012               	return		;funcret
   880   0017C0                     __end_of_gpio_pin_initialize:
   881                           	callstack 0
   882                           
   883 ;; *************** function _gpio_pin_write_logic *****************
   884 ;; Defined at:
   885 ;;		line 68 in file "MCAL_Layer/GPIO/hal_gpio.c"
   886 ;; Parameters:    Size  Location     Type
   887 ;;  _pin_config     1   17[COMRAM] PTR const struct .
   888 ;;		 -> relay_turn_off@pin_obj(1), relay_turn_on@pin_obj(1), relay_initialization@pin_obj(1), led_turn_off@pin_obj(1), 
   889 ;;		 -> led_turn_on@pin_obj(1), led_initialize@pin_obj(1), 
   890 ;;  logic           1   18[COMRAM] enum E2981
   891 ;; Auto vars:     Size  Location     Type
   892 ;;  ret             1   19[COMRAM] unsigned char 
   893 ;; Return value:  Size  Location     Type
   894 ;;                  1    wreg      unsigned char 
   895 ;; Registers used:
   896 ;;		wreg, fsr2l, fsr2h, status,2, status,0, prodl, prodh
   897 ;; Tracked objects:
   898 ;;		On entry : 0/0
   899 ;;		On exit  : 0/0
   900 ;;		Unchanged: 0/0
   901 ;; Data sizes:     COMRAM   BANK0   BANK1   BANK2   BANK3   BANK4   BANK5   BANK6   BANK7   BANK8   BANK9  BANK10  BANK1
      +1  BANK12  BANK13  BANK14  BANK15
   902 ;;      Params:         2       0       0       0       0       0       0       0       0       0       0       0       
      +0       0       0       0       0
   903 ;;      Locals:         1       0       0       0       0       0       0       0       0       0       0       0       
      +0       0       0       0       0
   904 ;;      Temps:          0       5       0       0       0       0       0       0       0       0       0       0       
      +0       0       0       0       0
   905 ;;      Totals:         3       5       0       0       0       0       0       0       0       0       0       0       
      +0       0       0       0       0
   906 ;;Total ram usage:        8 bytes
   907 ;; Hardware stack levels used: 1
   908 ;; Hardware stack levels required when called: 5
   909 ;; This function calls:
   910 ;;		Nothing
   911 ;; This function is called by:
   912 ;;		_gpio_pin_initialize
   913 ;;		_sev_seg_write_number
   914 ;;		_keypad_read_value
   915 ;;		_lcd_8bit_send_command
   916 ;;		_lcd_8bit_send_char
   917 ;;		_lcd_4bit_send_command
   918 ;;		_lcd_4bit_send_char
   919 ;;		_lcd_send_8bits
   920 ;;		_lcd_send_4bits
   921 ;;		_enable_signal_8bits
   922 ;;		_enable_signal_4bits
   923 ;;		_led_turn_on
   924 ;;		_led_turn_off
   925 ;;		_motor_turn_right
   926 ;;		_motor_turn_left
   927 ;;		_motor_stop
   928 ;;		_relay_turn_on
   929 ;;		_relay_turn_off
   930 ;; This function uses a non-reentrant model
   931 ;;
   932                           
   933                           	psect	text5
   934   001506                     __ptext5:
   935                           	callstack 0
   936   001506                     _gpio_pin_write_logic:
   937                           	callstack 21
   938   001506                     
   939                           ;MCAL_Layer/GPIO/hal_gpio.c: 69:     std_ReturnType ret = (std_ReturnType)0x01;
   940   001506  0E01               	movlw	1
   941   001508  6E6C               	movwf	gpio_pin_write_logic@ret^0,c
   942                           
   943                           ;MCAL_Layer/GPIO/hal_gpio.c: 70:     if(((void*)0) == _pin_config){
   944   00150A  506A               	movf	gpio_pin_write_logic@_pin_config^0,w,c
   945   00150C  A4D8               	btfss	status,2,c
   946   00150E  EF8B  F00A         	goto	u2831
   947   001512  EF8D  F00A         	goto	u2830
   948   001516                     u2831:
   949   001516  EFE6  F00A         	goto	l3629
   950   00151A                     u2830:
   951   00151A                     
   952                           ;MCAL_Layer/GPIO/hal_gpio.c: 71:         ret = (std_ReturnType)0x00;
   953   00151A  0E00               	movlw	0
   954   00151C  6E6C               	movwf	gpio_pin_write_logic@ret^0,c
   955                           
   956                           ;MCAL_Layer/GPIO/hal_gpio.c: 72:     }
   957   00151E  EFFC  F00A         	goto	l3631
   958   001522                     l3623:
   959                           
   960                           ; BSR set to: 0
   961                           ;MCAL_Layer/GPIO/hal_gpio.c: 76:                 (*lat_registers[_pin_config->port] &= ~
      +                          ((uint8)1<<_pin_config->pin));
   962   001522  506A               	movf	gpio_pin_write_logic@_pin_config^0,w,c
   963   001524  6ED9               	movwf	fsr2l,c
   964   001526  6ADA               	clrf	fsr2h,c
   965   001528  30DF               	rrcf	223,w,c
   966   00152A  32E8               	rrcf	wreg,f,c
   967   00152C  32E8               	rrcf	wreg,f,c
   968   00152E  0B07               	andlw	7
   969   001530  6F80               	movwf	??_gpio_pin_write_logic& (0+255),b
   970   001532  0E01               	movlw	1
   971   001534  6F81               	movwf	(??_gpio_pin_write_logic+1)& (0+255),b
   972   001536  2B80               	incf	??_gpio_pin_write_logic& (0+255),f,b
   973   001538  EFA0  F00A         	goto	u2844
   974   00153C                     u2845:
   975   00153C  90D8               	bcf	status,0,c
   976   00153E  3781               	rlcf	(??_gpio_pin_write_logic+1)& (0+255),f,b
   977   001540                     u2844:
   978   001540  2F80               	decfsz	??_gpio_pin_write_logic& (0+255),f,b
   979   001542  EF9E  F00A         	goto	u2845
   980   001546  0100               	movlb	0	; () banked
   981   001548  5181               	movf	(??_gpio_pin_write_logic+1)& (0+255),w,b
   982   00154A  0AFF               	xorlw	255
   983   00154C  6F82               	movwf	(??_gpio_pin_write_logic+2)& (0+255),b
   984   00154E  506A               	movf	gpio_pin_write_logic@_pin_config^0,w,c
   985   001550  6ED9               	movwf	fsr2l,c
   986   001552  6ADA               	clrf	fsr2h,c
   987   001554  50DF               	movf	223,w,c
   988   001556  0B07               	andlw	7
   989   001558  0D02               	mullw	2
   990   00155A  50F3               	movf	243,w,c
   991   00155C  0F1B               	addlw	low _lat_registers
   992   00155E  6ED9               	movwf	fsr2l,c
   993   001560  6ADA               	clrf	fsr2h,c
   994   001562  CFDE F083          	movff	postinc2,??_gpio_pin_write_logic+3
   995   001566  CFDD F084          	movff	postdec2,??_gpio_pin_write_logic+4
   996   00156A  C083  FFD9         	movff	??_gpio_pin_write_logic+3,fsr2l
   997   00156E  C084  FFDA         	movff	??_gpio_pin_write_logic+4,fsr2h
   998   001572  5182               	movf	(??_gpio_pin_write_logic+2)& (0+255),w,b
   999   001574  16DF               	andwf	indf2,f,c
  1000                           
  1001                           ;MCAL_Layer/GPIO/hal_gpio.c: 77:                 break;
  1002   001576  EFFC  F00A         	goto	l3631
  1003   00157A                     l3625:
  1004                           
  1005                           ; BSR set to: 0
  1006                           ;MCAL_Layer/GPIO/hal_gpio.c: 79:                 (*lat_registers[_pin_config->port] |= (
      +                          (uint8)1<<_pin_config->pin));
  1007   00157A  506A               	movf	gpio_pin_write_logic@_pin_config^0,w,c
  1008   00157C  6ED9               	movwf	fsr2l,c
  1009   00157E  6ADA               	clrf	fsr2h,c
  1010   001580  30DF               	rrcf	223,w,c
  1011   001582  32E8               	rrcf	wreg,f,c
  1012   001584  32E8               	rrcf	wreg,f,c
  1013   001586  0B07               	andlw	7
  1014   001588  6F80               	movwf	??_gpio_pin_write_logic& (0+255),b
  1015   00158A  0E01               	movlw	1
  1016   00158C  6F81               	movwf	(??_gpio_pin_write_logic+1)& (0+255),b
  1017   00158E  2B80               	incf	??_gpio_pin_write_logic& (0+255),f,b
  1018   001590  EFCC  F00A         	goto	u2854
  1019   001594                     u2855:
  1020   001594  90D8               	bcf	status,0,c
  1021   001596  3781               	rlcf	(??_gpio_pin_write_logic+1)& (0+255),f,b
  1022   001598                     u2854:
  1023   001598  2F80               	decfsz	??_gpio_pin_write_logic& (0+255),f,b
  1024   00159A  EFCA  F00A         	goto	u2855
  1025   00159E  506A               	movf	gpio_pin_write_logic@_pin_config^0,w,c
  1026   0015A0  6ED9               	movwf	fsr2l,c
  1027   0015A2  6ADA               	clrf	fsr2h,c
  1028   0015A4  50DF               	movf	223,w,c
  1029   0015A6  0B07               	andlw	7
  1030   0015A8  0D02               	mullw	2
  1031   0015AA  50F3               	movf	243,w,c
  1032   0015AC  0F1B               	addlw	low _lat_registers
  1033   0015AE  6ED9               	movwf	fsr2l,c
  1034   0015B0  6ADA               	clrf	fsr2h,c
  1035   0015B2  CFDE F082          	movff	postinc2,??_gpio_pin_write_logic+2
  1036   0015B6  CFDD F083          	movff	postdec2,??_gpio_pin_write_logic+3
  1037   0015BA  C082  FFD9         	movff	??_gpio_pin_write_logic+2,fsr2l
  1038   0015BE  C083  FFDA         	movff	??_gpio_pin_write_logic+3,fsr2h
  1039   0015C2  0100               	movlb	0	; () banked
  1040   0015C4  5181               	movf	(??_gpio_pin_write_logic+1)& (0+255),w,b
  1041   0015C6  12DF               	iorwf	indf2,f,c
  1042                           
  1043                           ;MCAL_Layer/GPIO/hal_gpio.c: 80:                 break;
  1044   0015C8  EFFC  F00A         	goto	l3631
  1045   0015CC                     l3629:
  1046   0015CC  506B               	movf	gpio_pin_write_logic@logic^0,w,c
  1047   0015CE  0100               	movlb	0	; () banked
  1048   0015D0  6F80               	movwf	??_gpio_pin_write_logic& (0+255),b
  1049   0015D2  6B81               	clrf	(??_gpio_pin_write_logic+1)& (0+255),b
  1050                           
  1051                           ; Switch on 2 bytes has been partitioned into a top level switch of size 1, and 1 sub-sw
      +                          itches
  1052                           ; Switch size 1, requested type "simple"
  1053                           ; Number of cases is 1, Range of values is 0 to 0
  1054                           ; switch strategies available:
  1055                           ; Name         Instructions Cycles
  1056                           ; simple_byte            4     3 (average)
  1057                           ;	Chosen strategy is simple_byte
  1058   0015D4  5181               	movf	(??_gpio_pin_write_logic+1)& (0+255),w,b
  1059   0015D6  0A00               	xorlw	0	; case 0
  1060   0015D8  B4D8               	btfsc	status,2,c
  1061   0015DA  EFF1  F00A         	goto	l4379
  1062   0015DE  EFFC  F00A         	goto	l3631
  1063   0015E2                     l4379:
  1064                           
  1065                           ; BSR set to: 0
  1066                           ; Switch size 1, requested type "simple"
  1067                           ; Number of cases is 2, Range of values is 0 to 1
  1068                           ; switch strategies available:
  1069                           ; Name         Instructions Cycles
  1070                           ; simple_byte            7     4 (average)
  1071                           ;	Chosen strategy is simple_byte
  1072   0015E2  5180               	movf	??_gpio_pin_write_logic& (0+255),w,b
  1073   0015E4  0A00               	xorlw	0	; case 0
  1074   0015E6  B4D8               	btfsc	status,2,c
  1075   0015E8  EF91  F00A         	goto	l3623
  1076   0015EC  0A01               	xorlw	1	; case 1
  1077   0015EE  B4D8               	btfsc	status,2,c
  1078   0015F0  EFBD  F00A         	goto	l3625
  1079   0015F4  EFFC  F00A         	goto	l3631
  1080   0015F8                     l3631:
  1081                           
  1082                           ;MCAL_Layer/GPIO/hal_gpio.c: 86:     return ret;
  1083   0015F8  506C               	movf	gpio_pin_write_logic@ret^0,w,c
  1084   0015FA  0012               	return		;funcret
  1085   0015FC                     __end_of_gpio_pin_write_logic:
  1086                           	callstack 0
  1087                           
  1088 ;; *************** function _Interrupt_RBx_Init *****************
  1089 ;; Defined at:
  1090 ;;		line 207 in file "MCAL_Layer/Interrupt/mcal_external_interrupt.c"
  1091 ;; Parameters:    Size  Location     Type
  1092 ;;  int_obj         1   19[COMRAM] PTR const struct .
  1093 ;;		 -> rb4(6), 
  1094 ;; Auto vars:     Size  Location     Type
  1095 ;;  ret             1    0        unsigned char 
  1096 ;; Return value:  Size  Location     Type
  1097 ;;                  1    wreg      unsigned char 
  1098 ;; Registers used:
  1099 ;;		wreg, fsr2l, fsr2h, status,2, status,0, prodl, prodh, cstack
  1100 ;; Tracked objects:
  1101 ;;		On entry : 0/0
  1102 ;;		On exit  : 0/0
  1103 ;;		Unchanged: 0/0
  1104 ;; Data sizes:     COMRAM   BANK0   BANK1   BANK2   BANK3   BANK4   BANK5   BANK6   BANK7   BANK8   BANK9  BANK10  BANK1
      +1  BANK12  BANK13  BANK14  BANK15
  1105 ;;      Params:         1       0       0       0       0       0       0       0       0       0       0       0       
      +0       0       0       0       0
  1106 ;;      Locals:         0       0       0       0       0       0       0       0       0       0       0       0       
      +0       0       0       0       0
  1107 ;;      Temps:          0       0       0       0       0       0       0       0       0       0       0       0       
      +0       0       0       0       0
  1108 ;;      Totals:         1       0       0       0       0       0       0       0       0       0       0       0       
      +0       0       0       0       0
  1109 ;;Total ram usage:        1 bytes
  1110 ;; Hardware stack levels used: 1
  1111 ;; Hardware stack levels required when called: 6
  1112 ;; This function calls:
  1113 ;;		_gpio_pin_direction_intialize
  1114 ;; This function is called by:
  1115 ;;		_main
  1116 ;; This function uses a non-reentrant model
  1117 ;;
  1118                           
  1119                           	psect	text6
  1120   00140E                     __ptext6:
  1121                           	callstack 0
  1122   00140E                     _Interrupt_RBx_Init:
  1123                           	callstack 24
  1124   00140E                     
  1125                           ;MCAL_Layer/Interrupt/mcal_external_interrupt.c: 209:     if(int_obj == ((void*)0)){
  1126   00140E  506C               	movf	Interrupt_RBx_Init@int_obj^0,w,c
  1127   001410  A4D8               	btfss	status,2,c
  1128   001412  EF0D  F00A         	goto	u3111
  1129   001416  EF0F  F00A         	goto	u3110
  1130   00141A                     u3111:
  1131   00141A  EF11  F00A         	goto	l557
  1132   00141E                     u3110:
  1133   00141E                     
  1134                           ;MCAL_Layer/Interrupt/mcal_external_interrupt.c: 211:     }
  1135   00141E  EF82  F00A         	goto	l566
  1136   001422                     l557:
  1137                           
  1138                           ;MCAL_Layer/Interrupt/mcal_external_interrupt.c: 213:         (INTCONbits.RBIE = 0);
  1139   001422  96F2               	bcf	242,3,c	;volatile
  1140                           
  1141                           ;MCAL_Layer/Interrupt/mcal_external_interrupt.c: 214:         (INTCONbits.RBIF = 0);
  1142   001424  90F2               	bcf	242,0,c	;volatile
  1143                           
  1144                           ;MCAL_Layer/Interrupt/mcal_external_interrupt.c: 226:          (INTCONbits.GIEH = 1);
  1145   001426  8EF2               	bsf	242,7,c	;volatile
  1146                           
  1147                           ;MCAL_Layer/Interrupt/mcal_external_interrupt.c: 227:          (INTCONbits.PEIE = 1);
  1148   001428  8CF2               	bsf	242,6,c	;volatile
  1149   00142A  506C               	movf	Interrupt_RBx_Init@int_obj^0,w,c
  1150   00142C  0F04               	addlw	4
  1151   00142E  6E6A               	movwf	gpio_pin_direction_intialize@_pin_config^0,c
  1152   001430  EC7B  F009         	call	_gpio_pin_direction_intialize	;wreg free
  1153                           
  1154                           ;MCAL_Layer/Interrupt/mcal_external_interrupt.c: 231:          switch(int_obj->pin.pin){
  1155   001434  EF66  F00A         	goto	l3879
  1156   001438                     l3861:
  1157                           
  1158                           ;MCAL_Layer/Interrupt/mcal_external_interrupt.c: 233:                  RB4_INTERRUPTHAND
      +                          LERHIGH = int_obj->EXT_INTERRUPT_HANDLER_HIGH;
  1159   001438  506C               	movf	Interrupt_RBx_Init@int_obj^0,w,c
  1160   00143A  6ED9               	movwf	fsr2l,c
  1161   00143C  6ADA               	clrf	fsr2h,c
  1162   00143E  CFDE F04A          	movff	postinc2,_RB4_INTERRUPTHANDLERHIGH
  1163   001442  CFDD F04B          	movff	postdec2,_RB4_INTERRUPTHANDLERHIGH+1
  1164   001446                     
  1165                           ;MCAL_Layer/Interrupt/mcal_external_interrupt.c: 234:                  RB4_INTERRUPTHAND
      +                          LERLOW = int_obj->EXT_INTERRUPT_HANDLER_LOW;
  1166   001446  506C               	movf	Interrupt_RBx_Init@int_obj^0,w,c
  1167   001448  6ED9               	movwf	fsr2l,c
  1168   00144A  6ADA               	clrf	fsr2h,c
  1169   00144C  0E02               	movlw	2
  1170   00144E  26D9               	addwf	fsr2l,f,c
  1171   001450  CFDE F048          	movff	postinc2,_RB4_INTERRUPTHANDLERLOW
  1172   001454  CFDD F049          	movff	postdec2,_RB4_INTERRUPTHANDLERLOW+1
  1173                           
  1174                           ;MCAL_Layer/Interrupt/mcal_external_interrupt.c: 236:                  break;
  1175   001458  EF81  F00A         	goto	l561
  1176   00145C                     l3865:
  1177                           
  1178                           ;MCAL_Layer/Interrupt/mcal_external_interrupt.c: 238:                  RB5_INTERRUPTHAND
      +                          LERHIGH = int_obj->EXT_INTERRUPT_HANDLER_HIGH;
  1179   00145C  506C               	movf	Interrupt_RBx_Init@int_obj^0,w,c
  1180   00145E  6ED9               	movwf	fsr2l,c
  1181   001460  6ADA               	clrf	fsr2h,c
  1182   001462  CFDE F046          	movff	postinc2,_RB5_INTERRUPTHANDLERHIGH
  1183   001466  CFDD F047          	movff	postdec2,_RB5_INTERRUPTHANDLERHIGH+1
  1184   00146A                     
  1185                           ;MCAL_Layer/Interrupt/mcal_external_interrupt.c: 239:                  RB5_INTERRUPTHAND
      +                          LERLOW = int_obj->EXT_INTERRUPT_HANDLER_LOW;
  1186   00146A  506C               	movf	Interrupt_RBx_Init@int_obj^0,w,c
  1187   00146C  6ED9               	movwf	fsr2l,c
  1188   00146E  6ADA               	clrf	fsr2h,c
  1189   001470  0E02               	movlw	2
  1190   001472  26D9               	addwf	fsr2l,f,c
  1191   001474  CFDE F044          	movff	postinc2,_RB5_INTERRUPTHANDLERLOW
  1192   001478  CFDD F045          	movff	postdec2,_RB5_INTERRUPTHANDLERLOW+1
  1193                           
  1194                           ;MCAL_Layer/Interrupt/mcal_external_interrupt.c: 240:                  break;
  1195   00147C  EF81  F00A         	goto	l561
  1196   001480                     l3869:
  1197                           
  1198                           ;MCAL_Layer/Interrupt/mcal_external_interrupt.c: 242:                  RB6_INTERRUPTHAND
      +                          LERHIGH = int_obj->EXT_INTERRUPT_HANDLER_HIGH;
  1199   001480  506C               	movf	Interrupt_RBx_Init@int_obj^0,w,c
  1200   001482  6ED9               	movwf	fsr2l,c
  1201   001484  6ADA               	clrf	fsr2h,c
  1202   001486  CFDE F042          	movff	postinc2,_RB6_INTERRUPTHANDLERHIGH
  1203   00148A  CFDD F043          	movff	postdec2,_RB6_INTERRUPTHANDLERHIGH+1
  1204   00148E                     
  1205                           ;MCAL_Layer/Interrupt/mcal_external_interrupt.c: 243:                  RB6_INTERRUPTHAND
      +                          LERLOW = int_obj->EXT_INTERRUPT_HANDLER_LOW;
  1206   00148E  506C               	movf	Interrupt_RBx_Init@int_obj^0,w,c
  1207   001490  6ED9               	movwf	fsr2l,c
  1208   001492  6ADA               	clrf	fsr2h,c
  1209   001494  0E02               	movlw	2
  1210   001496  26D9               	addwf	fsr2l,f,c
  1211   001498  CFDE F040          	movff	postinc2,_RB6_INTERRUPTHANDLERLOW
  1212   00149C  CFDD F041          	movff	postdec2,_RB6_INTERRUPTHANDLERLOW+1
  1213                           
  1214                           ;MCAL_Layer/Interrupt/mcal_external_interrupt.c: 244:                  break;
  1215   0014A0  EF81  F00A         	goto	l561
  1216   0014A4                     l3873:
  1217                           
  1218                           ;MCAL_Layer/Interrupt/mcal_external_interrupt.c: 246:                  RB7_INTERRUPTHAND
      +                          LERHIGH = int_obj->EXT_INTERRUPT_HANDLER_HIGH;
  1219   0014A4  506C               	movf	Interrupt_RBx_Init@int_obj^0,w,c
  1220   0014A6  6ED9               	movwf	fsr2l,c
  1221   0014A8  6ADA               	clrf	fsr2h,c
  1222   0014AA  CFDE F03E          	movff	postinc2,_RB7_INTERRUPTHANDLERHIGH
  1223   0014AE  CFDD F03F          	movff	postdec2,_RB7_INTERRUPTHANDLERHIGH+1
  1224   0014B2                     
  1225                           ;MCAL_Layer/Interrupt/mcal_external_interrupt.c: 247:                  RB7_INTERRUPTHAND
      +                          LERLOW = int_obj->EXT_INTERRUPT_HANDLER_LOW;
  1226   0014B2  506C               	movf	Interrupt_RBx_Init@int_obj^0,w,c
  1227   0014B4  6ED9               	movwf	fsr2l,c
  1228   0014B6  6ADA               	clrf	fsr2h,c
  1229   0014B8  0E02               	movlw	2
  1230   0014BA  26D9               	addwf	fsr2l,f,c
  1231   0014BC  CFDE F03C          	movff	postinc2,_RB7_INTERRUPTHANDLERLOW
  1232   0014C0  CFDD F03D          	movff	postdec2,_RB7_INTERRUPTHANDLERLOW+1
  1233                           
  1234                           ;MCAL_Layer/Interrupt/mcal_external_interrupt.c: 248:                  break;
  1235   0014C4  EF81  F00A         	goto	l561
  1236   0014C8                     l3877:
  1237                           
  1238                           ;MCAL_Layer/Interrupt/mcal_external_interrupt.c: 251:          }
  1239   0014C8  EF81  F00A         	goto	l561
  1240   0014CC                     l3879:
  1241   0014CC  506C               	movf	Interrupt_RBx_Init@int_obj^0,w,c
  1242   0014CE  6ED9               	movwf	fsr2l,c
  1243   0014D0  6ADA               	clrf	fsr2h,c
  1244   0014D2  0E04               	movlw	4
  1245   0014D4  26D9               	addwf	fsr2l,f,c
  1246   0014D6  30DF               	rrcf	223,w,c
  1247   0014D8  32E8               	rrcf	wreg,f,c
  1248   0014DA  32E8               	rrcf	wreg,f,c
  1249   0014DC  0B07               	andlw	7
  1250                           
  1251                           ; Switch size 1, requested type "simple"
  1252                           ; Number of cases is 4, Range of values is 4 to 7
  1253                           ; switch strategies available:
  1254                           ; Name         Instructions Cycles
  1255                           ; simple_byte           13     7 (average)
  1256                           ;	Chosen strategy is simple_byte
  1257   0014DE  0A04               	xorlw	4	; case 4
  1258   0014E0  B4D8               	btfsc	status,2,c
  1259   0014E2  EF1C  F00A         	goto	l3861
  1260   0014E6  0A01               	xorlw	1	; case 5
  1261   0014E8  B4D8               	btfsc	status,2,c
  1262   0014EA  EF2E  F00A         	goto	l3865
  1263   0014EE  0A03               	xorlw	3	; case 6
  1264   0014F0  B4D8               	btfsc	status,2,c
  1265   0014F2  EF40  F00A         	goto	l3869
  1266   0014F6  0A01               	xorlw	1	; case 7
  1267   0014F8  B4D8               	btfsc	status,2,c
  1268   0014FA  EF52  F00A         	goto	l3873
  1269   0014FE  EF64  F00A         	goto	l3877
  1270   001502                     l561:
  1271                           
  1272                           ;MCAL_Layer/Interrupt/mcal_external_interrupt.c: 252:         (INTCONbits.RBIE = 1);
  1273   001502  86F2               	bsf	242,3,c	;volatile
  1274   001504                     l566:
  1275   001504  0012               	return		;funcret
  1276   001506                     __end_of_Interrupt_RBx_Init:
  1277                           	callstack 0
  1278                           
  1279 ;; *************** function _gpio_pin_direction_intialize *****************
  1280 ;; Defined at:
  1281 ;;		line 21 in file "MCAL_Layer/GPIO/hal_gpio.c"
  1282 ;; Parameters:    Size  Location     Type
  1283 ;;  _pin_config     1   17[COMRAM] PTR const struct .
  1284 ;;		 -> rb4(6), relay_initialization@pin_obj(1), led_initialize@pin_obj(1), 
  1285 ;; Auto vars:     Size  Location     Type
  1286 ;;  ret             1   18[COMRAM] unsigned char 
  1287 ;; Return value:  Size  Location     Type
  1288 ;;                  1    wreg      unsigned char 
  1289 ;; Registers used:
  1290 ;;		wreg, fsr2l, fsr2h, status,2, status,0, prodl, prodh
  1291 ;; Tracked objects:
  1292 ;;		On entry : 0/0
  1293 ;;		On exit  : 0/0
  1294 ;;		Unchanged: 0/0
  1295 ;; Data sizes:     COMRAM   BANK0   BANK1   BANK2   BANK3   BANK4   BANK5   BANK6   BANK7   BANK8   BANK9  BANK10  BANK1
      +1  BANK12  BANK13  BANK14  BANK15
  1296 ;;      Params:         1       0       0       0       0       0       0       0       0       0       0       0       
      +0       0       0       0       0
  1297 ;;      Locals:         1       0       0       0       0       0       0       0       0       0       0       0       
      +0       0       0       0       0
  1298 ;;      Temps:          0       5       0       0       0       0       0       0       0       0       0       0       
      +0       0       0       0       0
  1299 ;;      Totals:         2       5       0       0       0       0       0       0       0       0       0       0       
      +0       0       0       0       0
  1300 ;;Total ram usage:        7 bytes
  1301 ;; Hardware stack levels used: 1
  1302 ;; Hardware stack levels required when called: 5
  1303 ;; This function calls:
  1304 ;;		Nothing
  1305 ;; This function is called by:
  1306 ;;		_gpio_pin_initialize
  1307 ;;		_Interrupt_RBx_Init
  1308 ;;		_button_initialize
  1309 ;;		_Interrupt_INTx_Pin_Init
  1310 ;; This function uses a non-reentrant model
  1311 ;;
  1312                           
  1313                           	psect	text7
  1314   0012F6                     __ptext7:
  1315                           	callstack 0
  1316   0012F6                     _gpio_pin_direction_intialize:
  1317                           	callstack 21
  1318   0012F6                     
  1319                           ;MCAL_Layer/GPIO/hal_gpio.c: 22:     std_ReturnType ret = (std_ReturnType)0x01;
  1320   0012F6  0E01               	movlw	1
  1321   0012F8  6E6B               	movwf	gpio_pin_direction_intialize@ret^0,c
  1322                           
  1323                           ;MCAL_Layer/GPIO/hal_gpio.c: 23:     if(((void*)0) == _pin_config || _pin_config->pin > 
      +                          8 - 1){
  1324   0012FA  506A               	movf	gpio_pin_direction_intialize@_pin_config^0,w,c
  1325   0012FC  B4D8               	btfsc	status,2,c
  1326   0012FE  EF83  F009         	goto	u2861
  1327   001302  EF85  F009         	goto	u2860
  1328   001306                     u2861:
  1329   001306  EF96  F009         	goto	l3643
  1330   00130A                     u2860:
  1331   00130A  506A               	movf	gpio_pin_direction_intialize@_pin_config^0,w,c
  1332   00130C  6ED9               	movwf	fsr2l,c
  1333   00130E  6ADA               	clrf	fsr2h,c
  1334   001310  30DF               	rrcf	223,w,c
  1335   001312  32E8               	rrcf	wreg,f,c
  1336   001314  32E8               	rrcf	wreg,f,c
  1337   001316  0B07               	andlw	7
  1338   001318  0100               	movlb	0	; () banked
  1339   00131A  6F80               	movwf	??_gpio_pin_direction_intialize& (0+255),b
  1340   00131C  0E07               	movlw	7
  1341   00131E  6580               	cpfsgt	??_gpio_pin_direction_intialize& (0+255),b
  1342   001320  EF94  F009         	goto	u2871
  1343   001324  EF96  F009         	goto	u2870
  1344   001328                     u2871:
  1345   001328  EFEF  F009         	goto	l3651
  1346   00132C                     u2870:
  1347   00132C                     l3643:
  1348                           
  1349                           ;MCAL_Layer/GPIO/hal_gpio.c: 24:         ret = (std_ReturnType)0x00;
  1350   00132C  0E00               	movlw	0
  1351   00132E  6E6B               	movwf	gpio_pin_direction_intialize@ret^0,c
  1352                           
  1353                           ;MCAL_Layer/GPIO/hal_gpio.c: 25:     }
  1354   001330  EF05  F00A         	goto	l3653
  1355   001334                     l3645:
  1356                           
  1357                           ; BSR set to: 0
  1358                           ;MCAL_Layer/GPIO/hal_gpio.c: 30:             (*tris_registers[_pin_config->port] &= ~((u
      +                          int8)1<<_pin_config->pin));
  1359   001334  506A               	movf	gpio_pin_direction_intialize@_pin_config^0,w,c
  1360   001336  6ED9               	movwf	fsr2l,c
  1361   001338  6ADA               	clrf	fsr2h,c
  1362   00133A  30DF               	rrcf	223,w,c
  1363   00133C  32E8               	rrcf	wreg,f,c
  1364   00133E  32E8               	rrcf	wreg,f,c
  1365   001340  0B07               	andlw	7
  1366   001342  6F80               	movwf	??_gpio_pin_direction_intialize& (0+255),b
  1367   001344  0E01               	movlw	1
  1368   001346  6F81               	movwf	(??_gpio_pin_direction_intialize+1)& (0+255),b
  1369   001348  2B80               	incf	??_gpio_pin_direction_intialize& (0+255),f,b
  1370   00134A  EFA9  F009         	goto	u2884
  1371   00134E                     u2885:
  1372   00134E  90D8               	bcf	status,0,c
  1373   001350  3781               	rlcf	(??_gpio_pin_direction_intialize+1)& (0+255),f,b
  1374   001352                     u2884:
  1375   001352  2F80               	decfsz	??_gpio_pin_direction_intialize& (0+255),f,b
  1376   001354  EFA7  F009         	goto	u2885
  1377   001358  0100               	movlb	0	; () banked
  1378   00135A  5181               	movf	(??_gpio_pin_direction_intialize+1)& (0+255),w,b
  1379   00135C  0AFF               	xorlw	255
  1380   00135E  6F82               	movwf	(??_gpio_pin_direction_intialize+2)& (0+255),b
  1381   001360  506A               	movf	gpio_pin_direction_intialize@_pin_config^0,w,c
  1382   001362  6ED9               	movwf	fsr2l,c
  1383   001364  6ADA               	clrf	fsr2h,c
  1384   001366  50DF               	movf	223,w,c
  1385   001368  0B07               	andlw	7
  1386   00136A  0D02               	mullw	2
  1387   00136C  50F3               	movf	243,w,c
  1388   00136E  0F25               	addlw	low _tris_registers
  1389   001370  6ED9               	movwf	fsr2l,c
  1390   001372  6ADA               	clrf	fsr2h,c
  1391   001374  CFDE F083          	movff	postinc2,??_gpio_pin_direction_intialize+3
  1392   001378  CFDD F084          	movff	postdec2,??_gpio_pin_direction_intialize+4
  1393   00137C  C083  FFD9         	movff	??_gpio_pin_direction_intialize+3,fsr2l
  1394   001380  C084  FFDA         	movff	??_gpio_pin_direction_intialize+4,fsr2h
  1395   001384  5182               	movf	(??_gpio_pin_direction_intialize+2)& (0+255),w,b
  1396   001386  16DF               	andwf	indf2,f,c
  1397                           
  1398                           ;MCAL_Layer/GPIO/hal_gpio.c: 31:             break;
  1399   001388  EF05  F00A         	goto	l3653
  1400   00138C                     l3647:
  1401                           
  1402                           ; BSR set to: 0
  1403                           ;MCAL_Layer/GPIO/hal_gpio.c: 33:             (*tris_registers[_pin_config->port] |= ((ui
      +                          nt8)1<<_pin_config->pin));
  1404   00138C  506A               	movf	gpio_pin_direction_intialize@_pin_config^0,w,c
  1405   00138E  6ED9               	movwf	fsr2l,c
  1406   001390  6ADA               	clrf	fsr2h,c
  1407   001392  30DF               	rrcf	223,w,c
  1408   001394  32E8               	rrcf	wreg,f,c
  1409   001396  32E8               	rrcf	wreg,f,c
  1410   001398  0B07               	andlw	7
  1411   00139A  6F80               	movwf	??_gpio_pin_direction_intialize& (0+255),b
  1412   00139C  0E01               	movlw	1
  1413   00139E  6F81               	movwf	(??_gpio_pin_direction_intialize+1)& (0+255),b
  1414   0013A0  2B80               	incf	??_gpio_pin_direction_intialize& (0+255),f,b
  1415   0013A2  EFD5  F009         	goto	u2894
  1416   0013A6                     u2895:
  1417   0013A6  90D8               	bcf	status,0,c
  1418   0013A8  3781               	rlcf	(??_gpio_pin_direction_intialize+1)& (0+255),f,b
  1419   0013AA                     u2894:
  1420   0013AA  2F80               	decfsz	??_gpio_pin_direction_intialize& (0+255),f,b
  1421   0013AC  EFD3  F009         	goto	u2895
  1422   0013B0  506A               	movf	gpio_pin_direction_intialize@_pin_config^0,w,c
  1423   0013B2  6ED9               	movwf	fsr2l,c
  1424   0013B4  6ADA               	clrf	fsr2h,c
  1425   0013B6  50DF               	movf	223,w,c
  1426   0013B8  0B07               	andlw	7
  1427   0013BA  0D02               	mullw	2
  1428   0013BC  50F3               	movf	243,w,c
  1429   0013BE  0F25               	addlw	low _tris_registers
  1430   0013C0  6ED9               	movwf	fsr2l,c
  1431   0013C2  6ADA               	clrf	fsr2h,c
  1432   0013C4  CFDE F082          	movff	postinc2,??_gpio_pin_direction_intialize+2
  1433   0013C8  CFDD F083          	movff	postdec2,??_gpio_pin_direction_intialize+3
  1434   0013CC  C082  FFD9         	movff	??_gpio_pin_direction_intialize+2,fsr2l
  1435   0013D0  C083  FFDA         	movff	??_gpio_pin_direction_intialize+3,fsr2h
  1436   0013D4  0100               	movlb	0	; () banked
  1437   0013D6  5181               	movf	(??_gpio_pin_direction_intialize+1)& (0+255),w,b
  1438   0013D8  12DF               	iorwf	indf2,f,c
  1439                           
  1440                           ;MCAL_Layer/GPIO/hal_gpio.c: 34:             break;
  1441   0013DA  EF05  F00A         	goto	l3653
  1442   0013DE                     l3651:
  1443                           
  1444                           ; BSR set to: 0
  1445   0013DE  506A               	movf	gpio_pin_direction_intialize@_pin_config^0,w,c
  1446   0013E0  6ED9               	movwf	fsr2l,c
  1447   0013E2  6ADA               	clrf	fsr2h,c
  1448   0013E4  BCDF               	btfsc	indf2,6,c
  1449   0013E6  EFF7  F009         	goto	u2901
  1450   0013EA  EFFA  F009         	goto	u2900
  1451   0013EE                     u2901:
  1452   0013EE  0E01               	movlw	1
  1453   0013F0  EFFB  F009         	goto	u2906
  1454   0013F4                     u2900:
  1455   0013F4  0E00               	movlw	0
  1456   0013F6                     u2906:
  1457                           
  1458                           ; Switch size 1, requested type "simple"
  1459                           ; Number of cases is 2, Range of values is 0 to 1
  1460                           ; switch strategies available:
  1461                           ; Name         Instructions Cycles
  1462                           ; simple_byte            7     4 (average)
  1463                           ;	Chosen strategy is simple_byte
  1464   0013F6  0A00               	xorlw	0	; case 0
  1465   0013F8  B4D8               	btfsc	status,2,c
  1466   0013FA  EF9A  F009         	goto	l3645
  1467   0013FE  0A01               	xorlw	1	; case 1
  1468   001400  B4D8               	btfsc	status,2,c
  1469   001402  EFC6  F009         	goto	l3647
  1470   001406  EF96  F009         	goto	l3643
  1471   00140A                     l3653:
  1472                           
  1473                           ;MCAL_Layer/GPIO/hal_gpio.c: 39:     return ret;
  1474   00140A  506B               	movf	gpio_pin_direction_intialize@ret^0,w,c
  1475   00140C  0012               	return		;funcret
  1476   00140E                     __end_of_gpio_pin_direction_intialize:
  1477                           	callstack 0
  1478                           
  1479 ;; *************** function _InterruptMangaer *****************
  1480 ;; Defined at:
  1481 ;;		line 38 in file "MCAL_Layer/Interrupt/mcal_interrupt_manager.c"
  1482 ;; Parameters:    Size  Location     Type
  1483 ;;		None
  1484 ;; Auto vars:     Size  Location     Type
  1485 ;;		None
  1486 ;; Return value:  Size  Location     Type
  1487 ;;                  1    wreg      void 
  1488 ;; Registers used:
  1489 ;;		wreg, fsr2l, fsr2h, status,2, status,0, pcl, pclath, pclatu, tosl, prodl, prodh, cstack
  1490 ;; Tracked objects:
  1491 ;;		On entry : 0/0
  1492 ;;		On exit  : 0/0
  1493 ;;		Unchanged: 0/0
  1494 ;; Data sizes:     COMRAM   BANK0   BANK1   BANK2   BANK3   BANK4   BANK5   BANK6   BANK7   BANK8   BANK9  BANK10  BANK1
      +1  BANK12  BANK13  BANK14  BANK15
  1495 ;;      Params:         0       0       0       0       0       0       0       0       0       0       0       0       
      +0       0       0       0       0
  1496 ;;      Locals:         0       0       0       0       0       0       0       0       0       0       0       0       
      +0       0       0       0       0
  1497 ;;      Temps:          6       0       0       0       0       0       0       0       0       0       0       0       
      +0       0       0       0       0
  1498 ;;      Totals:         6       0       0       0       0       0       0       0       0       0       0       0       
      +0       0       0       0       0
  1499 ;;Total ram usage:        6 bytes
  1500 ;; Hardware stack levels used: 1
  1501 ;; Hardware stack levels required when called: 4
  1502 ;; This function calls:
  1503 ;;		_INT0_ISR
  1504 ;;		_INT1_ISR
  1505 ;;		_INT2_ISR
  1506 ;;		_RB4_ISR
  1507 ;;		_RB5_ISR
  1508 ;;		_RB6_ISR
  1509 ;;		_RB7_ISR
  1510 ;; This function is called by:
  1511 ;;		Interrupt level 2
  1512 ;; This function uses a non-reentrant model
  1513 ;;
  1514                           
  1515                           	psect	intcode
  1516   000008                     __pintcode:
  1517                           	callstack 0
  1518   000008                     _InterruptMangaer:
  1519                           	callstack 21
  1520                           
  1521                           ;incstack = 0
  1522   000008  826E               	bsf	int$flags,1,c	;set compiler interrupt flag (level 2)
  1523   00000A  ED20  F008         	call	int_func,f	;refresh shadow registers
  1524                           
  1525                           	psect	intcode_body
  1526   001040                     __pintcode_body:
  1527                           	callstack 21
  1528   001040                     int_func:
  1529                           	callstack 21
  1530   001040  0006               	pop		; remove dummy address from shadow register refresh
  1531   001042  CFFA F064          	movff	pclath,??_InterruptMangaer
  1532   001046  CFFB F065          	movff	pclatu,??_InterruptMangaer+1
  1533   00104A  CFD9 F066          	movff	fsr2l,??_InterruptMangaer+2
  1534   00104E  CFDA F067          	movff	fsr2h,??_InterruptMangaer+3
  1535   001052  CFF3 F068          	movff	prodl,??_InterruptMangaer+4
  1536   001056  CFF4 F069          	movff	prodh,??_InterruptMangaer+5
  1537   00105A                     
  1538                           ;MCAL_Layer/Interrupt/mcal_interrupt_manager.c: 39:     if((INTCONbits.INT0IE == 1) && (
      +                          INTCONbits.INT0IF == 1)){
  1539   00105A  A8F2               	btfss	242,4,c	;volatile
  1540   00105C  EF32  F008         	goto	i2u245_41
  1541   001060  EF34  F008         	goto	i2u245_40
  1542   001064                     i2u245_41:
  1543   001064  EF3D  F008         	goto	i2l743
  1544   001068                     i2u245_40:
  1545   001068  A2F2               	btfss	242,1,c	;volatile
  1546   00106A  EF39  F008         	goto	i2u246_41
  1547   00106E  EF3B  F008         	goto	i2u246_40
  1548   001072                     i2u246_41:
  1549   001072  EF3D  F008         	goto	i2l743
  1550   001076                     i2u246_40:
  1551   001076                     
  1552                           ;MCAL_Layer/Interrupt/mcal_interrupt_manager.c: 40:         INT0_ISR();
  1553   001076  ECB1  F00C         	call	_INT0_ISR	;wreg free
  1554   00107A                     i2l743:
  1555                           
  1556                           ;MCAL_Layer/Interrupt/mcal_interrupt_manager.c: 45:     if((1 == INTCON3bits.INT1E) && (
      +                          1 == INTCON3bits.INT1F)){
  1557   00107A  A6F0               	btfss	240,3,c	;volatile
  1558   00107C  EF42  F008         	goto	i2u247_41
  1559   001080  EF44  F008         	goto	i2u247_40
  1560   001084                     i2u247_41:
  1561   001084  EF4D  F008         	goto	i2l745
  1562   001088                     i2u247_40:
  1563   001088  A0F0               	btfss	240,0,c	;volatile
  1564   00108A  EF49  F008         	goto	i2u248_41
  1565   00108E  EF4B  F008         	goto	i2u248_40
  1566   001092                     i2u248_41:
  1567   001092  EF4D  F008         	goto	i2l745
  1568   001096                     i2u248_40:
  1569   001096                     
  1570                           ;MCAL_Layer/Interrupt/mcal_interrupt_manager.c: 46:         INT1_ISR();
  1571   001096  ECAF  F00C         	call	_INT1_ISR	;wreg free
  1572   00109A                     i2l745:
  1573                           
  1574                           ;MCAL_Layer/Interrupt/mcal_interrupt_manager.c: 49:     if((1 == INTCON3bits.INT2IE) && 
      +                          (1 == INTCON3bits.INT2IF)){
  1575   00109A  A8F0               	btfss	240,4,c	;volatile
  1576   00109C  EF52  F008         	goto	i2u249_41
  1577   0010A0  EF54  F008         	goto	i2u249_40
  1578   0010A4                     i2u249_41:
  1579   0010A4  EF5D  F008         	goto	i2l747
  1580   0010A8                     i2u249_40:
  1581   0010A8  A2F0               	btfss	240,1,c	;volatile
  1582   0010AA  EF59  F008         	goto	i2u250_41
  1583   0010AE  EF5B  F008         	goto	i2u250_40
  1584   0010B2                     i2u250_41:
  1585   0010B2  EF5D  F008         	goto	i2l747
  1586   0010B6                     i2u250_40:
  1587   0010B6                     
  1588                           ;MCAL_Layer/Interrupt/mcal_interrupt_manager.c: 50:         INT2_ISR();
  1589   0010B6  ECAD  F00C         	call	_INT2_ISR	;wreg free
  1590   0010BA                     i2l747:
  1591                           
  1592                           ;MCAL_Layer/Interrupt/mcal_interrupt_manager.c: 53:     if((INTCONbits.RBIE == 1) && (IN
      +                          TCONbits.RBIF == 1) && (PORTBbits.RB4 == GPIO_HIGH) && (RB4_F == 1)){
  1593   0010BA  A6F2               	btfss	242,3,c	;volatile
  1594   0010BC  EF62  F008         	goto	i2u251_41
  1595   0010C0  EF64  F008         	goto	i2u251_40
  1596   0010C4                     i2u251_41:
  1597   0010C4  EF7F  F008         	goto	i2l749
  1598   0010C8                     i2u251_40:
  1599   0010C8  A0F2               	btfss	242,0,c	;volatile
  1600   0010CA  EF69  F008         	goto	i2u252_41
  1601   0010CE  EF6B  F008         	goto	i2u252_40
  1602   0010D2                     i2u252_41:
  1603   0010D2  EF7F  F008         	goto	i2l749
  1604   0010D6                     i2u252_40:
  1605   0010D6  A881               	btfss	129,4,c	;volatile
  1606   0010D8  EF70  F008         	goto	i2u253_41
  1607   0010DC  EF72  F008         	goto	i2u253_40
  1608   0010E0                     i2u253_41:
  1609   0010E0  EF7F  F008         	goto	i2l749
  1610   0010E4                     i2u253_40:
  1611   0010E4  0432               	decf	_RB4_F^0,w,c	;volatile
  1612   0010E6  A4D8               	btfss	status,2,c
  1613   0010E8  EF78  F008         	goto	i2u254_41
  1614   0010EC  EF7A  F008         	goto	i2u254_40
  1615   0010F0                     i2u254_41:
  1616   0010F0  EF7F  F008         	goto	i2l749
  1617   0010F4                     i2u254_40:
  1618   0010F4                     
  1619                           ;MCAL_Layer/Interrupt/mcal_interrupt_manager.c: 54:         RB4_F = 0;
  1620   0010F4  0E00               	movlw	0
  1621   0010F6  6E32               	movwf	_RB4_F^0,c	;volatile
  1622   0010F8                     
  1623                           ;MCAL_Layer/Interrupt/mcal_interrupt_manager.c: 55:         RB4_ISR(0);
  1624   0010F8  0E00               	movlw	0
  1625   0010FA  EC9B  F00B         	call	_RB4_ISR
  1626   0010FE                     i2l749:
  1627                           
  1628                           ;MCAL_Layer/Interrupt/mcal_interrupt_manager.c: 58:     if((INTCONbits.RBIE == 1) && (IN
      +                          TCONbits.RBIF == 1) && (PORTBbits.RB4 == GPIO_LOW) && (RB4_F == 0)){
  1629   0010FE  A6F2               	btfss	242,3,c	;volatile
  1630   001100  EF84  F008         	goto	i2u255_41
  1631   001104  EF86  F008         	goto	i2u255_40
  1632   001108                     i2u255_41:
  1633   001108  EFA1  F008         	goto	i2l751
  1634   00110C                     i2u255_40:
  1635   00110C  A0F2               	btfss	242,0,c	;volatile
  1636   00110E  EF8B  F008         	goto	i2u256_41
  1637   001112  EF8D  F008         	goto	i2u256_40
  1638   001116                     i2u256_41:
  1639   001116  EFA1  F008         	goto	i2l751
  1640   00111A                     i2u256_40:
  1641   00111A  B881               	btfsc	129,4,c	;volatile
  1642   00111C  EF92  F008         	goto	i2u257_41
  1643   001120  EF94  F008         	goto	i2u257_40
  1644   001124                     i2u257_41:
  1645   001124  EFA1  F008         	goto	i2l751
  1646   001128                     i2u257_40:
  1647   001128  5032               	movf	_RB4_F^0,w,c	;volatile
  1648   00112A  A4D8               	btfss	status,2,c
  1649   00112C  EF9A  F008         	goto	i2u258_41
  1650   001130  EF9C  F008         	goto	i2u258_40
  1651   001134                     i2u258_41:
  1652   001134  EFA1  F008         	goto	i2l751
  1653   001138                     i2u258_40:
  1654   001138                     
  1655                           ;MCAL_Layer/Interrupt/mcal_interrupt_manager.c: 59:         RB4_F = 1;
  1656   001138  0E01               	movlw	1
  1657   00113A  6E32               	movwf	_RB4_F^0,c	;volatile
  1658   00113C                     
  1659                           ;MCAL_Layer/Interrupt/mcal_interrupt_manager.c: 60:         RB4_ISR(1);
  1660   00113C  0E01               	movlw	1
  1661   00113E  EC9B  F00B         	call	_RB4_ISR
  1662   001142                     i2l751:
  1663                           
  1664                           ;MCAL_Layer/Interrupt/mcal_interrupt_manager.c: 63:     if((INTCONbits.RBIE == 1) && (IN
      +                          TCONbits.RBIF == 1) && (PORTBbits.RB5 == GPIO_HIGH) && (RB5_F == 1)){
  1665   001142  A6F2               	btfss	242,3,c	;volatile
  1666   001144  EFA6  F008         	goto	i2u259_41
  1667   001148  EFA8  F008         	goto	i2u259_40
  1668   00114C                     i2u259_41:
  1669   00114C  EFC3  F008         	goto	i2l753
  1670   001150                     i2u259_40:
  1671   001150  A0F2               	btfss	242,0,c	;volatile
  1672   001152  EFAD  F008         	goto	i2u260_41
  1673   001156  EFAF  F008         	goto	i2u260_40
  1674   00115A                     i2u260_41:
  1675   00115A  EFC3  F008         	goto	i2l753
  1676   00115E                     i2u260_40:
  1677   00115E  AA81               	btfss	129,5,c	;volatile
  1678   001160  EFB4  F008         	goto	i2u261_41
  1679   001164  EFB6  F008         	goto	i2u261_40
  1680   001168                     i2u261_41:
  1681   001168  EFC3  F008         	goto	i2l753
  1682   00116C                     i2u261_40:
  1683   00116C  0431               	decf	_RB5_F^0,w,c	;volatile
  1684   00116E  A4D8               	btfss	status,2,c
  1685   001170  EFBC  F008         	goto	i2u262_41
  1686   001174  EFBE  F008         	goto	i2u262_40
  1687   001178                     i2u262_41:
  1688   001178  EFC3  F008         	goto	i2l753
  1689   00117C                     i2u262_40:
  1690   00117C                     
  1691                           ;MCAL_Layer/Interrupt/mcal_interrupt_manager.c: 64:         RB5_F = 0;
  1692   00117C  0E00               	movlw	0
  1693   00117E  6E31               	movwf	_RB5_F^0,c	;volatile
  1694   001180                     
  1695                           ;MCAL_Layer/Interrupt/mcal_interrupt_manager.c: 65:         RB5_ISR(0);
  1696   001180  0E00               	movlw	0
  1697   001182  EC24  F00C         	call	_RB5_ISR
  1698   001186                     i2l753:
  1699                           
  1700                           ;MCAL_Layer/Interrupt/mcal_interrupt_manager.c: 68:     if((INTCONbits.RBIE == 1) && (IN
      +                          TCONbits.RBIF == 1) && (PORTBbits.RB5 == GPIO_LOW) && (RB5_F == 0)){
  1701   001186  A6F2               	btfss	242,3,c	;volatile
  1702   001188  EFC8  F008         	goto	i2u263_41
  1703   00118C  EFCA  F008         	goto	i2u263_40
  1704   001190                     i2u263_41:
  1705   001190  EFE5  F008         	goto	i2l755
  1706   001194                     i2u263_40:
  1707   001194  A0F2               	btfss	242,0,c	;volatile
  1708   001196  EFCF  F008         	goto	i2u264_41
  1709   00119A  EFD1  F008         	goto	i2u264_40
  1710   00119E                     i2u264_41:
  1711   00119E  EFE5  F008         	goto	i2l755
  1712   0011A2                     i2u264_40:
  1713   0011A2  BA81               	btfsc	129,5,c	;volatile
  1714   0011A4  EFD6  F008         	goto	i2u265_41
  1715   0011A8  EFD8  F008         	goto	i2u265_40
  1716   0011AC                     i2u265_41:
  1717   0011AC  EFE5  F008         	goto	i2l755
  1718   0011B0                     i2u265_40:
  1719   0011B0  5031               	movf	_RB5_F^0,w,c	;volatile
  1720   0011B2  A4D8               	btfss	status,2,c
  1721   0011B4  EFDE  F008         	goto	i2u266_41
  1722   0011B8  EFE0  F008         	goto	i2u266_40
  1723   0011BC                     i2u266_41:
  1724   0011BC  EFE5  F008         	goto	i2l755
  1725   0011C0                     i2u266_40:
  1726   0011C0                     
  1727                           ;MCAL_Layer/Interrupt/mcal_interrupt_manager.c: 69:         RB5_F = 1;
  1728   0011C0  0E01               	movlw	1
  1729   0011C2  6E31               	movwf	_RB5_F^0,c	;volatile
  1730   0011C4                     
  1731                           ;MCAL_Layer/Interrupt/mcal_interrupt_manager.c: 70:         RB5_ISR(1);
  1732   0011C4  0E01               	movlw	1
  1733   0011C6  EC24  F00C         	call	_RB5_ISR
  1734   0011CA                     i2l755:
  1735                           
  1736                           ;MCAL_Layer/Interrupt/mcal_interrupt_manager.c: 73:     if((INTCONbits.RBIE == 1) && (IN
      +                          TCONbits.RBIF == 1) && (PORTBbits.RB6 == GPIO_HIGH) && (RB6_F == 1)){
  1737   0011CA  A6F2               	btfss	242,3,c	;volatile
  1738   0011CC  EFEA  F008         	goto	i2u267_41
  1739   0011D0  EFEC  F008         	goto	i2u267_40
  1740   0011D4                     i2u267_41:
  1741   0011D4  EF07  F009         	goto	i2l757
  1742   0011D8                     i2u267_40:
  1743   0011D8  A0F2               	btfss	242,0,c	;volatile
  1744   0011DA  EFF1  F008         	goto	i2u268_41
  1745   0011DE  EFF3  F008         	goto	i2u268_40
  1746   0011E2                     i2u268_41:
  1747   0011E2  EF07  F009         	goto	i2l757
  1748   0011E6                     i2u268_40:
  1749   0011E6  AC81               	btfss	129,6,c	;volatile
  1750   0011E8  EFF8  F008         	goto	i2u269_41
  1751   0011EC  EFFA  F008         	goto	i2u269_40
  1752   0011F0                     i2u269_41:
  1753   0011F0  EF07  F009         	goto	i2l757
  1754   0011F4                     i2u269_40:
  1755   0011F4  0430               	decf	_RB6_F^0,w,c	;volatile
  1756   0011F6  A4D8               	btfss	status,2,c
  1757   0011F8  EF00  F009         	goto	i2u270_41
  1758   0011FC  EF02  F009         	goto	i2u270_40
  1759   001200                     i2u270_41:
  1760   001200  EF07  F009         	goto	i2l757
  1761   001204                     i2u270_40:
  1762   001204                     
  1763                           ;MCAL_Layer/Interrupt/mcal_interrupt_manager.c: 74:         RB6_F = 0;
  1764   001204  0E00               	movlw	0
  1765   001206  6E30               	movwf	_RB6_F^0,c	;volatile
  1766   001208                     
  1767                           ;MCAL_Layer/Interrupt/mcal_interrupt_manager.c: 75:         RB6_ISR(0);
  1768   001208  0E00               	movlw	0
  1769   00120A  EC02  F00C         	call	_RB6_ISR
  1770   00120E                     i2l757:
  1771                           
  1772                           ;MCAL_Layer/Interrupt/mcal_interrupt_manager.c: 78:     if((INTCONbits.RBIE == 1) && (IN
      +                          TCONbits.RBIF == 1) && (PORTBbits.RB6 == GPIO_LOW) && (RB6_F == 0)){
  1773   00120E  A6F2               	btfss	242,3,c	;volatile
  1774   001210  EF0C  F009         	goto	i2u271_41
  1775   001214  EF0E  F009         	goto	i2u271_40
  1776   001218                     i2u271_41:
  1777   001218  EF29  F009         	goto	i2l759
  1778   00121C                     i2u271_40:
  1779   00121C  A0F2               	btfss	242,0,c	;volatile
  1780   00121E  EF13  F009         	goto	i2u272_41
  1781   001222  EF15  F009         	goto	i2u272_40
  1782   001226                     i2u272_41:
  1783   001226  EF29  F009         	goto	i2l759
  1784   00122A                     i2u272_40:
  1785   00122A  BC81               	btfsc	129,6,c	;volatile
  1786   00122C  EF1A  F009         	goto	i2u273_41
  1787   001230  EF1C  F009         	goto	i2u273_40
  1788   001234                     i2u273_41:
  1789   001234  EF29  F009         	goto	i2l759
  1790   001238                     i2u273_40:
  1791   001238  5030               	movf	_RB6_F^0,w,c	;volatile
  1792   00123A  A4D8               	btfss	status,2,c
  1793   00123C  EF22  F009         	goto	i2u274_41
  1794   001240  EF24  F009         	goto	i2u274_40
  1795   001244                     i2u274_41:
  1796   001244  EF29  F009         	goto	i2l759
  1797   001248                     i2u274_40:
  1798   001248                     
  1799                           ;MCAL_Layer/Interrupt/mcal_interrupt_manager.c: 79:         RB6_F = 1;
  1800   001248  0E01               	movlw	1
  1801   00124A  6E30               	movwf	_RB6_F^0,c	;volatile
  1802   00124C                     
  1803                           ;MCAL_Layer/Interrupt/mcal_interrupt_manager.c: 80:         RB4_ISR(1);
  1804   00124C  0E01               	movlw	1
  1805   00124E  EC9B  F00B         	call	_RB4_ISR
  1806   001252                     i2l759:
  1807                           
  1808                           ;MCAL_Layer/Interrupt/mcal_interrupt_manager.c: 83:     if((INTCONbits.RBIE == 1) && (IN
      +                          TCONbits.RBIF == 1) && (PORTBbits.RB7 == GPIO_HIGH) && (RB7_F == 1)){
  1809   001252  A6F2               	btfss	242,3,c	;volatile
  1810   001254  EF2E  F009         	goto	i2u275_41
  1811   001258  EF30  F009         	goto	i2u275_40
  1812   00125C                     i2u275_41:
  1813   00125C  EF4B  F009         	goto	i2l761
  1814   001260                     i2u275_40:
  1815   001260  A0F2               	btfss	242,0,c	;volatile
  1816   001262  EF35  F009         	goto	i2u276_41
  1817   001266  EF37  F009         	goto	i2u276_40
  1818   00126A                     i2u276_41:
  1819   00126A  EF4B  F009         	goto	i2l761
  1820   00126E                     i2u276_40:
  1821   00126E  AE81               	btfss	129,7,c	;volatile
  1822   001270  EF3C  F009         	goto	i2u277_41
  1823   001274  EF3E  F009         	goto	i2u277_40
  1824   001278                     i2u277_41:
  1825   001278  EF4B  F009         	goto	i2l761
  1826   00127C                     i2u277_40:
  1827   00127C  042F               	decf	_RB7_F^0,w,c	;volatile
  1828   00127E  A4D8               	btfss	status,2,c
  1829   001280  EF44  F009         	goto	i2u278_41
  1830   001284  EF46  F009         	goto	i2u278_40
  1831   001288                     i2u278_41:
  1832   001288  EF4B  F009         	goto	i2l761
  1833   00128C                     i2u278_40:
  1834   00128C                     
  1835                           ;MCAL_Layer/Interrupt/mcal_interrupt_manager.c: 84:         RB7_F = 0;
  1836   00128C  0E00               	movlw	0
  1837   00128E  6E2F               	movwf	_RB7_F^0,c	;volatile
  1838   001290                     
  1839                           ;MCAL_Layer/Interrupt/mcal_interrupt_manager.c: 85:         RB7_ISR(0);
  1840   001290  0E00               	movlw	0
  1841   001292  ECE0  F00B         	call	_RB7_ISR
  1842   001296                     i2l761:
  1843   001296  A6F2               	btfss	242,3,c	;volatile
  1844   001298  EF50  F009         	goto	i2u279_41
  1845   00129C  EF52  F009         	goto	i2u279_40
  1846   0012A0                     i2u279_41:
  1847   0012A0  EF6D  F009         	goto	i2l764
  1848   0012A4                     i2u279_40:
  1849   0012A4  A0F2               	btfss	242,0,c	;volatile
  1850   0012A6  EF57  F009         	goto	i2u280_41
  1851   0012AA  EF59  F009         	goto	i2u280_40
  1852   0012AE                     i2u280_41:
  1853   0012AE  EF6D  F009         	goto	i2l764
  1854   0012B2                     i2u280_40:
  1855   0012B2  AE81               	btfss	129,7,c	;volatile
  1856   0012B4  EF5E  F009         	goto	i2u281_41
  1857   0012B8  EF60  F009         	goto	i2u281_40
  1858   0012BC                     i2u281_41:
  1859   0012BC  EF6D  F009         	goto	i2l764
  1860   0012C0                     i2u281_40:
  1861   0012C0  502F               	movf	_RB7_F^0,w,c	;volatile
  1862   0012C2  A4D8               	btfss	status,2,c
  1863   0012C4  EF66  F009         	goto	i2u282_41
  1864   0012C8  EF68  F009         	goto	i2u282_40
  1865   0012CC                     i2u282_41:
  1866   0012CC  EF6D  F009         	goto	i2l764
  1867   0012D0                     i2u282_40:
  1868   0012D0                     
  1869                           ;MCAL_Layer/Interrupt/mcal_interrupt_manager.c: 88:         RB7_F = 0;
  1870   0012D0  0E00               	movlw	0
  1871   0012D2  6E2F               	movwf	_RB7_F^0,c	;volatile
  1872   0012D4                     
  1873                           ;MCAL_Layer/Interrupt/mcal_interrupt_manager.c: 89:         RB7_ISR(1);
  1874   0012D4  0E01               	movlw	1
  1875   0012D6  ECE0  F00B         	call	_RB7_ISR
  1876   0012DA                     i2l764:
  1877   0012DA  C069  FFF4         	movff	??_InterruptMangaer+5,prodh
  1878   0012DE  C068  FFF3         	movff	??_InterruptMangaer+4,prodl
  1879   0012E2  C067  FFDA         	movff	??_InterruptMangaer+3,fsr2h
  1880   0012E6  C066  FFD9         	movff	??_InterruptMangaer+2,fsr2l
  1881   0012EA  C065  FFFB         	movff	??_InterruptMangaer+1,pclatu
  1882   0012EE  C064  FFFA         	movff	??_InterruptMangaer,pclath
  1883   0012F2  926E               	bcf	int$flags,1,c	;clear compiler interrupt flag (level 2)
  1884   0012F4  0011               	retfie		f
  1885   0012F6                     __end_of_InterruptMangaer:
  1886                           	callstack 0
  1887                           
  1888 ;; *************** function _RB7_ISR *****************
  1889 ;; Defined at:
  1890 ;;		line 170 in file "MCAL_Layer/Interrupt/mcal_external_interrupt.c"
  1891 ;; Parameters:    Size  Location     Type
  1892 ;;  n               1    wreg     unsigned char 
  1893 ;; Auto vars:     Size  Location     Type
  1894 ;;  n               1   10[COMRAM] unsigned char 
  1895 ;; Return value:  Size  Location     Type
  1896 ;;                  1    wreg      void 
  1897 ;; Registers used:
  1898 ;;		wreg, fsr2l, fsr2h, status,2, status,0, pcl, pclath, pclatu, tosl, prodl, prodh, cstack
  1899 ;; Tracked objects:
  1900 ;;		On entry : 0/0
  1901 ;;		On exit  : 0/0
  1902 ;;		Unchanged: 0/0
  1903 ;; Data sizes:     COMRAM   BANK0   BANK1   BANK2   BANK3   BANK4   BANK5   BANK6   BANK7   BANK8   BANK9  BANK10  BANK1
      +1  BANK12  BANK13  BANK14  BANK15
  1904 ;;      Params:         0       0       0       0       0       0       0       0       0       0       0       0       
      +0       0       0       0       0
  1905 ;;      Locals:         1       0       0       0       0       0       0       0       0       0       0       0       
      +0       0       0       0       0
  1906 ;;      Temps:          0       0       0       0       0       0       0       0       0       0       0       0       
      +0       0       0       0       0
  1907 ;;      Totals:         1       0       0       0       0       0       0       0       0       0       0       0       
      +0       0       0       0       0
  1908 ;;Total ram usage:        1 bytes
  1909 ;; Hardware stack levels used: 1
  1910 ;; Hardware stack levels required when called: 3
  1911 ;; This function calls:
  1912 ;;		NULL
  1913 ;;		_RB4_isr
  1914 ;; This function is called by:
  1915 ;;		_InterruptMangaer
  1916 ;; This function uses a non-reentrant model
  1917 ;;
  1918                           
  1919                           	psect	text9
  1920   0017C0                     __ptext9:
  1921                           	callstack 0
  1922   0017C0                     _RB7_ISR:
  1923                           	callstack 21
  1924                           
  1925                           ;incstack = 0
  1926                           ;RB7_ISR@n stored from wreg
  1927   0017C0  6E63               	movwf	RB7_ISR@n^0,c
  1928   0017C2                     
  1929                           ;MCAL_Layer/Interrupt/mcal_external_interrupt.c: 172:     (INTCONbits.RBIF = 0);
  1930   0017C2  90F2               	bcf	242,0,c	;volatile
  1931   0017C4                     
  1932                           ;MCAL_Layer/Interrupt/mcal_external_interrupt.c: 176:    if(!n){
  1933   0017C4  5063               	movf	RB7_ISR@n^0,w,c
  1934   0017C6  A4D8               	btfss	status,2,c
  1935   0017C8  EFE8  F00B         	goto	i2u199_41
  1936   0017CC  EFEA  F00B         	goto	i2u199_40
  1937   0017D0                     i2u199_41:
  1938   0017D0  EF01  F00C         	goto	i2l2999
  1939   0017D4                     i2u199_40:
  1940   0017D4                     
  1941                           ;MCAL_Layer/Interrupt/mcal_external_interrupt.c: 177:     if(RB7_INTERRUPTHANDLERHIGH){
  1942   0017D4  503E               	movf	_RB7_INTERRUPTHANDLERHIGH^0,w,c
  1943   0017D6  103F               	iorwf	(_RB7_INTERRUPTHANDLERHIGH+1)^0,w,c
  1944   0017D8  B4D8               	btfsc	status,2,c
  1945   0017DA  EFF1  F00B         	goto	i2u200_41
  1946   0017DE  EFF3  F00B         	goto	i2u200_40
  1947   0017E2                     i2u200_41:
  1948   0017E2  EF01  F00C         	goto	i2l549
  1949   0017E6                     i2u200_40:
  1950   0017E6                     
  1951                           ;MCAL_Layer/Interrupt/mcal_external_interrupt.c: 178:         RB7_INTERRUPTHANDLERHIGH()
      +                          ;
  1952   0017E6  D802               	call	i2u201_48
  1953   0017E8  EFFF  F00B         	goto	i2u201_49
  1954   0017EC                     i2u201_48:
  1955   0017EC  0005               	push	
  1956   0017EE  6EFA               	movwf	pclath,c
  1957   0017F0  503E               	movf	_RB7_INTERRUPTHANDLERHIGH^0,w,c
  1958   0017F2  6EFD               	movwf	tosl,c
  1959   0017F4  503F               	movf	(_RB7_INTERRUPTHANDLERHIGH+1)^0,w,c
  1960   0017F6  6EFE               	movwf	tosh,c
  1961   0017F8  6AFF               	clrf	tosu,c
  1962   0017FA  50FA               	movf	pclath,w,c
  1963   0017FC  0012               	return		;indir
  1964   0017FE                     i2u201_49:
  1965                           
  1966                           ;MCAL_Layer/Interrupt/mcal_external_interrupt.c: 179:     }
  1967   0017FE  EF01  F00C         	goto	i2l549
  1968   001802                     i2l2999:
  1969   001802                     i2l549:
  1970   001802  0012               	return		;funcret
  1971   001804                     __end_of_RB7_ISR:
  1972                           	callstack 0
  1973                           
  1974 ;; *************** function _RB6_ISR *****************
  1975 ;; Defined at:
  1976 ;;		line 145 in file "MCAL_Layer/Interrupt/mcal_external_interrupt.c"
  1977 ;; Parameters:    Size  Location     Type
  1978 ;;  n               1    wreg     unsigned char 
  1979 ;; Auto vars:     Size  Location     Type
  1980 ;;  n               1   10[COMRAM] unsigned char 
  1981 ;; Return value:  Size  Location     Type
  1982 ;;                  1    wreg      void 
  1983 ;; Registers used:
  1984 ;;		wreg, fsr2l, fsr2h, status,2, status,0, pcl, pclath, pclatu, tosl, prodl, prodh, cstack
  1985 ;; Tracked objects:
  1986 ;;		On entry : 0/0
  1987 ;;		On exit  : 0/0
  1988 ;;		Unchanged: 0/0
  1989 ;; Data sizes:     COMRAM   BANK0   BANK1   BANK2   BANK3   BANK4   BANK5   BANK6   BANK7   BANK8   BANK9  BANK10  BANK1
      +1  BANK12  BANK13  BANK14  BANK15
  1990 ;;      Params:         0       0       0       0       0       0       0       0       0       0       0       0       
      +0       0       0       0       0
  1991 ;;      Locals:         1       0       0       0       0       0       0       0       0       0       0       0       
      +0       0       0       0       0
  1992 ;;      Temps:          0       0       0       0       0       0       0       0       0       0       0       0       
      +0       0       0       0       0
  1993 ;;      Totals:         1       0       0       0       0       0       0       0       0       0       0       0       
      +0       0       0       0       0
  1994 ;;Total ram usage:        1 bytes
  1995 ;; Hardware stack levels used: 1
  1996 ;; Hardware stack levels required when called: 3
  1997 ;; This function calls:
  1998 ;;		NULL
  1999 ;;		_RB4_isr
  2000 ;; This function is called by:
  2001 ;;		_InterruptMangaer
  2002 ;; This function uses a non-reentrant model
  2003 ;;
  2004                           
  2005                           	psect	text10
  2006   001804                     __ptext10:
  2007                           	callstack 0
  2008   001804                     _RB6_ISR:
  2009                           	callstack 21
  2010                           
  2011                           ;incstack = 0
  2012                           ;RB6_ISR@n stored from wreg
  2013   001804  6E63               	movwf	RB6_ISR@n^0,c
  2014   001806                     
  2015                           ;MCAL_Layer/Interrupt/mcal_external_interrupt.c: 147:     (INTCONbits.RBIF = 0);
  2016   001806  90F2               	bcf	242,0,c	;volatile
  2017   001808                     
  2018                           ;MCAL_Layer/Interrupt/mcal_external_interrupt.c: 151:     if(!n){
  2019   001808  5063               	movf	RB6_ISR@n^0,w,c
  2020   00180A  A4D8               	btfss	status,2,c
  2021   00180C  EF0A  F00C         	goto	i2u196_41
  2022   001810  EF0C  F00C         	goto	i2u196_40
  2023   001814                     i2u196_41:
  2024   001814  EF23  F00C         	goto	i2l2985
  2025   001818                     i2u196_40:
  2026   001818                     
  2027                           ;MCAL_Layer/Interrupt/mcal_external_interrupt.c: 152:     if(RB6_INTERRUPTHANDLERHIGH){
  2028   001818  5042               	movf	_RB6_INTERRUPTHANDLERHIGH^0,w,c
  2029   00181A  1043               	iorwf	(_RB6_INTERRUPTHANDLERHIGH+1)^0,w,c
  2030   00181C  B4D8               	btfsc	status,2,c
  2031   00181E  EF13  F00C         	goto	i2u197_41
  2032   001822  EF15  F00C         	goto	i2u197_40
  2033   001826                     i2u197_41:
  2034   001826  EF23  F00C         	goto	i2l538
  2035   00182A                     i2u197_40:
  2036   00182A                     
  2037                           ;MCAL_Layer/Interrupt/mcal_external_interrupt.c: 153:         RB6_INTERRUPTHANDLERHIGH()
      +                          ;
  2038   00182A  D802               	call	i2u198_48
  2039   00182C  EF21  F00C         	goto	i2u198_49
  2040   001830                     i2u198_48:
  2041   001830  0005               	push	
  2042   001832  6EFA               	movwf	pclath,c
  2043   001834  5042               	movf	_RB6_INTERRUPTHANDLERHIGH^0,w,c
  2044   001836  6EFD               	movwf	tosl,c
  2045   001838  5043               	movf	(_RB6_INTERRUPTHANDLERHIGH+1)^0,w,c
  2046   00183A  6EFE               	movwf	tosh,c
  2047   00183C  6AFF               	clrf	tosu,c
  2048   00183E  50FA               	movf	pclath,w,c
  2049   001840  0012               	return		;indir
  2050   001842                     i2u198_49:
  2051                           
  2052                           ;MCAL_Layer/Interrupt/mcal_external_interrupt.c: 154:     }
  2053   001842  EF23  F00C         	goto	i2l538
  2054   001846                     i2l2985:
  2055   001846                     i2l538:
  2056   001846  0012               	return		;funcret
  2057   001848                     __end_of_RB6_ISR:
  2058                           	callstack 0
  2059                           
  2060 ;; *************** function _RB5_ISR *****************
  2061 ;; Defined at:
  2062 ;;		line 121 in file "MCAL_Layer/Interrupt/mcal_external_interrupt.c"
  2063 ;; Parameters:    Size  Location     Type
  2064 ;;  n               1    wreg     unsigned char 
  2065 ;; Auto vars:     Size  Location     Type
  2066 ;;  n               1   10[COMRAM] unsigned char 
  2067 ;; Return value:  Size  Location     Type
  2068 ;;                  1    wreg      void 
  2069 ;; Registers used:
  2070 ;;		wreg, fsr2l, fsr2h, status,2, status,0, pcl, pclath, pclatu, tosl, prodl, prodh, cstack
  2071 ;; Tracked objects:
  2072 ;;		On entry : 0/0
  2073 ;;		On exit  : 0/0
  2074 ;;		Unchanged: 0/0
  2075 ;; Data sizes:     COMRAM   BANK0   BANK1   BANK2   BANK3   BANK4   BANK5   BANK6   BANK7   BANK8   BANK9  BANK10  BANK1
      +1  BANK12  BANK13  BANK14  BANK15
  2076 ;;      Params:         0       0       0       0       0       0       0       0       0       0       0       0       
      +0       0       0       0       0
  2077 ;;      Locals:         1       0       0       0       0       0       0       0       0       0       0       0       
      +0       0       0       0       0
  2078 ;;      Temps:          0       0       0       0       0       0       0       0       0       0       0       0       
      +0       0       0       0       0
  2079 ;;      Totals:         1       0       0       0       0       0       0       0       0       0       0       0       
      +0       0       0       0       0
  2080 ;;Total ram usage:        1 bytes
  2081 ;; Hardware stack levels used: 1
  2082 ;; Hardware stack levels required when called: 3
  2083 ;; This function calls:
  2084 ;;		NULL
  2085 ;;		_RB4_isr
  2086 ;; This function is called by:
  2087 ;;		_InterruptMangaer
  2088 ;; This function uses a non-reentrant model
  2089 ;;
  2090                           
  2091                           	psect	text11
  2092   001848                     __ptext11:
  2093                           	callstack 0
  2094   001848                     _RB5_ISR:
  2095                           	callstack 21
  2096                           
  2097                           ;incstack = 0
  2098                           ;RB5_ISR@n stored from wreg
  2099   001848  6E63               	movwf	RB5_ISR@n^0,c
  2100   00184A                     
  2101                           ;MCAL_Layer/Interrupt/mcal_external_interrupt.c: 123:     (INTCONbits.RBIF = 0);
  2102   00184A  90F2               	bcf	242,0,c	;volatile
  2103   00184C                     
  2104                           ;MCAL_Layer/Interrupt/mcal_external_interrupt.c: 127:     if(!n){
  2105   00184C  5063               	movf	RB5_ISR@n^0,w,c
  2106   00184E  A4D8               	btfss	status,2,c
  2107   001850  EF2C  F00C         	goto	i2u193_41
  2108   001854  EF2E  F00C         	goto	i2u193_40
  2109   001858                     i2u193_41:
  2110   001858  EF45  F00C         	goto	i2l2971
  2111   00185C                     i2u193_40:
  2112   00185C                     
  2113                           ;MCAL_Layer/Interrupt/mcal_external_interrupt.c: 128:     if(RB5_INTERRUPTHANDLERHIGH){
  2114   00185C  5046               	movf	_RB5_INTERRUPTHANDLERHIGH^0,w,c
  2115   00185E  1047               	iorwf	(_RB5_INTERRUPTHANDLERHIGH+1)^0,w,c
  2116   001860  B4D8               	btfsc	status,2,c
  2117   001862  EF35  F00C         	goto	i2u194_41
  2118   001866  EF37  F00C         	goto	i2u194_40
  2119   00186A                     i2u194_41:
  2120   00186A  EF45  F00C         	goto	i2l527
  2121   00186E                     i2u194_40:
  2122   00186E                     
  2123                           ;MCAL_Layer/Interrupt/mcal_external_interrupt.c: 129:         RB5_INTERRUPTHANDLERHIGH()
      +                          ;
  2124   00186E  D802               	call	i2u195_48
  2125   001870  EF43  F00C         	goto	i2u195_49
  2126   001874                     i2u195_48:
  2127   001874  0005               	push	
  2128   001876  6EFA               	movwf	pclath,c
  2129   001878  5046               	movf	_RB5_INTERRUPTHANDLERHIGH^0,w,c
  2130   00187A  6EFD               	movwf	tosl,c
  2131   00187C  5047               	movf	(_RB5_INTERRUPTHANDLERHIGH+1)^0,w,c
  2132   00187E  6EFE               	movwf	tosh,c
  2133   001880  6AFF               	clrf	tosu,c
  2134   001882  50FA               	movf	pclath,w,c
  2135   001884  0012               	return		;indir
  2136   001886                     i2u195_49:
  2137                           
  2138                           ;MCAL_Layer/Interrupt/mcal_external_interrupt.c: 130:     }
  2139   001886  EF45  F00C         	goto	i2l527
  2140   00188A                     i2l2971:
  2141   00188A                     i2l527:
  2142   00188A  0012               	return		;funcret
  2143   00188C                     __end_of_RB5_ISR:
  2144                           	callstack 0
  2145                           
  2146 ;; *************** function _RB4_ISR *****************
  2147 ;; Defined at:
  2148 ;;		line 95 in file "MCAL_Layer/Interrupt/mcal_external_interrupt.c"
  2149 ;; Parameters:    Size  Location     Type
  2150 ;;  n               1    wreg     unsigned char 
  2151 ;; Auto vars:     Size  Location     Type
  2152 ;;  n               1   10[COMRAM] unsigned char 
  2153 ;; Return value:  Size  Location     Type
  2154 ;;                  1    wreg      void 
  2155 ;; Registers used:
  2156 ;;		wreg, fsr2l, fsr2h, status,2, status,0, pcl, pclath, pclatu, tosl, prodl, prodh, cstack
  2157 ;; Tracked objects:
  2158 ;;		On entry : 0/0
  2159 ;;		On exit  : 0/0
  2160 ;;		Unchanged: 0/0
  2161 ;; Data sizes:     COMRAM   BANK0   BANK1   BANK2   BANK3   BANK4   BANK5   BANK6   BANK7   BANK8   BANK9  BANK10  BANK1
      +1  BANK12  BANK13  BANK14  BANK15
  2162 ;;      Params:         0       0       0       0       0       0       0       0       0       0       0       0       
      +0       0       0       0       0
  2163 ;;      Locals:         1       0       0       0       0       0       0       0       0       0       0       0       
      +0       0       0       0       0
  2164 ;;      Temps:          0       0       0       0       0       0       0       0       0       0       0       0       
      +0       0       0       0       0
  2165 ;;      Totals:         1       0       0       0       0       0       0       0       0       0       0       0       
      +0       0       0       0       0
  2166 ;;Total ram usage:        1 bytes
  2167 ;; Hardware stack levels used: 1
  2168 ;; Hardware stack levels required when called: 3
  2169 ;; This function calls:
  2170 ;;		NULL
  2171 ;;		_RB4_isr
  2172 ;; This function is called by:
  2173 ;;		_InterruptMangaer
  2174 ;; This function uses a non-reentrant model
  2175 ;;
  2176                           
  2177                           	psect	text12
  2178   001736                     __ptext12:
  2179                           	callstack 0
  2180   001736                     _RB4_ISR:
  2181                           	callstack 21
  2182                           
  2183                           ;incstack = 0
  2184                           ;RB4_ISR@n stored from wreg
  2185   001736  6E63               	movwf	RB4_ISR@n^0,c
  2186   001738                     
  2187                           ;MCAL_Layer/Interrupt/mcal_external_interrupt.c: 97:     (INTCONbits.RBIF = 0);
  2188   001738  90F2               	bcf	242,0,c	;volatile
  2189   00173A                     
  2190                           ;MCAL_Layer/Interrupt/mcal_external_interrupt.c: 101:     if(!n){
  2191   00173A  5063               	movf	RB4_ISR@n^0,w,c
  2192   00173C  A4D8               	btfss	status,2,c
  2193   00173E  EFA3  F00B         	goto	i2u190_41
  2194   001742  EFA5  F00B         	goto	i2u190_40
  2195   001746                     i2u190_41:
  2196   001746  EFBC  F00B         	goto	i2l2957
  2197   00174A                     i2u190_40:
  2198   00174A                     
  2199                           ;MCAL_Layer/Interrupt/mcal_external_interrupt.c: 102:     if(RB4_INTERRUPTHANDLERHIGH){
  2200   00174A  504A               	movf	_RB4_INTERRUPTHANDLERHIGH^0,w,c
  2201   00174C  104B               	iorwf	(_RB4_INTERRUPTHANDLERHIGH+1)^0,w,c
  2202   00174E  B4D8               	btfsc	status,2,c
  2203   001750  EFAC  F00B         	goto	i2u191_41
  2204   001754  EFAE  F00B         	goto	i2u191_40
  2205   001758                     i2u191_41:
  2206   001758  EFBC  F00B         	goto	i2l511
  2207   00175C                     i2u191_40:
  2208   00175C                     
  2209                           ;MCAL_Layer/Interrupt/mcal_external_interrupt.c: 103:         RB4_INTERRUPTHANDLERHIGH()
      +                          ;
  2210   00175C  D802               	call	i2u192_48
  2211   00175E  EFBA  F00B         	goto	i2u192_49
  2212   001762                     i2u192_48:
  2213   001762  0005               	push	
  2214   001764  6EFA               	movwf	pclath,c
  2215   001766  504A               	movf	_RB4_INTERRUPTHANDLERHIGH^0,w,c
  2216   001768  6EFD               	movwf	tosl,c
  2217   00176A  504B               	movf	(_RB4_INTERRUPTHANDLERHIGH+1)^0,w,c
  2218   00176C  6EFE               	movwf	tosh,c
  2219   00176E  6AFF               	clrf	tosu,c
  2220   001770  50FA               	movf	pclath,w,c
  2221   001772  0012               	return		;indir
  2222   001774                     i2u192_49:
  2223                           
  2224                           ;MCAL_Layer/Interrupt/mcal_external_interrupt.c: 104:     }
  2225   001774  EFBC  F00B         	goto	i2l511
  2226   001778                     i2l2957:
  2227   001778                     i2l511:
  2228                           
  2229                           ;MCAL_Layer/Interrupt/mcal_external_interrupt.c: 118:         (INTCONbits.RBIF = 0);
  2230   001778  90F2               	bcf	242,0,c	;volatile
  2231   00177A  0012               	return		;funcret
  2232   00177C                     __end_of_RB4_ISR:
  2233                           	callstack 0
  2234                           
  2235 ;; *************** function _RB4_isr *****************
  2236 ;; Defined at:
  2237 ;;		line 25 in file "application.c"
  2238 ;; Parameters:    Size  Location     Type
  2239 ;;		None
  2240 ;; Auto vars:     Size  Location     Type
  2241 ;;		None
  2242 ;; Return value:  Size  Location     Type
  2243 ;;                  1    wreg      void 
  2244 ;; Registers used:
  2245 ;;		wreg, fsr2l, fsr2h, status,2, status,0, prodl, prodh, cstack
  2246 ;; Tracked objects:
  2247 ;;		On entry : 0/0
  2248 ;;		On exit  : 0/0
  2249 ;;		Unchanged: 0/0
  2250 ;; Data sizes:     COMRAM   BANK0   BANK1   BANK2   BANK3   BANK4   BANK5   BANK6   BANK7   BANK8   BANK9  BANK10  BANK1
      +1  BANK12  BANK13  BANK14  BANK15
  2251 ;;      Params:         0       0       0       0       0       0       0       0       0       0       0       0       
      +0       0       0       0       0
  2252 ;;      Locals:         0       0       0       0       0       0       0       0       0       0       0       0       
      +0       0       0       0       0
  2253 ;;      Temps:          2       0       0       0       0       0       0       0       0       0       0       0       
      +0       0       0       0       0
  2254 ;;      Totals:         2       0       0       0       0       0       0       0       0       0       0       0       
      +0       0       0       0       0
  2255 ;;Total ram usage:        2 bytes
  2256 ;; Hardware stack levels used: 1
  2257 ;; Hardware stack levels required when called: 2
  2258 ;; This function calls:
  2259 ;;		_led_turn_toggle
  2260 ;; This function is called by:
  2261 ;;		_RB4_ISR
  2262 ;;		_RB5_ISR
  2263 ;;		_RB6_ISR
  2264 ;;		_RB7_ISR
  2265 ;; This function uses a non-reentrant model
  2266 ;;
  2267                           
  2268                           	psect	text13
  2269   00191E                     __ptext13:
  2270                           	callstack 0
  2271   00191E                     _RB4_isr:
  2272                           	callstack 21
  2273   00191E                     
  2274                           ;application.c: 26:     led_turn_toggle(&led1);
  2275   00191E  0E3B               	movlw	low _led1
  2276   001920  6E5E               	movwf	led_turn_toggle@led^0,c
  2277   001922  EC35  F00B         	call	_led_turn_toggle	;wreg free
  2278   001926                     
  2279                           ;application.c: 27:     _delay((unsigned long)((500)*(8000000/4000.0)));
  2280   001926  0E06               	movlw	6
  2281   001928  6E62               	movwf	(??_RB4_isr+1)^0,c
  2282   00192A  0E13               	movlw	19
  2283   00192C  6E61               	movwf	??_RB4_isr^0,c
  2284   00192E  0EAE               	movlw	174
  2285   001930                     i2u354_47:
  2286   001930  2EE8               	decfsz	wreg,f,c
  2287   001932  D7FE               	bra	i2u354_47
  2288   001934  2E61               	decfsz	??_RB4_isr^0,f,c
  2289   001936  D7FC               	bra	i2u354_47
  2290   001938  2E62               	decfsz	(??_RB4_isr+1)^0,f,c
  2291   00193A  D7FA               	bra	i2u354_47
  2292   00193C  0012               	return		;funcret
  2293   00193E                     __end_of_RB4_isr:
  2294                           	callstack 0
  2295                           
  2296 ;; *************** function _led_turn_toggle *****************
  2297 ;; Defined at:
  2298 ;;		line 54 in file "ECU_Layer/LED/ecu_led.c"
  2299 ;; Parameters:    Size  Location     Type
  2300 ;;  led             1    5[COMRAM] PTR const struct .
  2301 ;;		 -> led3(1), led2(1), led1(1), 
  2302 ;; Auto vars:     Size  Location     Type
  2303 ;;  pin_obj         1    7[COMRAM] struct .
  2304 ;;  ret             1    0        unsigned char 
  2305 ;; Return value:  Size  Location     Type
  2306 ;;                  1    wreg      unsigned char 
  2307 ;; Registers used:
  2308 ;;		wreg, fsr2l, fsr2h, status,2, status,0, prodl, prodh, cstack
  2309 ;; Tracked objects:
  2310 ;;		On entry : 0/0
  2311 ;;		On exit  : 0/0
  2312 ;;		Unchanged: 0/0
  2313 ;; Data sizes:     COMRAM   BANK0   BANK1   BANK2   BANK3   BANK4   BANK5   BANK6   BANK7   BANK8   BANK9  BANK10  BANK1
      +1  BANK12  BANK13  BANK14  BANK15
  2314 ;;      Params:         1       0       0       0       0       0       0       0       0       0       0       0       
      +0       0       0       0       0
  2315 ;;      Locals:         1       0       0       0       0       0       0       0       0       0       0       0       
      +0       0       0       0       0
  2316 ;;      Temps:          1       0       0       0       0       0       0       0       0       0       0       0       
      +0       0       0       0       0
  2317 ;;      Totals:         3       0       0       0       0       0       0       0       0       0       0       0       
      +0       0       0       0       0
  2318 ;;Total ram usage:        3 bytes
  2319 ;; Hardware stack levels used: 1
  2320 ;; Hardware stack levels required when called: 1
  2321 ;; This function calls:
  2322 ;;		_gpio_pin_toggle_logic
  2323 ;; This function is called by:
  2324 ;;		_RB4_isr
  2325 ;;		_int0_isr
  2326 ;;		_int1_isr
  2327 ;;		_int2_isr
  2328 ;; This function uses a non-reentrant model
  2329 ;;
  2330                           
  2331                           	psect	text14
  2332   00166A                     __ptext14:
  2333                           	callstack 0
  2334   00166A                     _led_turn_toggle:
  2335                           	callstack 21
  2336   00166A                     
  2337                           ;ECU_Layer/LED/ecu_led.c: 56:     if(led == ((void*)0)){
  2338   00166A  505E               	movf	led_turn_toggle@led^0,w,c
  2339   00166C  A4D8               	btfss	status,2,c
  2340   00166E  EF3B  F00B         	goto	i2u171_41
  2341   001672  EF3D  F00B         	goto	i2u171_40
  2342   001676                     i2u171_41:
  2343   001676  EF3F  F00B         	goto	i2l266
  2344   00167A                     i2u171_40:
  2345   00167A                     
  2346                           ;ECU_Layer/LED/ecu_led.c: 58:     }
  2347   00167A  EF69  F00B         	goto	i2l270
  2348   00167E                     i2l266:
  2349                           
  2350                           ;ECU_Layer/LED/ecu_led.c: 60:         pin_config_t pin_obj = {.port = led->port_name, .p
      +                          in = led->pin_name,
  2351   00167E  C055  F060         	movff	led_turn_toggle@F3077,led_turn_toggle@pin_obj
  2352   001682  505E               	movf	led_turn_toggle@led^0,w,c
  2353   001684  6ED9               	movwf	fsr2l,c
  2354   001686  6ADA               	clrf	fsr2h,c
  2355   001688  50DF               	movf	223,w,c
  2356   00168A  0B07               	andlw	7
  2357   00168C  6E5F               	movwf	??_led_turn_toggle^0,c
  2358   00168E  5060               	movf	led_turn_toggle@pin_obj^0,w,c
  2359   001690  185F               	xorwf	??_led_turn_toggle^0,w,c
  2360   001692  0BF8               	andlw	-8
  2361   001694  185F               	xorwf	??_led_turn_toggle^0,w,c
  2362   001696  6E60               	movwf	led_turn_toggle@pin_obj^0,c
  2363   001698  505E               	movf	led_turn_toggle@led^0,w,c
  2364   00169A  6ED9               	movwf	fsr2l,c
  2365   00169C  6ADA               	clrf	fsr2h,c
  2366   00169E  30DF               	rrcf	223,w,c
  2367   0016A0  32E8               	rrcf	wreg,f,c
  2368   0016A2  32E8               	rrcf	wreg,f,c
  2369   0016A4  0B07               	andlw	7
  2370   0016A6  6E5F               	movwf	??_led_turn_toggle^0,c
  2371   0016A8  465F               	rlncf	??_led_turn_toggle^0,f,c
  2372   0016AA  465F               	rlncf	??_led_turn_toggle^0,f,c
  2373   0016AC  465F               	rlncf	??_led_turn_toggle^0,f,c
  2374   0016AE  5060               	movf	led_turn_toggle@pin_obj^0,w,c
  2375   0016B0  185F               	xorwf	??_led_turn_toggle^0,w,c
  2376   0016B2  0BC7               	andlw	-57
  2377   0016B4  185F               	xorwf	??_led_turn_toggle^0,w,c
  2378   0016B6  6E60               	movwf	led_turn_toggle@pin_obj^0,c
  2379   0016B8  9C60               	bcf	led_turn_toggle@pin_obj^0,6,c
  2380   0016BA  505E               	movf	led_turn_toggle@led^0,w,c
  2381   0016BC  6ED9               	movwf	fsr2l,c
  2382   0016BE  6ADA               	clrf	fsr2h,c
  2383   0016C0  ACDF               	btfss	indf2,6,c
  2384   0016C2  D002               	bra	i2u172_45
  2385   0016C4  8E60               	bsf	led_turn_toggle@pin_obj^0,7,c
  2386   0016C6  D001               	bra	i2u172_47
  2387   0016C8                     i2u172_45:
  2388   0016C8  9E60               	bcf	led_turn_toggle@pin_obj^0,7,c
  2389   0016CA                     i2u172_47:
  2390   0016CA                     
  2391                           ;ECU_Layer/LED/ecu_led.c: 62:         gpio_pin_toggle_logic(&pin_obj);
  2392   0016CA  0E60               	movlw	low led_turn_toggle@pin_obj
  2393   0016CC  6E59               	movwf	gpio_pin_toggle_logic@_pin_config^0,c
  2394   0016CE  EC6A  F00B         	call	_gpio_pin_toggle_logic	;wreg free
  2395   0016D2                     i2l270:
  2396   0016D2  0012               	return		;funcret
  2397   0016D4                     __end_of_led_turn_toggle:
  2398                           	callstack 0
  2399                           
  2400 ;; *************** function _gpio_pin_toggle_logic *****************
  2401 ;; Defined at:
  2402 ;;		line 116 in file "MCAL_Layer/GPIO/hal_gpio.c"
  2403 ;; Parameters:    Size  Location     Type
  2404 ;;  _pin_config     1    0[COMRAM] PTR const struct .
  2405 ;;		 -> led_turn_toggle@pin_obj(1), 
  2406 ;; Auto vars:     Size  Location     Type
  2407 ;;  ret             1    0        unsigned char 
  2408 ;; Return value:  Size  Location     Type
  2409 ;;                  1    wreg      unsigned char 
  2410 ;; Registers used:
  2411 ;;		wreg, fsr2l, fsr2h, status,2, status,0, prodl, prodh
  2412 ;; Tracked objects:
  2413 ;;		On entry : 0/0
  2414 ;;		On exit  : 0/0
  2415 ;;		Unchanged: 0/0
  2416 ;; Data sizes:     COMRAM   BANK0   BANK1   BANK2   BANK3   BANK4   BANK5   BANK6   BANK7   BANK8   BANK9  BANK10  BANK1
      +1  BANK12  BANK13  BANK14  BANK15
  2417 ;;      Params:         1       0       0       0       0       0       0       0       0       0       0       0       
      +0       0       0       0       0
  2418 ;;      Locals:         0       0       0       0       0       0       0       0       0       0       0       0       
      +0       0       0       0       0
  2419 ;;      Temps:          4       0       0       0       0       0       0       0       0       0       0       0       
      +0       0       0       0       0
  2420 ;;      Totals:         5       0       0       0       0       0       0       0       0       0       0       0       
      +0       0       0       0       0
  2421 ;;Total ram usage:        5 bytes
  2422 ;; Hardware stack levels used: 1
  2423 ;; This function calls:
  2424 ;;		Nothing
  2425 ;; This function is called by:
  2426 ;;		_led_turn_toggle
  2427 ;; This function uses a non-reentrant model
  2428 ;;
  2429                           
  2430                           	psect	text15
  2431   0016D4                     __ptext15:
  2432                           	callstack 0
  2433   0016D4                     _gpio_pin_toggle_logic:
  2434                           	callstack 21
  2435   0016D4                     
  2436                           ;MCAL_Layer/GPIO/hal_gpio.c: 118:     if(((void*)0) == _pin_config ){
  2437   0016D4  5059               	movf	gpio_pin_toggle_logic@_pin_config^0,w,c
  2438   0016D6  A4D8               	btfss	status,2,c
  2439   0016D8  EF70  F00B         	goto	i2u167_41
  2440   0016DC  EF72  F00B         	goto	i2u167_40
  2441   0016E0                     i2u167_41:
  2442   0016E0  EF74  F00B         	goto	i2l2739
  2443   0016E4                     i2u167_40:
  2444   0016E4                     
  2445                           ;MCAL_Layer/GPIO/hal_gpio.c: 120:     }
  2446   0016E4  EF9A  F00B         	goto	i2l407
  2447   0016E8                     i2l2739:
  2448                           
  2449                           ;MCAL_Layer/GPIO/hal_gpio.c: 122:         (*lat_registers[_pin_config->port] ^= ((uint8)
      +                          1<<_pin_config->pin));
  2450   0016E8  5059               	movf	gpio_pin_toggle_logic@_pin_config^0,w,c
  2451   0016EA  6ED9               	movwf	fsr2l,c
  2452   0016EC  6ADA               	clrf	fsr2h,c
  2453   0016EE  30DF               	rrcf	223,w,c
  2454   0016F0  32E8               	rrcf	wreg,f,c
  2455   0016F2  32E8               	rrcf	wreg,f,c
  2456   0016F4  0B07               	andlw	7
  2457   0016F6  6E5A               	movwf	??_gpio_pin_toggle_logic^0,c
  2458   0016F8  0E01               	movlw	1
  2459   0016FA  6E5B               	movwf	(??_gpio_pin_toggle_logic+1)^0,c
  2460   0016FC  2A5A               	incf	??_gpio_pin_toggle_logic^0,f,c
  2461   0016FE  EF83  F00B         	goto	i2u168_44
  2462   001702                     i2u168_45:
  2463   001702  90D8               	bcf	status,0,c
  2464   001704  365B               	rlcf	(??_gpio_pin_toggle_logic+1)^0,f,c
  2465   001706                     i2u168_44:
  2466   001706  2E5A               	decfsz	??_gpio_pin_toggle_logic^0,f,c
  2467   001708  EF81  F00B         	goto	i2u168_45
  2468   00170C  5059               	movf	gpio_pin_toggle_logic@_pin_config^0,w,c
  2469   00170E  6ED9               	movwf	fsr2l,c
  2470   001710  6ADA               	clrf	fsr2h,c
  2471   001712  50DF               	movf	223,w,c
  2472   001714  0B07               	andlw	7
  2473   001716  0D02               	mullw	2
  2474   001718  50F3               	movf	243,w,c
  2475   00171A  0F1B               	addlw	low _lat_registers
  2476   00171C  6ED9               	movwf	fsr2l,c
  2477   00171E  6ADA               	clrf	fsr2h,c
  2478   001720  CFDE F05C          	movff	postinc2,??_gpio_pin_toggle_logic+2
  2479   001724  CFDD F05D          	movff	postdec2,??_gpio_pin_toggle_logic+3
  2480   001728  C05C  FFD9         	movff	??_gpio_pin_toggle_logic+2,fsr2l
  2481   00172C  C05D  FFDA         	movff	??_gpio_pin_toggle_logic+3,fsr2h
  2482   001730  505B               	movf	(??_gpio_pin_toggle_logic+1)^0,w,c
  2483   001732  1ADF               	xorwf	indf2,f,c
  2484   001734                     i2l407:
  2485   001734  0012               	return		;funcret
  2486   001736                     __end_of_gpio_pin_toggle_logic:
  2487                           	callstack 0
  2488                           
  2489 ;; *************** function _INT2_ISR *****************
  2490 ;; Defined at:
  2491 ;;		line 81 in file "MCAL_Layer/Interrupt/mcal_external_interrupt.c"
  2492 ;; Parameters:    Size  Location     Type
  2493 ;;		None
  2494 ;; Auto vars:     Size  Location     Type
  2495 ;;		None
  2496 ;; Return value:  Size  Location     Type
  2497 ;;                  1    wreg      void 
  2498 ;; Registers used:
  2499 ;;		None
  2500 ;; Tracked objects:
  2501 ;;		On entry : 0/0
  2502 ;;		On exit  : 0/0
  2503 ;;		Unchanged: 0/0
  2504 ;; Data sizes:     COMRAM   BANK0   BANK1   BANK2   BANK3   BANK4   BANK5   BANK6   BANK7   BANK8   BANK9  BANK10  BANK1
      +1  BANK12  BANK13  BANK14  BANK15
  2505 ;;      Params:         0       0       0       0       0       0       0       0       0       0       0       0       
      +0       0       0       0       0
  2506 ;;      Locals:         0       0       0       0       0       0       0       0       0       0       0       0       
      +0       0       0       0       0
  2507 ;;      Temps:          0       0       0       0       0       0       0       0       0       0       0       0       
      +0       0       0       0       0
  2508 ;;      Totals:         0       0       0       0       0       0       0       0       0       0       0       0       
      +0       0       0       0       0
  2509 ;;Total ram usage:        0 bytes
  2510 ;; Hardware stack levels used: 1
  2511 ;; This function calls:
  2512 ;;		Nothing
  2513 ;; This function is called by:
  2514 ;;		_InterruptMangaer
  2515 ;; This function uses a non-reentrant model
  2516 ;;
  2517                           
  2518                           	psect	text16
  2519   00195A                     __ptext16:
  2520                           	callstack 0
  2521   00195A                     _INT2_ISR:
  2522                           	callstack 24
  2523   00195A                     
  2524                           ;MCAL_Layer/Interrupt/mcal_external_interrupt.c: 83:     (INTCON3bits.INT2IF = 0);
  2525   00195A  92F0               	bcf	240,1,c	;volatile
  2526   00195C  0012               	return		;funcret
  2527   00195E                     __end_of_INT2_ISR:
  2528                           	callstack 0
  2529                           
  2530 ;; *************** function _INT1_ISR *****************
  2531 ;; Defined at:
  2532 ;;		line 67 in file "MCAL_Layer/Interrupt/mcal_external_interrupt.c"
  2533 ;; Parameters:    Size  Location     Type
  2534 ;;		None
  2535 ;; Auto vars:     Size  Location     Type
  2536 ;;		None
  2537 ;; Return value:  Size  Location     Type
  2538 ;;                  1    wreg      void 
  2539 ;; Registers used:
  2540 ;;		None
  2541 ;; Tracked objects:
  2542 ;;		On entry : 0/0
  2543 ;;		On exit  : 0/0
  2544 ;;		Unchanged: 0/0
  2545 ;; Data sizes:     COMRAM   BANK0   BANK1   BANK2   BANK3   BANK4   BANK5   BANK6   BANK7   BANK8   BANK9  BANK10  BANK1
      +1  BANK12  BANK13  BANK14  BANK15
  2546 ;;      Params:         0       0       0       0       0       0       0       0       0       0       0       0       
      +0       0       0       0       0
  2547 ;;      Locals:         0       0       0       0       0       0       0       0       0       0       0       0       
      +0       0       0       0       0
  2548 ;;      Temps:          0       0       0       0       0       0       0       0       0       0       0       0       
      +0       0       0       0       0
  2549 ;;      Totals:         0       0       0       0       0       0       0       0       0       0       0       0       
      +0       0       0       0       0
  2550 ;;Total ram usage:        0 bytes
  2551 ;; Hardware stack levels used: 1
  2552 ;; This function calls:
  2553 ;;		Nothing
  2554 ;; This function is called by:
  2555 ;;		_InterruptMangaer
  2556 ;; This function uses a non-reentrant model
  2557 ;;
  2558                           
  2559                           	psect	text17
  2560   00195E                     __ptext17:
  2561                           	callstack 0
  2562   00195E                     _INT1_ISR:
  2563                           	callstack 24
  2564   00195E                     
  2565                           ;MCAL_Layer/Interrupt/mcal_external_interrupt.c: 69:     (INTCON3bits.INT1IF = 0);
  2566   00195E  90F0               	bcf	240,0,c	;volatile
  2567   001960  0012               	return		;funcret
  2568   001962                     __end_of_INT1_ISR:
  2569                           	callstack 0
  2570                           
  2571 ;; *************** function _INT0_ISR *****************
  2572 ;; Defined at:
  2573 ;;		line 53 in file "MCAL_Layer/Interrupt/mcal_external_interrupt.c"
  2574 ;; Parameters:    Size  Location     Type
  2575 ;;		None
  2576 ;; Auto vars:     Size  Location     Type
  2577 ;;		None
  2578 ;; Return value:  Size  Location     Type
  2579 ;;                  1    wreg      void 
  2580 ;; Registers used:
  2581 ;;		None
  2582 ;; Tracked objects:
  2583 ;;		On entry : 0/0
  2584 ;;		On exit  : 0/0
  2585 ;;		Unchanged: 0/0
  2586 ;; Data sizes:     COMRAM   BANK0   BANK1   BANK2   BANK3   BANK4   BANK5   BANK6   BANK7   BANK8   BANK9  BANK10  BANK1
      +1  BANK12  BANK13  BANK14  BANK15
  2587 ;;      Params:         0       0       0       0       0       0       0       0       0       0       0       0       
      +0       0       0       0       0
  2588 ;;      Locals:         0       0       0       0       0       0       0       0       0       0       0       0       
      +0       0       0       0       0
  2589 ;;      Temps:          0       0       0       0       0       0       0       0       0       0       0       0       
      +0       0       0       0       0
  2590 ;;      Totals:         0       0       0       0       0       0       0       0       0       0       0       0       
      +0       0       0       0       0
  2591 ;;Total ram usage:        0 bytes
  2592 ;; Hardware stack levels used: 1
  2593 ;; This function calls:
  2594 ;;		Nothing
  2595 ;; This function is called by:
  2596 ;;		_InterruptMangaer
  2597 ;; This function uses a non-reentrant model
  2598 ;;
  2599                           
  2600                           	psect	text18
  2601   001962                     __ptext18:
  2602                           	callstack 0
  2603   001962                     _INT0_ISR:
  2604                           	callstack 24
  2605   001962                     
  2606                           ;MCAL_Layer/Interrupt/mcal_external_interrupt.c: 55:     (INTCONbits.INT0IF = 0);
  2607   001962  92F2               	bcf	242,1,c	;volatile
  2608   001964  0012               	return		;funcret
  2609   001966                     __end_of_INT0_ISR:
  2610                           	callstack 0
  2611                           
  2612                           	psect	rparam
  2613   000000                     
  2614                           	psect	temp
  2615   00006E                     btemp:
  2616                           	callstack 0
  2617   00006E                     	ds	1
  2618   000000                     int$flags	set	btemp
  2619   000000                     wtemp8	set	btemp+1
  2620   000000                     ttemp5	set	btemp+1
  2621   000000                     ttemp6	set	btemp+4
  2622   000000                     ttemp7	set	btemp+8
  2623                           
  2624                           	psect	config
  2625                           
  2626                           ; Padding undefined space
  2627   300000                     	org	3145728
  2628   300000  FF                 	db	255
  2629                           
  2630                           ;Config register CONFIG1H @ 0x300001
  2631                           ;	Oscillator Selection bits
  2632                           ;	OSC = HS, HS oscillator
  2633                           ;	Fail-Safe Clock Monitor Enable bit
  2634                           ;	FCMEN = OFF, Fail-Safe Clock Monitor disabled
  2635                           ;	Internal/External Oscillator Switchover bit
  2636                           ;	IESO = OFF, Oscillator Switchover mode disabled
  2637   300001                     	org	3145729
  2638   300001  02                 	db	2
  2639                           
  2640                           ;Config register CONFIG2L @ 0x300002
  2641                           ;	Power-up Timer Enable bit
  2642                           ;	PWRT = OFF, PWRT disabled
  2643                           ;	Brown-out Reset Enable bits
  2644                           ;	BOREN = OFF, Brown-out Reset disabled in hardware and software
  2645                           ;	Brown Out Reset Voltage bits
  2646                           ;	BORV = 1, 
  2647   300002                     	org	3145730
  2648   300002  09                 	db	9
  2649                           
  2650                           ;Config register CONFIG2H @ 0x300003
  2651                           ;	Watchdog Timer Enable bit
  2652                           ;	WDT = OFF, WDT disabled (control is placed on the SWDTEN bit)
  2653                           ;	Watchdog Timer Postscale Select bits
  2654                           ;	WDTPS = 32768, 1:32768
  2655   300003                     	org	3145731
  2656   300003  1E                 	db	30
  2657                           
  2658                           ; Padding undefined space
  2659   300004                     	org	3145732
  2660   300004  FF                 	db	255
  2661                           
  2662                           ;Config register CONFIG3H @ 0x300005
  2663                           ;	CCP2 MUX bit
  2664                           ;	CCP2MX = PORTC, CCP2 input/output is multiplexed with RC1
  2665                           ;	PORTB A/D Enable bit
  2666                           ;	PBADEN = OFF, PORTB<4:0> pins are configured as digital I/O on Reset
  2667                           ;	Low-Power Timer1 Oscillator Enable bit
  2668                           ;	LPT1OSC = OFF, Timer1 configured for higher power operation
  2669                           ;	MCLR Pin Enable bit
  2670                           ;	MCLRE = ON, MCLR pin enabled; RE3 input pin disabled
  2671   300005                     	org	3145733
  2672   300005  81                 	db	129
  2673                           
  2674                           ;Config register CONFIG4L @ 0x300006
  2675                           ;	Stack Full/Underflow Reset Enable bit
  2676                           ;	STVREN = ON, Stack full/underflow will cause Reset
  2677                           ;	Single-Supply ICSP Enable bit
  2678                           ;	LVP = OFF, Single-Supply ICSP disabled
  2679                           ;	Extended Instruction Set Enable bit
  2680                           ;	XINST = OFF, Instruction set extension and Indexed Addressing mode disabled (Legacy mo
      +                          de)
  2681                           ;	Background Debugger Enable bit
  2682                           ;	DEBUG = 0x1, unprogrammed default
  2683   300006                     	org	3145734
  2684   300006  81                 	db	129
  2685                           
  2686                           ; Padding undefined space
  2687   300007                     	org	3145735
  2688   300007  FF                 	db	255
  2689                           
  2690                           ;Config register CONFIG5L @ 0x300008
  2691                           ;	Code Protection bit
  2692                           ;	CP0 = OFF, Block 0 (000800-003FFFh) not code-protected
  2693                           ;	Code Protection bit
  2694                           ;	CP1 = OFF, Block 1 (004000-007FFFh) not code-protected
  2695                           ;	Code Protection bit
  2696                           ;	CP2 = OFF, Block 2 (008000-00BFFFh) not code-protected
  2697                           ;	Code Protection bit
  2698                           ;	CP3 = OFF, Block 3 (00C000-00FFFFh) not code-protected
  2699   300008                     	org	3145736
  2700   300008  0F                 	db	15
  2701                           
  2702                           ;Config register CONFIG5H @ 0x300009
  2703                           ;	Boot Block Code Protection bit
  2704                           ;	CPB = OFF, Boot block (000000-0007FFh) not code-protected
  2705                           ;	Data EEPROM Code Protection bit
  2706                           ;	CPD = OFF, Data EEPROM not code-protected
  2707   300009                     	org	3145737
  2708   300009  C0                 	db	192
  2709                           
  2710                           ;Config register CONFIG6L @ 0x30000A
  2711                           ;	Write Protection bit
  2712                           ;	WRT0 = OFF, Block 0 (000800-003FFFh) not write-protected
  2713                           ;	Write Protection bit
  2714                           ;	WRT1 = OFF, Block 1 (004000-007FFFh) not write-protected
  2715                           ;	Write Protection bit
  2716                           ;	WRT2 = OFF, Block 2 (008000-00BFFFh) not write-protected
  2717                           ;	Write Protection bit
  2718                           ;	WRT3 = OFF, Block 3 (00C000-00FFFFh) not write-protected
  2719   30000A                     	org	3145738
  2720   30000A  0F                 	db	15
  2721                           
  2722                           ;Config register CONFIG6H @ 0x30000B
  2723                           ;	Configuration Register Write Protection bit
  2724                           ;	WRTC = OFF, Configuration registers (300000-3000FFh) not write-protected
  2725                           ;	Boot Block Write Protection bit
  2726                           ;	WRTB = OFF, Boot Block (000000-0007FFh) not write-protected
  2727                           ;	Data EEPROM Write Protection bit
  2728                           ;	WRTD = OFF, Data EEPROM not write-protected
  2729   30000B                     	org	3145739
  2730   30000B  E0                 	db	224
  2731                           
  2732                           ;Config register CONFIG7L @ 0x30000C
  2733                           ;	Table Read Protection bit
  2734                           ;	EBTR0 = OFF, Block 0 (000800-003FFFh) not protected from table reads executed in other
      +                           blocks
  2735                           ;	Table Read Protection bit
  2736                           ;	EBTR1 = OFF, Block 1 (004000-007FFFh) not protected from table reads executed in other
      +                           blocks
  2737                           ;	Table Read Protection bit
  2738                           ;	EBTR2 = OFF, Block 2 (008000-00BFFFh) not protected from table reads executed in other
      +                           blocks
  2739                           ;	Table Read Protection bit
  2740                           ;	EBTR3 = OFF, Block 3 (00C000-00FFFFh) not protected from table reads executed in other
      +                           blocks
  2741   30000C                     	org	3145740
  2742   30000C  0F                 	db	15
  2743                           
  2744                           ;Config register CONFIG7H @ 0x30000D
  2745                           ;	Boot Block Table Read Protection bit
  2746                           ;	EBTRB = OFF, Boot Block (000000-0007FFh) not protected from table reads executed in ot
      +                          her blocks
  2747   30000D                     	org	3145741
  2748   30000D  40                 	db	64
  2749                           tosu	equ	0xFFF
  2750                           tosh	equ	0xFFE
  2751                           tosl	equ	0xFFD
  2752                           stkptr	equ	0xFFC
  2753                           pclatu	equ	0xFFB
  2754                           pclath	equ	0xFFA
  2755                           pcl	equ	0xFF9
  2756                           tblptru	equ	0xFF8
  2757                           tblptrh	equ	0xFF7
  2758                           tblptrl	equ	0xFF6
  2759                           tablat	equ	0xFF5
  2760                           prodh	equ	0xFF4
  2761                           prodl	equ	0xFF3
  2762                           indf0	equ	0xFEF
  2763                           postinc0	equ	0xFEE
  2764                           postdec0	equ	0xFED
  2765                           preinc0	equ	0xFEC
  2766                           plusw0	equ	0xFEB
  2767                           fsr0h	equ	0xFEA
  2768                           fsr0l	equ	0xFE9
  2769                           wreg	equ	0xFE8
  2770                           indf1	equ	0xFE7
  2771                           postinc1	equ	0xFE6
  2772                           postdec1	equ	0xFE5
  2773                           preinc1	equ	0xFE4
  2774                           plusw1	equ	0xFE3
  2775                           fsr1h	equ	0xFE2
  2776                           fsr1l	equ	0xFE1
  2777                           bsr	equ	0xFE0
  2778                           indf2	equ	0xFDF
  2779                           postinc2	equ	0xFDE
  2780                           postdec2	equ	0xFDD
  2781                           preinc2	equ	0xFDC
  2782                           plusw2	equ	0xFDB
  2783                           fsr2h	equ	0xFDA
  2784                           fsr2l	equ	0xFD9
  2785                           status	equ	0xFD8

Data Sizes:
    Strings     6
    Constant    56
    Data        59
    BSS         29
    Persistent  1
    Stack       0

Auto Spaces:
    Space          Size  Autos    Used
    COMRAM          126     20     109
    BANK0           128     10      10
    BANK1           256      0       0
    BANK2           256      0       0
    BANK3           256      0       0
    BANK4           256      0       0
    BANK5           256      0       0
    BANK6           256      0       0
    BANK7           256      0       0
    BANK8           256      0       0
    BANK9           256      0       0
    BANK10          256      0       0
    BANK11          256      0       0
    BANK12          256      0       0
    BANK13          256      0       0
    BANK14          256      0       0
    BANK15          128      0       0

Pointer List with Targets:

    f$.$buffer	PTR unsigned char  size(2) Largest target is 0

    f$.$source	PTR const unsigned char  size(2) Largest target is 0

    gpio_pin_direction_intialize@_pin_config	PTR const struct . size(1) Largest target is 6
		 -> led_initialize@pin_obj(BANK0[1]), rb4(COMRAM[6]), relay_initialization@pin_obj(COMRAM[1]), 

    gpio_pin_initialize@_pin_config	PTR const struct . size(1) Largest target is 1
		 -> led_initialize@pin_obj(BANK0[1]), relay_initialization@pin_obj(COMRAM[1]), 

    gpio_pin_toggle_logic@_pin_config	PTR const struct . size(1) Largest target is 1
		 -> led_turn_toggle@pin_obj(COMRAM[1]), 

    gpio_pin_write_logic@_pin_config	PTR const struct . size(1) Largest target is 1
		 -> led_initialize@pin_obj(BANK0[1]), led_turn_off@pin_obj(COMRAM[1]), led_turn_on@pin_obj(COMRAM[1]), relay_initialization@pin_obj(COMRAM[1]), 
		 -> relay_turn_off@pin_obj(COMRAM[1]), relay_turn_on@pin_obj(COMRAM[1]), 

    INT0_INTERRUPTHANDLER	PTR FTN()void  size(2) Largest target is 1
		 -> NULL(), 

    INT1_INTERRUPTHANDLER	PTR FTN()void  size(2) Largest target is 1
		 -> NULL(), 

    INT2_INTERRUPTHANDLER	PTR FTN()void  size(2) Largest target is 1
		 -> NULL(), 

    Interrupt_INTx_Clear_Flag@int_obj$EXT_INTERRUPT_HANDLER	PTR FTN()void  size(2) Largest target is 0

    Interrupt_INTx_Disable@int_obj$EXT_INTERRUPT_HANDLER	PTR FTN()void  size(2) Largest target is 0

    Interrupt_INTx_Edge_Src@int_obj$EXT_INTERRUPT_HANDLER	PTR FTN()void  size(2) Largest target is 0

    Interrupt_INTx_Enable@int_obj$EXT_INTERRUPT_HANDLER	PTR FTN()void  size(2) Largest target is 0

    Interrupt_INTx_Pin_Init@int_obj$EXT_INTERRUPT_HANDLER	PTR FTN()void  size(2) Largest target is 0

    Interrupt_INTx_Priority$0	PTR const struct . size(2) Largest target is 0

    Interrupt_RBx_Init@int_obj	PTR const struct . size(1) Largest target is 6
		 -> rb4(COMRAM[6]), 

    Interrupt_RBx_Init@int_obj$EXT_INTERRUPT_HANDLER_HIGH	PTR FTN()void  size(2) Largest target is 1
		 -> RB4_isr(), 

    Interrupt_RBx_Init@int_obj$EXT_INTERRUPT_HANDLER_LOW	PTR FTN()void  size(2) Largest target is 1
		 -> NULL(), 

    lat_registers	PTR volatile unsigned char [5] size(2) Largest target is 1
		 -> LATA(BITBIGSFRll[1]), LATB(BITBIGSFRlh[1]), LATC(BITBIGSFRlh[1]), LATD(BITBIGSFRlh[1]), 
		 -> LATE(BITBIGSFRlh[1]), 

    led_initialize@led	PTR const struct . size(1) Largest target is 1
		 -> led1(COMRAM[1]), led2(COMRAM[1]), led3(COMRAM[1]), 

    led_turn_toggle@led	PTR const struct . size(1) Largest target is 1
		 -> led1(COMRAM[1]), led2(COMRAM[1]), led3(COMRAM[1]), 

    port_registers	PTR volatile unsigned char [5] size(2) Largest target is 1
		 -> PORTA(BITBIGSFRll[1]), PORTB(BITBIGSFRll[1]), PORTC(BITBIGSFRll[1]), PORTD(BITBIGSFRll[1]), 
		 -> PORTE(BITBIGSFRll[1]), 

    rb4$EXT_INTERRUPT_HANDLER_HIGH	PTR FTN()void  size(2) Largest target is 1
		 -> RB4_isr(), 

    rb4$EXT_INTERRUPT_HANDLER_LOW	PTR FTN()void  size(2) Largest target is 1
		 -> NULL(), 

    RB4_INTERRUPTHANDLERHIGH	PTR FTN()void  size(2) Largest target is 1
		 -> RB4_isr(), NULL(), 

    RB4_INTERRUPTHANDLERLOW	PTR FTN()void  size(2) Largest target is 1
		 -> NULL(), 

    RB5_INTERRUPTHANDLERHIGH	PTR FTN()void  size(2) Largest target is 1
		 -> RB4_isr(), NULL(), 

    RB5_INTERRUPTHANDLERLOW	PTR FTN()void  size(2) Largest target is 1
		 -> NULL(), 

    RB6_INTERRUPTHANDLERHIGH	PTR FTN()void  size(2) Largest target is 1
		 -> RB4_isr(), NULL(), 

    RB6_INTERRUPTHANDLERLOW	PTR FTN()void  size(2) Largest target is 1
		 -> NULL(), 

    RB7_INTERRUPTHANDLERHIGH	PTR FTN()void  size(2) Largest target is 1
		 -> RB4_isr(), NULL(), 

    RB7_INTERRUPTHANDLERLOW	PTR FTN()void  size(2) Largest target is 1
		 -> NULL(), 

    S1880$buffer	PTR unsigned char  size(2) Largest target is 0

    S1880$source	PTR const unsigned char  size(2) Largest target is 0

    S819$EXT_INTERRUPT_HANDLER	PTR FTN()void  size(2) Largest target is 0

    S962$EXT_INTERRUPT_HANDLER_HIGH	PTR FTN()void  size(2) Largest target is 1
		 -> RB4_isr(), 

    S962$EXT_INTERRUPT_HANDLER_LOW	PTR FTN()void  size(2) Largest target is 1
		 -> NULL(), 

    Set_Interrupt_Handler@int_obj$EXT_INTERRUPT_HANDLER	PTR FTN()void  size(2) Largest target is 0

    sp__memset	PTR void  size(2) Largest target is 0

    tris_registers	PTR volatile unsigned char [5] size(2) Largest target is 1
		 -> TRISA(BITBIGSFRll[1]), TRISB(BITBIGSFRhll[1]), TRISC(BITBIGSFRhll[1]), TRISD(BITBIGSFRhll[1]), 
		 -> TRISE(BITBIGSFRhll[1]), 

    vfprintf$0	PTR struct _IO_FILE size(1) Largest target is 12
		 -> sprintf@f(COMRAM[12]), 

    vfprintf$1	PTR const unsigned char  size(1) Largest target is 3
		 -> STR_1(CODE[3]), STR_2(CODE[3]), STR_3(CODE[3]), 

    vfprintf$2	PTR PTR void  size(1) Largest target is 1
		 -> sprintf@ap(COMRAM[1]), 


Critical Paths under _main in COMRAM

    _main->_Interrupt_RBx_Init
    _gpio_pin_initialize->_gpio_pin_write_logic
    _Interrupt_RBx_Init->_gpio_pin_direction_intialize

Critical Paths under _InterruptMangaer in COMRAM

    _InterruptMangaer->_RB4_ISR
    _InterruptMangaer->_RB5_ISR
    _InterruptMangaer->_RB6_ISR
    _InterruptMangaer->_RB7_ISR
    _RB7_ISR->_RB4_isr
    _RB6_ISR->_RB4_isr
    _RB5_ISR->_RB4_isr
    _RB4_ISR->_RB4_isr
    _RB4_isr->_led_turn_toggle
    _led_turn_toggle->_gpio_pin_toggle_logic

Critical Paths under _main in BANK0

    _Ecu_initialize->_led_initialize
    _led_initialize->_gpio_pin_initialize
    _gpio_pin_initialize->_gpio_pin_direction_intialize
    _gpio_pin_initialize->_gpio_pin_write_logic
    _Interrupt_RBx_Init->_gpio_pin_direction_intialize

Critical Paths under _InterruptMangaer in BANK0

    None.

Critical Paths under _main in BANK1

    None.

Critical Paths under _InterruptMangaer in BANK1

    None.

Critical Paths under _main in BANK2

    None.

Critical Paths under _InterruptMangaer in BANK2

    None.

Critical Paths under _main in BANK3

    None.

Critical Paths under _InterruptMangaer in BANK3

    None.

Critical Paths under _main in BANK4

    None.

Critical Paths under _InterruptMangaer in BANK4

    None.

Critical Paths under _main in BANK5

    None.

Critical Paths under _InterruptMangaer in BANK5

    None.

Critical Paths under _main in BANK6

    None.

Critical Paths under _InterruptMangaer in BANK6

    None.

Critical Paths under _main in BANK7

    None.

Critical Paths under _InterruptMangaer in BANK7

    None.

Critical Paths under _main in BANK8

    None.

Critical Paths under _InterruptMangaer in BANK8

    None.

Critical Paths under _main in BANK9

    None.

Critical Paths under _InterruptMangaer in BANK9

    None.

Critical Paths under _main in BANK10

    None.

Critical Paths under _InterruptMangaer in BANK10

    None.

Critical Paths under _main in BANK11

    None.

Critical Paths under _InterruptMangaer in BANK11

    None.

Critical Paths under _main in BANK12

    None.

Critical Paths under _InterruptMangaer in BANK12

    None.

Critical Paths under _main in BANK13

    None.

Critical Paths under _InterruptMangaer in BANK13

    None.

Critical Paths under _main in BANK14

    None.

Critical Paths under _InterruptMangaer in BANK14

    None.

Critical Paths under _main in BANK15

    None.

Critical Paths under _InterruptMangaer in BANK15

    None.

Call Graph Tables:

 ---------------------------------------------------------------------------------
 (Depth) Function   	        Calls       Base Space   Used Autos Params    Refs
 ---------------------------------------------------------------------------------
 (0) _main                                                 0     0      0    9754
                 _Interrupt_RBx_Init
             _application_initialize
 ---------------------------------------------------------------------------------
 (1) _application_initialize                               0     0      0    8687
                     _Ecu_initialize
 ---------------------------------------------------------------------------------
 (2) _Ecu_initialize                                       0     0      0    8687
                     _led_initialize
 ---------------------------------------------------------------------------------
 (3) _led_initialize                                       4     3      1    8687
                                              7 BANK0      3     2      1
                _gpio_pin_initialize
 ---------------------------------------------------------------------------------
 (4) _gpio_pin_initialize                                  2     1      1    8201
                                              5 BANK0      2     1      1
       _gpio_pin_direction_intialize
               _gpio_pin_write_logic
 ---------------------------------------------------------------------------------
 (5) _gpio_pin_write_logic                                 8     6      2    5983
                                             17 COMRAM     3     1      2
                                              0 BANK0      5     5      0
 ---------------------------------------------------------------------------------
 (1) _Interrupt_RBx_Init                                   2     1      1    1067
                                             19 COMRAM     1     0      1
       _gpio_pin_direction_intialize
 ---------------------------------------------------------------------------------
 (5) _gpio_pin_direction_intialize                         7     6      1     617
                                             17 COMRAM     2     1      1
                                              0 BANK0      5     5      0
 ---------------------------------------------------------------------------------
 Estimated maximum stack depth 5
 ---------------------------------------------------------------------------------
 (Depth) Function   	        Calls       Base Space   Used Autos Params    Refs
 ---------------------------------------------------------------------------------
 (6) _InterruptMangaer                                     6     6      0    2492
                                             11 COMRAM     6     6      0
                           _INT0_ISR
                           _INT1_ISR
                           _INT2_ISR
                            _RB4_ISR
                            _RB5_ISR
                            _RB6_ISR
                            _RB7_ISR
 ---------------------------------------------------------------------------------
 (7) _RB7_ISR                                              1     1      0     623
                                             10 COMRAM     1     1      0
                                NULL *
                            _RB4_isr *
 ---------------------------------------------------------------------------------
 (7) _RB6_ISR                                              1     1      0     623
                                             10 COMRAM     1     1      0
                                NULL *
                            _RB4_isr *
 ---------------------------------------------------------------------------------
 (7) _RB5_ISR                                              1     1      0     623
                                             10 COMRAM     1     1      0
                                NULL *
                            _RB4_isr *
 ---------------------------------------------------------------------------------
 (7) _RB4_ISR                                              1     1      0     623
                                             10 COMRAM     1     1      0
                                NULL *
                            _RB4_isr *
 ---------------------------------------------------------------------------------
 (8) _RB4_isr                                              2     2      0     579
                                              8 COMRAM     2     2      0
                    _led_turn_toggle
 ---------------------------------------------------------------------------------
 (9) _led_turn_toggle                                      4     3      1     579
                                              5 COMRAM     3     2      1
              _gpio_pin_toggle_logic
 ---------------------------------------------------------------------------------
 (10) _gpio_pin_toggle_logic                               6     5      1     150
                                              0 COMRAM     5     4      1
 ---------------------------------------------------------------------------------
 (8) NULL(Fake)                                            0     0      0       0
 ---------------------------------------------------------------------------------
 (7) _INT2_ISR                                             0     0      0       0
 ---------------------------------------------------------------------------------
 (7) _INT1_ISR                                             0     0      0       0
 ---------------------------------------------------------------------------------
 (7) _INT0_ISR                                             0     0      0       0
 ---------------------------------------------------------------------------------
 Estimated maximum stack depth 10
 ---------------------------------------------------------------------------------

 Call Graph Graphs:

 _main (ROOT)
   _Interrupt_RBx_Init
     _gpio_pin_direction_intialize
   _application_initialize
     _Ecu_initialize
       _led_initialize
         _gpio_pin_initialize
           _gpio_pin_direction_intialize
           _gpio_pin_write_logic

 _InterruptMangaer (ROOT)
   _INT0_ISR
   _INT1_ISR
   _INT2_ISR
   _RB4_ISR
     NULL(Fake) *
     _RB4_isr *
       _led_turn_toggle
         _gpio_pin_toggle_logic
   _RB5_ISR
     NULL(Fake) *
     _RB4_isr *
   _RB6_ISR
     NULL(Fake) *
     _RB4_isr *
   _RB7_ISR
     NULL(Fake) *
     _RB4_isr *

 Address spaces:
Name               Size   Autos  Total    Cost      Usage
BIGRAM             F7F      0       0      41        0.0%
EEDATA             400      0       0       0        0.0%
BITBANK14          100      0       0      33        0.0%
BANK14             100      0       0      34        0.0%
BITBANK13          100      0       0      31        0.0%
BANK13             100      0       0      32        0.0%
BITBANK12          100      0       0      29        0.0%
BANK12             100      0       0      30        0.0%
BITBANK11          100      0       0      27        0.0%
BANK11             100      0       0      28        0.0%
BITBANK10          100      0       0      24        0.0%
BANK10             100      0       0      25        0.0%
BITBANK9           100      0       0      22        0.0%
BANK9              100      0       0      23        0.0%
BITBANK8           100      0       0      20        0.0%
BANK8              100      0       0      21        0.0%
BITBANK7           100      0       0      18        0.0%
BANK7              100      0       0      19        0.0%
BITBANK6           100      0       0      16        0.0%
BANK6              100      0       0      17        0.0%
BITBANK5           100      0       0      14        0.0%
BANK5              100      0       0      15        0.0%
BITBANK4           100      0       0      12        0.0%
BANK4              100      0       0      13        0.0%
BITBANK3           100      0       0      10        0.0%
BANK3              100      0       0      11        0.0%
BITBANK2           100      0       0       8        0.0%
BANK2              100      0       0       9        0.0%
BITBANK1           100      0       0       6        0.0%
BANK1              100      0       0       7        0.0%
BITBANK15           80      0       0      35        0.0%
BANK15              80      0       0      36        0.0%
BITBANK0            80      0       0       4        0.0%
BANK0               80      A       A       5        7.8%
BITCOMRAM           7E      0       0       0        0.0%
COMRAM              7E     14      6D       1       86.5%
BITBIGSFRhll        59      0       0      38        0.0%
BITBIGSFRhh          D      0       0      37        0.0%
BITBIGSFRlh          4      0       0      39        0.0%
BITBIGSFRll          4      0       0      40        0.0%
BIGSFR               0      0       0     200        0.0%
BITSFR               0      0       0     200        0.0%
SFR                  0      0       0     200        0.0%
STACK                0      0       0       2        0.0%
NULL                 0      0       0       0        0.0%
ABS                  0      0      77      26        0.0%
DATA                 0      0      77       3        0.0%
CODE                 0      0       0       0        0.0%


Microchip Technology PIC18 Macro Assembler V2.46 build 20240104201356 
Symbol Table                                                                                   Tue Jul 16 07:07:10 2024

                     ??_InterruptMangaer 0064                     ??_Interrupt_RBx_Init 006D  
                      ??_led_turn_toggle 005F                    _INT0_INTERRUPTHANDLER 0050  
                                    l330 191C                                      l412 17BE  
                                    l245 1612                                      l249 1668  
                                    l703 194A                                      l704 194A  
                                    l561 1502                                      l378 140C  
                                    l395 15FA                                      l557 1422  
                                    l709 1958                                      l566 1504  
                                    _rb4 0033                                      _ret 006D  
                    led_initialize@F3062 0058                                      tosl 0FFD  
                                    wreg 0FE8                          __end_of_RB4_ISR 177C  
                        __end_of_RB5_ISR 188C                          __end_of_RB6_ISR 1848  
                        __end_of_RB7_ISR 1804                                     l3621 151A  
                                   l3623 1522                                     l3631 15F8  
                                   l3641 130A                                     l3625 157A  
                                   l3651 13DE                                     l3643 132C  
                                   l3619 1506                                     l3645 1334  
                                   l3653 140A                                     l3629 15CC  
                                   l3661 179A                                     l4357 193E  
                                   l3647 138C                                     l3639 12F6  
                                   l3663 17BA                                     l3671 1616  
                                   l3657 177C                                     l3673 164C  
                                   l4379 15E2                                     l3659 1792  
                                   l3675 164E                                     l3667 15FC  
                                   l3861 1438                                     l3677 1660  
                                   l3669 160E                                     l3871 148E  
                                   l3863 1446                                     l3855 140E  
                                   l3759 18FE                                     l3873 14A4  
                                   l3865 145C                                     l3857 141E  
                                   l3881 1952                                     l3875 14B2  
                                   l3867 146A                                     l3859 142A  
                                   l3877 14C8                                     l3869 1480  
                        __end_of_RB4_isr 193E                                     l3879 14CC  
                                   STR_1 103C                                     STR_2 1039  
                                   _LATA 0F89                                     u3110 141E  
                                   _LATB 0F8A                                     u3111 141A  
                                   _LATC 0F8B                                     _LATD 0F8C  
                                   _LATE 0F8D                                     u2900 13F4  
                                   u2901 13EE                                     u2830 151A  
                                   u2910 1792                                     u2831 1516  
                                   u2911 178E                                     u2920 160E  
                                   u2921 160A                                     u2906 13F6  
                                   u2860 130A                                     u2844 1540  
                                   u2861 1306                                     u2845 153C  
                                   u2870 132C                                     u2854 1598  
                                   u2871 1328                                     u2855 1594  
                                   u2935 165C                                     u2937 1660  
                                   u2884 1352                                     u2885 134E  
                                   u2894 13AA                                     u2895 13A6  
                                   _led1 003B                                     _led2 003A  
                                   _led3 0039                                     _main 193E  
                                   fsr2h 0FDA                                     indf2 0FDF  
                                   fsr1l 0FE1                                     fsr2l 0FD9  
                                   btemp 006E                   __end_of_led_initialize 166A  
                                   prodh 0FF4                                     prodl 0FF3  
                                   start 000E                             ___param_bank 0000  
                 ?_gpio_pin_toggle_logic 0059                     _gpio_pin_write_logic 1506  
                       __end_of_INT0_ISR 1966                         __end_of_INT1_ISR 1962  
                       __end_of_INT2_ISR 195E                                    ?_main 0059  
               ??_application_initialize 006D                                    _RB4_F 0032  
                                  _RB5_F 0031                                    _RB6_F 0030  
                                  _RB7_F 002F                                    i2l500 1960  
                                  i2l270 16D2                                    i2l407 1734  
                                  i2l511 1778                                    i2l505 195C  
                                  i2l266 167E                                    i2l516 177A  
                                  i2l527 188A                                    i2l538 1846  
                                  i2l549 1802                                    i2l495 1964  
                                  i2l751 1142                                    i2l743 107A  
                                  i2l761 1296                                    i2l753 1186  
                                  i2l745 109A                                    i2l755 11CA  
                                  i2l747 10BA                                    i2l764 12DA  
                                  i2l757 120E                                    i2l749 10FE  
                                  i2l694 193C                                    i2l759 1252  
                    relay_turn_off@F3065 0052                                    _PORTA 0F80  
                                  _PORTB 0F81                                    _PORTC 0F82  
                                  _PORTD 0F83                                    _PORTE 0F84  
                                  _TRISA 0F92                                    _TRISB 0F93  
                                  _TRISC 0F94                                    _TRISD 0F95  
                                  _TRISE 0F96                                    pclath 0FFA  
                                  pclatu 0FFB                                    tablat 0FF5  
                                  ttemp5 006F                                    ttemp6 0072  
                                  ttemp7 0076                                    status 0FD8  
                                  wtemp8 006F                          ?_led_initialize 0087  
                _RB4_INTERRUPTHANDLERLOW 0048                  _RB7_INTERRUPTHANDLERLOW 003C  
                        __initialization 18C8                             __end_of_main 1952  
                  ?_gpio_pin_write_logic 006A                            _lat_registers 001B  
                                 ??_main 006D                           _Ecu_initialize 18FE  
                          __activetblptr 0003                         led_turn_on@F3067 0057  
                              ??_RB4_ISR 0063                                ??_RB5_ISR 0063  
                              ??_RB6_ISR 0063                                ??_RB7_ISR 0063  
                              ??_RB4_isr 0061                                   i2l1731 195A  
                                 i2l1725 195E                                   i2l1719 1962  
                                 i2l3601 128C                                   i2l3521 105A  
                                 i2l3611 12D0                                   i2l3603 1290  
                                 i2l3531 10A8                                   i2l3523 1068  
                                 i2l3613 12D4                                   i2l3605 12A4  
                                 i2l3541 10F4                                   i2l3533 10B6  
                                 i2l3525 1076                                   i2l2735 16D4  
                                 i2l3607 12B2                                   i2l3551 1138  
                                 i2l3543 10F8                                   i2l3535 10C8  
                                 i2l3527 1088                                   i2l2737 16E4  
                                 i2l2761 1682                                   i2l3609 12C0  
                                 i2l3561 117C                                   i2l3553 113C  
                                 i2l3545 110C                                   i2l3537 10D6  
                                 i2l3529 1096                                   i2l2739 16E8  
                                 i2l2763 16B8                                   i2l2851 191E  
                                 i2l3571 11C0                                   i2l3563 1180  
                                 i2l3555 1150                                   i2l3547 111A  
                                 i2l3539 10E4                                   i2l2765 16BA  
                                 i2l2757 166A                                   i2l2853 1926  
                                 i2l3581 1204                                   i2l3573 11C4  
                                 i2l3565 1194                                   i2l3557 115E  
                                 i2l3549 1128                                   i2l2767 16CA  
                                 i2l2759 167A                                   i2l2951 173A  
                                 i2l3591 1248                                   i2l3583 1208  
                                 i2l3575 11D8                                   i2l3567 11A2  
                                 i2l3559 116C                                   i2l2953 174A  
                                 i2l3593 124C                                   i2l3585 121C  
                                 i2l3577 11E6                                   i2l3569 11B0  
                                 i2l2955 175C                                   i2l2971 188A  
                                 i2l2963 184A                                   i2l3595 1260  
                                 i2l3587 122A                                   i2l3579 11F4  
                                 i2l2957 1778                                   i2l2949 1738  
                                 i2l2965 184C                                   i2l2981 1818  
                                 i2l3597 126E                                   i2l3589 1238  
                                 i2l2967 185C                                   i2l2983 182A  
                                 i2l2991 17C2                                   i2l3599 127C  
                                 i2l2969 186E                                   i2l2985 1846  
                                 i2l2977 1806                                   i2l2993 17C4  
                                 i2l2979 1808                                   i2l2995 17D4  
                                 i2l2997 17E6                                   i2l2999 1802  
                  _INT1_INTERRUPTHANDLER 004E         gpio_pin_toggle_logic@_pin_config 0059  
                 __end_of_Ecu_initialize 191E                                   clear_0 18EE  
                  led_initialize@pin_obj 0089                                   isa$std 0001  
gpio_pin_direction_intialize@_pin_config 006A                             __pdataCOMRAM 0001  
                           __mediumconst 0000                                   tblptrh 0FF7  
                                 tblptrl 0FF6                                   tblptru 0FF8  
                             __accesstop 0080                  __end_of__initialization 18F4  
                              ?_INT0_ISR 0059                                ?_INT1_ISR 0059  
                              ?_INT2_ISR 0059                 _RB4_INTERRUPTHANDLERHIGH 004A  
                          ___rparam_used 0001                 _RB7_INTERRUPTHANDLERHIGH 003E  
                      led_initialize@led 0087                          _led_turn_toggle 166A  
                 ??_gpio_pin_write_logic 0080                           __pcstackCOMRAM 0059  
                        ?_Ecu_initialize 0059                               ??_INT0_ISR 0059  
                             ??_INT1_ISR 0059                               ??_INT2_ISR 0059  
                 _application_initialize 1952                               __pnvCOMRAM 006D  
                ??_gpio_pin_toggle_logic 005A                        led_turn_off@F3072 0056  
                  _INT2_INTERRUPTHANDLER 004C                                  _RB4_ISR 1736  
                                _RB5_ISR 1848                                  _RB6_ISR 1804  
                                _RB7_ISR 17C0                                  _RB4_isr 191E  
                          _keypad_values 0001                     led_turn_toggle@F3077 0055  
                       ??_led_initialize 0088                  __end_of_led_turn_toggle 16D4  
                         _tris_registers 0025                                  __Hparam 0000  
                                __Lparam 0000                      _gpio_pin_initialize 177C  
                           __psmallconst 1000                                  __pcinit 18C8  
                                __ramtop 1000                               _customChar 1031  
                                __ptext0 193E                                  __ptext1 1952  
                                __ptext2 18FE                                  __ptext3 15FC  
                                __ptext4 177C                                  __ptext5 1506  
                                __ptext6 140E                                  __ptext7 12F6  
                                __ptext9 17C0                     ?_gpio_pin_initialize 0085  
                         __pintcode_body 1040                     end_of_initialization 18F4  
                                int_func 1040                  _RB5_INTERRUPTHANDLERLOW 0044  
                                postdec1 0FE5                                  postdec2 0FDD  
                                postinc0 0FEE                                  postinc2 0FDE  
                              _PORTBbits 0F81                         _InterruptMangaer 0008  
   __end_of_gpio_pin_direction_intialize 140E             _gpio_pin_direction_intialize 12F6  
                  ??_gpio_pin_initialize 006D                         ?_led_turn_toggle 005E  
                       ??_Ecu_initialize 006D                       relay_turn_on@F3060 0053  
              Interrupt_RBx_Init@int_obj 006C                            __pidataCOMRAM 188C  
                    start_initialization 18C8                   led_turn_toggle@pin_obj 0060  
          ?_gpio_pin_direction_intialize 006A                  ?_application_initialize 0059  
               _RB6_INTERRUPTHANDLERHIGH 0042            __end_of_gpio_pin_toggle_logic 1736  
                               ?_RB4_ISR 0059                                 ?_RB5_ISR 0059  
                               ?_RB6_ISR 0059                                 ?_RB7_ISR 0059  
                            __pbssCOMRAM 003C                                 ?_RB4_isr 0059  
                          __pcstackBANK0 0080                                 RB4_ISR@n 0063  
                               RB5_ISR@n 0063                                 RB6_ISR@n 0063  
         __end_of_application_initialize 195A                                 RB7_ISR@n 0063  
        gpio_pin_direction_intialize@ret 006B                                __pintcode 0008  
             __end_of_Interrupt_RBx_Init 1506          gpio_pin_write_logic@_pin_config 006A  
              gpio_pin_write_logic@logic 006B                              __smallconst 1000  
                    __end_of_customChar2 1031                      __end_of_customChar3 1029  
                    __end_of_customChar4 1021                      __end_of_customChar5 1019  
                    __end_of_customChar6 1011                      __end_of_customChar7 1009  
         ??_gpio_pin_direction_intialize 0080                                 _INT0_ISR 1962  
                               _INT1_ISR 195E                                 _INT2_ISR 195A  
               __end_of_InterruptMangaer 12F6                                 i2u200_40 17E6  
                               i2u200_41 17E2                                 i2u201_48 17EC  
                               i2u201_49 17FE                                 i2u250_40 10B6  
                               i2u250_41 10B2                                 i2u171_40 167A  
                               i2u251_40 10C8                                 i2u171_41 1676  
                               i2u251_41 10C4                                 i2u260_40 115E  
                               i2u252_40 10D6                                 i2u260_41 115A  
                               i2u252_41 10D2                                 i2u172_45 16C8  
                               i2u172_47 16CA                                 i2u261_40 116C  
                               i2u253_40 10E4                                 i2u245_40 1068  
                               i2u261_41 1168                                 i2u253_41 10E0  
                               i2u245_41 1064                                 i2u190_40 174A  
                               i2u270_40 1204                                 i2u262_40 117C  
                               i2u254_40 10F4                                 i2u246_40 1076  
                               i2u190_41 1746                                 i2u270_41 1200  
                               i2u262_41 1178                                 i2u254_41 10F0  
                               i2u246_41 1072                                 i2u167_40 16E4  
                               i2u191_40 175C                                 i2u271_40 121C  
                               i2u263_40 1194                                 i2u255_40 110C  
                               i2u247_40 1088                                 i2u167_41 16E0  
                               i2u191_41 1758                                 i2u271_41 1218  
                               i2u263_41 1190                                 i2u255_41 1108  
                               i2u247_41 1084                                 i2u280_40 12B2  
                               i2u272_40 122A                                 i2u264_40 11A2  
                               i2u256_40 111A                                 i2u248_40 1096  
                               i2u280_41 12AE                                 i2u272_41 1226  
                               i2u264_41 119E                                 i2u256_41 1116  
                               i2u248_41 1092                                 i2u168_44 1706  
                               i2u168_45 1702                                 i2u192_48 1762  
                               i2u193_40 185C                                 i2u281_40 12C0  
                               i2u273_40 1238                                 i2u265_40 11B0  
                               i2u257_40 1128                                 i2u249_40 10A8  
                               i2u192_49 1774                                 i2u193_41 1858  
                               i2u281_41 12BC                                 i2u273_41 1234  
                               i2u265_41 11AC                                 i2u257_41 1124  
                               i2u249_41 10A4                                 i2u194_40 186E  
                               i2u282_40 12D0                                 i2u274_40 1248  
                               i2u266_40 11C0                                 i2u258_40 1138  
                               i2u194_41 186A                                 i2u282_41 12CC  
                               i2u274_41 1244                                 i2u266_41 11BC  
                               i2u258_41 1134                                 i2u354_47 1930  
                               i2u275_40 1260                                 i2u267_40 11D8  
                               i2u259_40 1150                                 i2u275_41 125C  
                               i2u267_41 11D4                                 i2u259_41 114C  
                               i2u195_48 1874                                 i2u196_40 1818  
                               i2u276_40 126E                                 i2u268_40 11E6  
                               i2u195_49 1886                                 i2u196_41 1814  
                               i2u276_41 126A                                 i2u268_41 11E2  
                               i2u197_40 182A                                 i2u277_40 127C  
                               i2u269_40 11F4                                 i2u197_41 1826  
                               i2u277_41 1278                                 i2u269_41 11F0  
                               i2u278_40 128C                                 i2u278_41 1288  
                               i2u198_48 1830                                 i2u199_40 17D4  
                               i2u279_40 12A4                                 i2u198_49 1842  
                               i2u199_41 17D0                                 i2u279_41 12A0  
                 gpio_pin_initialize@ret 0086                  gpio_pin_write_logic@ret 006C  
                            _INTCON2bits 0FF1                              _INTCON3bits 0FF0  
                              copy_data0 18DC                relay_initialization@F3055 0054  
                               __Hrparam 0000                  _RB6_INTERRUPTHANDLERLOW 0040  
                               __Lrparam 0000              __end_of_gpio_pin_initialize 17C0  
         gpio_pin_initialize@_pin_config 0085                              _customChar2 1029  
                            _customChar3 1021                              _customChar4 1019  
                            _customChar5 1011                              _customChar6 1009  
                            _customChar7 1001                                 __ptext10 1804  
                               __ptext11 1848                                 __ptext12 1736  
                               __ptext13 191E                                 __ptext14 166A  
                               __ptext15 16D4                                 __ptext16 195A  
                               __ptext17 195E                                 __ptext18 1962  
                     led_turn_toggle@led 005E                       __end_of_customChar 1039  
                               isa$xinst 0000                                 int$flags 006E  
                             _INTCONbits 0FF2             __end_of_gpio_pin_write_logic 15FC  
                               intlevel2 0000                 _RB5_INTERRUPTHANDLERHIGH 0046  
                  _gpio_pin_toggle_logic 16D4                           _port_registers 0011  
                     _Interrupt_RBx_Init 140E                      ?_Interrupt_RBx_Init 006C  
                      ?_InterruptMangaer 0059                           _led_initialize 15FC  
