

Microchip MPLAB XC8 Assembler V2.46 build 20240104201356 
                                                                                               Sat Aug 24 09:47:33 2024

Microchip MPLAB XC8 C Compiler v2.46 (Free license) build 20240104201356 Og1 
     1                           	processor	18F4620
     2                           	fnconf	rparam,??,?,0
     3                           	pagewidth 120
     4                           	opt	flic
     5                           	psect	idataCOMRAM,global,class=CODE,delta=1,noexec
     6                           	psect	idataBANK0,global,class=CODE,delta=1,noexec
     7                           	psect	smallconst,global,reloc=2,class=SMALLCONST,delta=1,noexec
     8                           	psect	nvBANK0,global,class=BANK0,space=1,delta=1,lowdata,noexec
     9                           	psect	cinit,global,reloc=2,class=CODE,delta=1
    10                           	psect	bssCOMRAM,global,class=COMRAM,space=1,delta=1,lowdata,noexec
    11                           	psect	dataCOMRAM,global,class=COMRAM,space=1,delta=1,lowdata,noexec
    12                           	psect	bssBANK0,global,class=BANK0,space=1,delta=1,lowdata,noexec
    13                           	psect	dataBANK0,global,class=BANK0,space=1,delta=1,lowdata,noexec
    14                           	psect	cstackBANK0,global,class=BANK0,space=1,delta=1,lowdata,noexec
    15                           	psect	cstackCOMRAM,global,class=COMRAM,space=1,delta=1,lowdata,noexec
    16                           	psect	text0,global,reloc=2,class=CODE,delta=1
    17                           	psect	text1,global,reloc=2,class=CODE,delta=1
    18                           	psect	text2,global,reloc=2,class=CODE,delta=1
    19                           	psect	text3,global,reloc=2,class=CODE,delta=1
    20                           	psect	text4,global,reloc=2,class=CODE,delta=1
    21                           	psect	text5,global,reloc=2,class=CODE,delta=1
    22                           	psect	text6,global,reloc=2,class=CODE,delta=1
    23                           	psect	text7,global,reloc=2,class=CODE,delta=1
    24                           	psect	text8,global,reloc=2,class=CODE,delta=1
    25                           	psect	text9,global,reloc=2,class=CODE,delta=1
    26                           	psect	text10,global,reloc=2,class=CODE,delta=1
    27                           	psect	text11,global,reloc=2,class=CODE,delta=1
    28                           	psect	text12,global,reloc=2,class=CODE,delta=1,group=1
    29                           	psect	text13,global,reloc=2,class=CODE,delta=1,group=1
    30                           	psect	text14,global,reloc=2,class=CODE,delta=1,group=1
    31                           	psect	text15,global,reloc=2,class=CODE,delta=1,group=1
    32                           	psect	text16,global,reloc=2,class=CODE,delta=1,group=1
    33                           	psect	text17,global,reloc=2,class=CODE,delta=1
    34                           	psect	text18,global,reloc=2,class=CODE,delta=1
    35                           	psect	text19,global,reloc=2,class=CODE,delta=1
    36                           	psect	intcode,global,reloc=2,class=CODE,delta=1
    37                           	psect	intcode_body,global,reloc=2,class=CODE,delta=1
    38                           	psect	text21,global,reloc=2,class=CODE,delta=1
    39                           	psect	text22,global,reloc=2,class=CODE,delta=1
    40                           	psect	text23,global,reloc=2,class=CODE,delta=1
    41                           	psect	text24,global,reloc=2,class=CODE,delta=1
    42                           	psect	text25,global,reloc=2,class=CODE,delta=1
    43                           	psect	text26,global,reloc=2,class=CODE,delta=1
    44                           	psect	text27,global,reloc=2,class=CODE,delta=1
    45                           	psect	text28,global,reloc=2,class=CODE,delta=1
    46                           	psect	text29,global,reloc=2,class=CODE,delta=1
    47                           	psect	text30,global,reloc=2,class=CODE,delta=1
    48                           	psect	text31,global,reloc=2,class=CODE,delta=1
    49                           	psect	text32,global,reloc=2,class=CODE,delta=1
    50                           	psect	text33,global,reloc=2,class=CODE,delta=1
    51                           	psect	intsave_regs,global,class=BIGRAM,space=1,delta=1,noexec
    52                           	psect	rparam,global,class=COMRAM,space=1,delta=1,noexec
    53                           	psect	temp,global,ovrld,common,class=COMRAM,space=1,delta=1,lowdata
    54                           	psect	config,global,abs,ovrld,class=CONFIG,space=4,delta=1,noexec
    55   000000                     
    56                           ; Generated 17/10/2023 GMT
    57                           ; 
    58                           ; Copyright © 2023, Microchip Technology Inc. and its subsidiaries ("Microchip")
    59                           ; All rights reserved.
    60                           ; 
    61                           ; This software is developed by Microchip Technology Inc. and its subsidiaries ("Microch
      +                          ip").
    62                           ; 
    63                           ; Redistribution and use in source and binary forms, with or without modification, are
    64                           ; permitted provided that the following conditions are met:
    65                           ; 
    66                           ;     1. Redistributions of source code must retain the above copyright notice, this lis
      +                          t of
    67                           ;        conditions and the following disclaimer.
    68                           ; 
    69                           ;     2. Redistributions in binary form must reproduce the above copyright notice, this 
      +                          list
    70                           ;        of conditions and the following disclaimer in the documentation and/or other
    71                           ;        materials provided with the distribution. Publication is not required when
    72                           ;        this file is used in an embedded application.
    73                           ; 
    74                           ;     3. Microchip's name may not be used to endorse or promote products derived from th
      +                          is
    75                           ;        software without specific prior written permission.
    76                           ; 
    77                           ; THIS SOFTWARE IS PROVIDED BY MICROCHIP "AS IS" AND ANY EXPRESS OR IMPLIED WARRANTIES,
    78                           ; INCLUDING, BUT NOT LIMITED TO, THE IMPLIED WARRANTIES OF MERCHANTABILITY AND FITNESS F
      +                          OR
    79                           ; PURPOSE ARE DISCLAIMED.  IN NO EVENT SHALL MICROCHIP BE LIABLE FOR ANY DIRECT, INDIREC
      +                          T,
    80                           ; INCIDENTAL, SPECIAL, EXEMPLARY, OR CONSEQUENTIAL DAMAGES (INCLUDING BUT NOT LIMITED TO
    81                           ; PROCUREMENT OF SUBSTITUTE GOODS OR SERVICES; LOSS OF USE, DATA OR PROFITS; OR BUSINESS
    82                           ; INTERRUPTION) HOWSOEVER CAUSED AND ON ANY THEORY OF LIABILITY, WHETHER IN CONTRACT, ST
      +                          RICT
    83                           ; LIABILITY, OR TORT (INCLUDING NEGLIGENCE OR OTHERWISE) ARISING IN ANY WAY OUT OF THE U
      +                          SE OF
    84                           ; THIS SOFTWARE, EVEN IF ADVISED OF THE POSSIBILITY OF SUCH DAMAGE.
    85                           ; 
    86                           ; 
    87                           ; Code-generator required, PIC18F4620 Definitions
    88                           ; 
    89                           ; SFR Addresses
    90   000000                     
    91                           	psect	idataCOMRAM
    92   002EB8                     __pidataCOMRAM:
    93                           	callstack 0
    94                           
    95                           ;initializer for _RB7_F
    96   002EB8  01                 	db	1
    97                           
    98                           ;initializer for _RB6_F
    99   002EB9  01                 	db	1
   100                           
   101                           ;initializer for _RB5_F
   102   002EBA  01                 	db	1
   103                           
   104                           ;initializer for _RB4_F
   105   002EBB  01                 	db	1
   106                           
   107                           ;initializer for _led2
   108   002EBC  0A                 	db	10
   109                           
   110                           ;initializer for _led1
   111   002EBD  12                 	db	18
   112                           
   113                           	psect	idataBANK0
   114   002D28                     __pidataBANK0:
   115                           	callstack 0
   116                           
   117                           ;initializer for _keypad_values
   118   002D28  37                 	db	55
   119   002D29  38                 	db	56
   120   002D2A  39                 	db	57
   121   002D2B  2F                 	db	47
   122   002D2C  34                 	db	52
   123   002D2D  35                 	db	53
   124   002D2E  36                 	db	54
   125   002D2F  2A                 	db	42
   126   002D30  31                 	db	49
   127   002D31  32                 	db	50
   128   002D32  33                 	db	51
   129   002D33  2D                 	db	45
   130   002D34  23                 	db	35
   131   002D35  30                 	db	48
   132   002D36  3D                 	db	61
   133   002D37  2B                 	db	43
   134                           
   135                           ;initializer for _port_registers
   136   002D38  80                 	db	128
   137   002D39  0F                 	db	15
   138   002D3A  81                 	db	129
   139   002D3B  0F                 	db	15
   140   002D3C  82                 	db	130
   141   002D3D  0F                 	db	15
   142   002D3E  83                 	db	131
   143   002D3F  0F                 	db	15
   144   002D40  84                 	db	132
   145   002D41  0F                 	db	15
   146                           
   147                           ;initializer for _lat_registers
   148   002D42  89                 	db	137
   149   002D43  0F                 	db	15
   150   002D44  8A                 	db	138
   151   002D45  0F                 	db	15
   152   002D46  8B                 	db	139
   153   002D47  0F                 	db	15
   154   002D48  8C                 	db	140
   155   002D49  0F                 	db	15
   156   002D4A  8D                 	db	141
   157   002D4B  0F                 	db	15
   158                           
   159                           ;initializer for _tris_registers
   160   002D4C  92                 	db	146
   161   002D4D  0F                 	db	15
   162   002D4E  93                 	db	147
   163   002D4F  0F                 	db	15
   164   002D50  94                 	db	148
   165   002D51  0F                 	db	15
   166   002D52  95                 	db	149
   167   002D53  0F                 	db	15
   168   002D54  96                 	db	150
   169   002D55  0F                 	db	15
   170                           
   171                           ;initializer for _ccp
   172   002D56  00                 	db	0
   173   002D57  02                 	db	2
   174   002D58  0C                 	db	12
   175   002D59  12                 	db	18
   176   002D5A  00                 	db	0
   177   002D5B  03E8               	dw	1000
   178   002D5D  04                 	db	4
   179   002D5E  01                 	db	1
   180   002D5F  00                 	db	0
   181   002D60  00                 	db	0
   182   002D61  00                 	db	0
   183   002D62  00                 	db	0
   184   002D63  00                 	db	0
   185   002D64  00                 	db	0
   186                           
   187                           ;initializer for _timer
   188   002D65  00                 	db	0
   189   002D66  00                 	db	0
   190   002D67  F9                 	db	249
   191   002D68  00                 	db	0
   192   002D69  03                 	db	3
   193                           
   194                           	psect	smallconst
   195   001000                     __psmallconst:
   196                           	callstack 0
   197   001000  00                 	db	0
   198   001001                     _customChar7:
   199                           	callstack 0
   200   001001  04                 	db	4
   201   001002  0A                 	db	10
   202   001003  04                 	db	4
   203   001004  04                 	db	4
   204   001005  04                 	db	4
   205   001006  0E                 	db	14
   206   001007  15                 	db	21
   207   001008  0E                 	db	14
   208   001009                     __end_of_customChar7:
   209                           	callstack 0
   210   001009                     _customChar6:
   211                           	callstack 0
   212   001009  0E                 	db	14
   213   00100A  0E                 	db	14
   214   00100B  1F                 	db	31
   215   00100C  1F                 	db	31
   216   00100D  1F                 	db	31
   217   00100E  1F                 	db	31
   218   00100F  1F                 	db	31
   219   001010  00                 	db	0
   220   001011                     __end_of_customChar6:
   221                           	callstack 0
   222   001011                     _customChar5:
   223                           	callstack 0
   224   001011  0E                 	db	14
   225   001012  0A                 	db	10
   226   001013  1F                 	db	31
   227   001014  1F                 	db	31
   228   001015  1F                 	db	31
   229   001016  1F                 	db	31
   230   001017  1F                 	db	31
   231   001018  00                 	db	0
   232   001019                     __end_of_customChar5:
   233                           	callstack 0
   234   001019                     _customChar4:
   235                           	callstack 0
   236   001019  0E                 	db	14
   237   00101A  0A                 	db	10
   238   00101B  11                 	db	17
   239   00101C  1F                 	db	31
   240   00101D  1F                 	db	31
   241   00101E  1F                 	db	31
   242   00101F  1F                 	db	31
   243   001020  00                 	db	0
   244   001021                     __end_of_customChar4:
   245                           	callstack 0
   246   001021                     _customChar3:
   247                           	callstack 0
   248   001021  0E                 	db	14
   249   001022  0A                 	db	10
   250   001023  11                 	db	17
   251   001024  11                 	db	17
   252   001025  1F                 	db	31
   253   001026  1F                 	db	31
   254   001027  1F                 	db	31
   255   001028  00                 	db	0
   256   001029                     __end_of_customChar3:
   257                           	callstack 0
   258   001029                     _customChar2:
   259                           	callstack 0
   260   001029  0E                 	db	14
   261   00102A  0A                 	db	10
   262   00102B  11                 	db	17
   263   00102C  11                 	db	17
   264   00102D  11                 	db	17
   265   00102E  1F                 	db	31
   266   00102F  1F                 	db	31
   267   001030  00                 	db	0
   268   001031                     __end_of_customChar2:
   269                           	callstack 0
   270   001031                     _customChar:
   271                           	callstack 0
   272   001031  0E                 	db	14
   273   001032  0A                 	db	10
   274   001033  11                 	db	17
   275   001034  11                 	db	17
   276   001035  11                 	db	17
   277   001036  11                 	db	17
   278   001037  1F                 	db	31
   279   001038  00                 	db	0
   280   001039                     __end_of_customChar:
   281                           	callstack 0
   282   000000                     _TMR3L	set	4018
   283   000000                     _TMR3H	set	4019
   284   000000                     _TMR2	set	4044
   285   000000                     _TMR1L	set	4046
   286   000000                     _TMR1H	set	4047
   287   000000                     _T1CONbits	set	4045
   288   000000                     _TMR0L	set	4054
   289   000000                     _TMR0H	set	4055
   290   000000                     _T0CONbits	set	4053
   291   000000                     _INTCON2bits	set	4081
   292   000000                     _EECON2	set	4007
   293   000000                     _PR2	set	4043
   294   000000                     _TRISD	set	3989
   295   000000                     _TRISC	set	3988
   296   000000                     _TRISB	set	3987
   297   000000                     _TRISE	set	3990
   298   001039                     STR_2:
   299   001039  25                 	db	37
   300   00103A  69                 	db	105	;'i'
   301   00103B  00                 	db	0
   302   00103C  25                 	db	37
   303   00103D  75                 	db	117	;'u'
   304   00103E  00                 	db	0
   305   00103F  00                 	db	0	; dummy byte at the end
   306   000000                     
   307                           	psect	nvBANK0
   308   0000E4                     __pnvBANK0:
   309                           	callstack 0
   310   0000E4                     _ret:
   311                           	callstack 0
   312   0000E4                     	ds	1
   313   000000                     _PORTBbits	set	3969
   314   000000                     _PIE1bits	set	3997
   315   000000                     _ADCON0bits	set	4034
   316   000000                     _PORTE	set	3972
   317   000000                     _PORTD	set	3971
   318   000000                     _PORTC	set	3970
   319   000000                     _PORTB	set	3969
   320   000000                     _PORTA	set	3968
   321   000000                     _LATA	set	3977
   322   000000                     _TRISA	set	3986
   323   000000                     _T2CONbits	set	4042
   324   000000                     _INTCON3bits	set	4080
   325   000000                     _ADRESH	set	4036
   326   000000                     _ADRESL	set	4035
   327   000000                     _INTCONbits	set	4082
   328   000000                     _PIE2bits	set	4000
   329   000000                     _PIR2bits	set	4001
   330   000000                     _PIR1bits	set	3998
   331   000000                     _EECON1bits	set	4006
   332   000000                     _EEDATA	set	4008
   333   000000                     _EEADR	set	4009
   334   000000                     _EEADRH	set	4010
   335   000000                     _ADCON2bits	set	4032
   336   000000                     _ADCON1bits	set	4033
   337   000000                     _T3CONbits	set	4017
   338   000000                     _LATE	set	3981
   339   000000                     _LATD	set	3980
   340   000000                     _LATC	set	3979
   341   000000                     _LATB	set	3978
   342   000000                     _CCP2CONbits	set	4026
   343   000000                     _CCP1CONbits	set	4029
   344   000000                     _CCPR1L	set	4030
   345   000000                     _CCPR2L	set	4027
   346                           
   347                           ; #config settings
   348                           
   349                           	psect	cinit
   350   002C6C                     __pcinit:
   351                           	callstack 0
   352   002C6C                     start_initialization:
   353                           	callstack 0
   354   002C6C                     __initialization:
   355                           	callstack 0
   356                           
   357                           ; Initialize objects allocated to BANK0 (66 bytes)
   358                           ; load TBLPTR registers with __pidataBANK0
   359   002C6C  0E28               	movlw	low __pidataBANK0
   360   002C6E  6EF6               	movwf	tblptrl,c
   361   002C70  0E2D               	movlw	high __pidataBANK0
   362   002C72  6EF7               	movwf	tblptrh,c
   363   002C74  0E00               	movlw	low (__pidataBANK0 shr (0+16))
   364   002C76  6EF8               	movwf	tblptru,c
   365   002C78  EE00  F080         	lfsr	0,__pdataBANK0
   366   002C7C  EE10 F042          	lfsr	1,66
   367   002C80                     copy_data0:
   368   002C80  0009               	tblrd		*+
   369   002C82  CFF5 FFEE          	movff	tablat,postinc0
   370   002C86  50E5               	movf	postdec1,w,c
   371   002C88  50E1               	movf	fsr1l,w,c
   372   002C8A  E1FA               	bnz	copy_data0
   373                           
   374                           ; Initialize objects allocated to COMRAM (6 bytes)
   375                           ; load TBLPTR registers with __pidataCOMRAM
   376   002C8C  0EB8               	movlw	low __pidataCOMRAM
   377   002C8E  6EF6               	movwf	tblptrl,c
   378   002C90  0E2E               	movlw	high __pidataCOMRAM
   379   002C92  6EF7               	movwf	tblptrh,c
   380   002C94  0E00               	movlw	low (__pidataCOMRAM shr (0+16))
   381   002C96  6EF8               	movwf	tblptru,c
   382   002C98  EE00  F078         	lfsr	0,__pdataCOMRAM
   383   002C9C  EE10 F006          	lfsr	1,6
   384   002CA0                     copy_data1:
   385   002CA0  0009               	tblrd		*+
   386   002CA2  CFF5 FFEE          	movff	tablat,postinc0
   387   002CA6  50E5               	movf	postdec1,w,c
   388   002CA8  50E1               	movf	fsr1l,w,c
   389   002CAA  E1FA               	bnz	copy_data1
   390                           
   391                           ; Clear objects allocated to BANK0 (34 bytes)
   392   002CAC  EE00  F0C2         	lfsr	0,__pbssBANK0
   393   002CB0  0E22               	movlw	34
   394   002CB2                     clear_0:
   395   002CB2  6AEE               	clrf	postinc0,c
   396   002CB4  06E8               	decf	wreg,f,c
   397   002CB6  E1FD               	bnz	clear_0
   398                           
   399                           ; Clear objects allocated to COMRAM (15 bytes)
   400   002CB8  EE00  F069         	lfsr	0,__pbssCOMRAM
   401   002CBC  0E0F               	movlw	15
   402   002CBE                     clear_1:
   403   002CBE  6AEE               	clrf	postinc0,c
   404   002CC0  06E8               	decf	wreg,f,c
   405   002CC2  E1FD               	bnz	clear_1
   406   002CC4                     end_of_initialization:
   407                           	callstack 0
   408   002CC4                     __end_of__initialization:
   409                           	callstack 0
   410   002CC4  907E               	bcf	int$flags,0,c	;clear compiler interrupt flag (level 1)
   411   002CC6  927E               	bcf	int$flags,1,c	;clear compiler interrupt flag (level 2)
   412   002CC8  0100               	movlb	0
   413   002CCA  EFEF  F016         	goto	_main	;jump to C main() function
   414                           
   415                           	psect	bssCOMRAM
   416   000069                     __pbssCOMRAM:
   417                           	callstack 0
   418   000069                     _preval@hal_timer3$F2573:
   419                           	callstack 0
   420   000069                     	ds	2
   421   00006B                     _preval:
   422                           	callstack 0
   423   00006B                     	ds	2
   424   00006D                     _preload:
   425                           	callstack 0
   426   00006D                     	ds	2
   427   00006F                     _value:
   428                           	callstack 0
   429   00006F                     	ds	1
   430   000070                     _preval@hal_timer2$F2436:
   431                           	callstack 0
   432   000070                     	ds	1
   433   000071                     relay_turn_off@F3065:
   434                           	callstack 0
   435   000071                     	ds	1
   436   000072                     relay_turn_on@F3060:
   437                           	callstack 0
   438   000072                     	ds	1
   439   000073                     relay_initialization@F3055:
   440                           	callstack 0
   441   000073                     	ds	1
   442   000074                     led_turn_toggle@F3077:
   443                           	callstack 0
   444   000074                     	ds	1
   445   000075                     led_turn_off@F3072:
   446                           	callstack 0
   447   000075                     	ds	1
   448   000076                     led_turn_on@F3067:
   449                           	callstack 0
   450   000076                     	ds	1
   451   000077                     led_initialize@F3062:
   452                           	callstack 0
   453   000077                     	ds	1
   454                           
   455                           	psect	dataCOMRAM
   456   000078                     __pdataCOMRAM:
   457                           	callstack 0
   458   000078                     _RB7_F:
   459                           	callstack 0
   460   000078                     	ds	1
   461   000079                     _RB6_F:
   462                           	callstack 0
   463   000079                     	ds	1
   464   00007A                     _RB5_F:
   465                           	callstack 0
   466   00007A                     	ds	1
   467   00007B                     _RB4_F:
   468                           	callstack 0
   469   00007B                     	ds	1
   470   00007C                     _led2:
   471                           	callstack 0
   472   00007C                     	ds	1
   473   00007D                     _led1:
   474                           	callstack 0
   475   00007D                     	ds	1
   476                           
   477                           	psect	bssBANK0
   478   0000C2                     __pbssBANK0:
   479                           	callstack 0
   480   0000C2                     _Interrupt_Handler_CCP2:
   481                           	callstack 0
   482   0000C2                     	ds	2
   483   0000C4                     _Interrupt_Handler_CCP1:
   484                           	callstack 0
   485   0000C4                     	ds	2
   486   0000C6                     _TMR3_HANDLER:
   487                           	callstack 0
   488   0000C6                     	ds	2
   489   0000C8                     _TMR2_HANDLER:
   490                           	callstack 0
   491   0000C8                     	ds	2
   492   0000CA                     _TMR1_HANDLER:
   493                           	callstack 0
   494   0000CA                     	ds	2
   495   0000CC                     _ISR_TIMER0:
   496                           	callstack 0
   497   0000CC                     	ds	2
   498   0000CE                     _RB7_INTERRUPTHANDLERLOW:
   499                           	callstack 0
   500   0000CE                     	ds	2
   501   0000D0                     _RB7_INTERRUPTHANDLERHIGH:
   502                           	callstack 0
   503   0000D0                     	ds	2
   504   0000D2                     _RB6_INTERRUPTHANDLERLOW:
   505                           	callstack 0
   506   0000D2                     	ds	2
   507   0000D4                     _RB6_INTERRUPTHANDLERHIGH:
   508                           	callstack 0
   509   0000D4                     	ds	2
   510   0000D6                     _RB5_INTERRUPTHANDLERLOW:
   511                           	callstack 0
   512   0000D6                     	ds	2
   513   0000D8                     _RB5_INTERRUPTHANDLERHIGH:
   514                           	callstack 0
   515   0000D8                     	ds	2
   516   0000DA                     _RB4_INTERRUPTHANDLERLOW:
   517                           	callstack 0
   518   0000DA                     	ds	2
   519   0000DC                     _RB4_INTERRUPTHANDLERHIGH:
   520                           	callstack 0
   521   0000DC                     	ds	2
   522   0000DE                     _INT2_INTERRUPTHANDLER:
   523                           	callstack 0
   524   0000DE                     	ds	2
   525   0000E0                     _INT1_INTERRUPTHANDLER:
   526                           	callstack 0
   527   0000E0                     	ds	2
   528   0000E2                     _INT0_INTERRUPTHANDLER:
   529                           	callstack 0
   530   0000E2                     	ds	2
   531                           
   532                           	psect	dataBANK0
   533   000080                     __pdataBANK0:
   534                           	callstack 0
   535   000080                     _keypad_values:
   536                           	callstack 0
   537   000080                     	ds	16
   538   000090                     _port_registers:
   539                           	callstack 0
   540   000090                     	ds	10
   541   00009A                     _lat_registers:
   542                           	callstack 0
   543   00009A                     	ds	10
   544   0000A4                     _tris_registers:
   545                           	callstack 0
   546   0000A4                     	ds	10
   547   0000AE                     _ccp:
   548                           	callstack 0
   549   0000AE                     	ds	15
   550   0000BD                     _timer:
   551                           	callstack 0
   552   0000BD                     	ds	5
   553                           
   554                           	psect	cstackBANK0
   555   0000E5                     __pcstackBANK0:
   556                           	callstack 0
   557   0000E5                     
   558                           ; 1 bytes @ 0x0
   559   0000E5                     	ds	1
   560                           
   561                           	psect	cstackCOMRAM
   562   000001                     __pcstackCOMRAM:
   563                           	callstack 0
   564   000001                     RB4_ISR@n:
   565                           	callstack 0
   566   000001                     RB5_ISR@n:
   567                           	callstack 0
   568   000001                     RB6_ISR@n:
   569                           	callstack 0
   570   000001                     RB7_ISR@n:
   571                           	callstack 0
   572                           
   573                           ; 1 bytes @ 0x0
   574   000001                     	ds	1
   575   000002                     ?___xxtofl:
   576                           	callstack 0
   577   000002                     gpio_pin_direction_intialize@_pin_config:
   578                           	callstack 0
   579   000002                     gpio_pin_write_logic@_pin_config:
   580                           	callstack 0
   581   000002                     TIMER2_INIT@timer:
   582                           	callstack 0
   583   000002                     CCP_PWM_Start@ccp:
   584                           	callstack 0
   585   000002                     CCP_Interrupt_Config@ccp:
   586                           	callstack 0
   587   000002                     CCP_Capture_Config@ccp:
   588                           	callstack 0
   589   000002                     CCP_Compare_Config@ccp:
   590                           	callstack 0
   591   000002                     ___xxtofl@val:
   592                           	callstack 0
   593                           
   594                           ; 4 bytes @ 0x1
   595   000002                     	ds	1
   596   000003                     ??_gpio_pin_direction_intialize:
   597   000003                     ??_TIMER2_INIT:
   598   000003                     gpio_pin_write_logic@logic:
   599                           	callstack 0
   600                           
   601                           ; 1 bytes @ 0x2
   602   000003                     	ds	1
   603   000004                     ??_gpio_pin_write_logic:
   604   000004                     CCP_Capture_Config@ret:
   605                           	callstack 0
   606   000004                     CCP_Compare_Config@ret:
   607                           	callstack 0
   608                           
   609                           ; 1 bytes @ 0x3
   610   000004                     	ds	2
   611   000006                     ??___xxtofl:
   612                           
   613                           ; 1 bytes @ 0x5
   614   000006                     	ds	2
   615   000008                     gpio_pin_direction_intialize@ret:
   616                           	callstack 0
   617                           
   618                           ; 1 bytes @ 0x7
   619   000008                     	ds	1
   620   000009                     gpio_pin_write_logic@ret:
   621                           	callstack 0
   622                           
   623                           ; 1 bytes @ 0x8
   624   000009                     	ds	1
   625   00000A                     gpio_pin_initialize@_pin_config:
   626                           	callstack 0
   627   00000A                     ___xxtofl@sign:
   628                           	callstack 0
   629                           
   630                           ; 1 bytes @ 0x9
   631   00000A                     	ds	1
   632   00000B                     gpio_pin_initialize@ret:
   633                           	callstack 0
   634   00000B                     ___xxtofl@exp:
   635                           	callstack 0
   636                           
   637                           ; 1 bytes @ 0xA
   638   00000B                     	ds	1
   639   00000C                     led_initialize@led:
   640                           	callstack 0
   641   00000C                     ___xxtofl@arg:
   642                           	callstack 0
   643                           
   644                           ; 4 bytes @ 0xB
   645   00000C                     	ds	1
   646   00000D                     ??_led_initialize:
   647                           
   648                           ; 1 bytes @ 0xC
   649   00000D                     	ds	1
   650   00000E                     led_initialize@pin_obj:
   651                           	callstack 0
   652                           
   653                           ; 1 bytes @ 0xD
   654   00000E                     	ds	1
   655   00000F                     
   656                           ; 1 bytes @ 0xE
   657   00000F                     	ds	1
   658   000010                     ?___fldiv:
   659                           	callstack 0
   660   000010                     ___fldiv@b:
   661                           	callstack 0
   662                           
   663                           ; 4 bytes @ 0xF
   664   000010                     	ds	4
   665   000014                     ___fldiv@a:
   666                           	callstack 0
   667                           
   668                           ; 4 bytes @ 0x13
   669   000014                     	ds	4
   670   000018                     ??___fldiv:
   671                           
   672                           ; 1 bytes @ 0x17
   673   000018                     	ds	4
   674   00001C                     ___fldiv@rem:
   675                           	callstack 0
   676                           
   677                           ; 4 bytes @ 0x1B
   678   00001C                     	ds	4
   679   000020                     ___fldiv@sign:
   680                           	callstack 0
   681                           
   682                           ; 1 bytes @ 0x1F
   683   000020                     	ds	1
   684   000021                     ___fldiv@new_exp:
   685                           	callstack 0
   686                           
   687                           ; 2 bytes @ 0x20
   688   000021                     	ds	2
   689   000023                     ___fldiv@grs:
   690                           	callstack 0
   691                           
   692                           ; 4 bytes @ 0x22
   693   000023                     	ds	4
   694   000027                     ___fldiv@bexp:
   695                           	callstack 0
   696                           
   697                           ; 1 bytes @ 0x26
   698   000027                     	ds	1
   699   000028                     ___fldiv@aexp:
   700                           	callstack 0
   701                           
   702                           ; 1 bytes @ 0x27
   703   000028                     	ds	1
   704   000029                     ?___fladd:
   705                           	callstack 0
   706   000029                     ___fladd@b:
   707                           	callstack 0
   708                           
   709                           ; 4 bytes @ 0x28
   710   000029                     	ds	4
   711   00002D                     ___fladd@a:
   712                           	callstack 0
   713                           
   714                           ; 4 bytes @ 0x2C
   715   00002D                     	ds	4
   716   000031                     ??___fladd:
   717                           
   718                           ; 1 bytes @ 0x30
   719   000031                     	ds	4
   720   000035                     ___fladd@signs:
   721                           	callstack 0
   722                           
   723                           ; 1 bytes @ 0x34
   724   000035                     	ds	1
   725   000036                     ___fladd@aexp:
   726                           	callstack 0
   727                           
   728                           ; 1 bytes @ 0x35
   729   000036                     	ds	1
   730   000037                     ___fladd@bexp:
   731                           	callstack 0
   732                           
   733                           ; 1 bytes @ 0x36
   734   000037                     	ds	1
   735   000038                     ___fladd@grs:
   736                           	callstack 0
   737                           
   738                           ; 1 bytes @ 0x37
   739   000038                     	ds	1
   740   000039                     ?___flmul:
   741                           	callstack 0
   742   000039                     ___flmul@b:
   743                           	callstack 0
   744                           
   745                           ; 4 bytes @ 0x38
   746   000039                     	ds	4
   747   00003D                     ___flmul@a:
   748                           	callstack 0
   749                           
   750                           ; 4 bytes @ 0x3C
   751   00003D                     	ds	4
   752   000041                     ??___flmul:
   753                           
   754                           ; 1 bytes @ 0x40
   755   000041                     	ds	4
   756   000045                     ___flmul@sign:
   757                           	callstack 0
   758                           
   759                           ; 1 bytes @ 0x44
   760   000045                     	ds	1
   761   000046                     ___flmul@grs:
   762                           	callstack 0
   763                           
   764                           ; 4 bytes @ 0x45
   765   000046                     	ds	4
   766   00004A                     ___flmul@aexp:
   767                           	callstack 0
   768                           
   769                           ; 1 bytes @ 0x49
   770   00004A                     	ds	1
   771   00004B                     ___flmul@bexp:
   772                           	callstack 0
   773                           
   774                           ; 1 bytes @ 0x4A
   775   00004B                     	ds	1
   776   00004C                     ___flmul@prod:
   777                           	callstack 0
   778                           
   779                           ; 4 bytes @ 0x4B
   780   00004C                     	ds	4
   781   000050                     ___flmul@temp:
   782                           	callstack 0
   783                           
   784                           ; 2 bytes @ 0x4F
   785   000050                     	ds	2
   786   000052                     ?___fltol:
   787                           	callstack 0
   788   000052                     ___fltol@f1:
   789                           	callstack 0
   790                           
   791                           ; 4 bytes @ 0x51
   792   000052                     	ds	4
   793   000056                     ??___fltol:
   794                           
   795                           ; 1 bytes @ 0x55
   796   000056                     	ds	4
   797   00005A                     ___fltol@sign1:
   798                           	callstack 0
   799                           
   800                           ; 1 bytes @ 0x59
   801   00005A                     	ds	1
   802   00005B                     ___fltol@exp1:
   803                           	callstack 0
   804                           
   805                           ; 1 bytes @ 0x5A
   806   00005B                     	ds	1
   807   00005C                     CCP_PWM_Set_Duty@ccp:
   808                           	callstack 0
   809   00005C                     CCP_PWM_Config@ccp:
   810                           	callstack 0
   811                           
   812                           ; 1 bytes @ 0x5B
   813   00005C                     	ds	1
   814   00005D                     ??_CCP_PWM_Config:
   815   00005D                     CCP_PWM_Set_Duty@val:
   816                           	callstack 0
   817                           
   818                           ; 1 bytes @ 0x5C
   819   00005D                     	ds	1
   820   00005E                     ??_CCP_PWM_Set_Duty:
   821                           
   822                           ; 1 bytes @ 0x5D
   823   00005E                     	ds	1
   824   00005F                     _CCP_PWM_Config$4072:
   825                           	callstack 0
   826                           
   827                           ; 4 bytes @ 0x5E
   828   00005F                     	ds	1
   829   000060                     _CCP_PWM_Set_Duty$4071:
   830                           	callstack 0
   831                           
   832                           ; 4 bytes @ 0x5F
   833   000060                     	ds	3
   834   000063                     _CCP_PWM_Config$4073:
   835                           	callstack 0
   836                           
   837                           ; 4 bytes @ 0x62
   838   000063                     	ds	1
   839   000064                     CCP_PWM_Set_Duty@pwm_period:
   840                           	callstack 0
   841                           
   842                           ; 2 bytes @ 0x63
   843   000064                     	ds	3
   844   000067                     CCP_PWM_Config@ret:
   845                           	callstack 0
   846                           
   847                           ; 1 bytes @ 0x66
   848   000067                     	ds	1
   849   000068                     CCP_Init@ccp:
   850                           	callstack 0
   851                           
   852                           ; 1 bytes @ 0x67
   853   000068                     	ds	1
   854   000069                     
   855                           ; 1 bytes @ 0x68
   856 ;;
   857 ;;Main: autosize = 0, tempsize = 0, incstack = 0, save=0
   858 ;;
   859 ;; *************** function _main *****************
   860 ;; Defined at:
   861 ;;		line 18 in file "application.c"
   862 ;; Parameters:    Size  Location     Type
   863 ;;		None
   864 ;; Auto vars:     Size  Location     Type
   865 ;;		None
   866 ;; Return value:  Size  Location     Type
   867 ;;                  2  1164[None  ] int 
   868 ;; Registers used:
   869 ;;		wreg, fsr2l, fsr2h, status,2, status,0, prodl, prodh, cstack
   870 ;; Tracked objects:
   871 ;;		On entry : 0/0
   872 ;;		On exit  : 0/0
   873 ;;		Unchanged: 0/0
   874 ;; Data sizes:     COMRAM   BANK0   BANK1   BANK2   BANK3   BANK4   BANK5   BANK6   BANK7   BANK8   BANK9  BANK10  BANK1
      +1  BANK12  BANK13  BANK14  BANK15
   875 ;;      Params:         0       0       0       0       0       0       0       0       0       0       0       0       
      +0       0       0       0       0
   876 ;;      Locals:         0       0       0       0       0       0       0       0       0       0       0       0       
      +0       0       0       0       0
   877 ;;      Temps:          0       0       0       0       0       0       0       0       0       0       0       0       
      +0       0       0       0       0
   878 ;;      Totals:         0       0       0       0       0       0       0       0       0       0       0       0       
      +0       0       0       0       0
   879 ;;Total ram usage:        0 bytes
   880 ;; Hardware stack levels required when called: 7
   881 ;; This function calls:
   882 ;;		_CCP_Init
   883 ;;		_CCP_PWM_Set_Duty
   884 ;;		_CCP_PWM_Start
   885 ;;		_TIMER2_INIT
   886 ;;		_application_initialize
   887 ;; This function is called by:
   888 ;;		Startup code after reset
   889 ;; This function uses a non-reentrant model
   890 ;;
   891                           
   892                           	psect	text0
   893   002DDE                     __ptext0:
   894                           	callstack 0
   895   002DDE                     _main:
   896                           	callstack 24
   897   002DDE                     
   898                           ;application.c: 19:     application_initialize();
   899   002DDE  EC4E  F017         	call	_application_initialize	;wreg free
   900   002DE2                     
   901                           ;application.c: 20:     TIMER2_INIT(&timer);
   902   002DE2  0EBD               	movlw	low _timer
   903   002DE4  6E02               	movwf	TIMER2_INIT@timer^0,c
   904   002DE6  ECC0  F015         	call	_TIMER2_INIT	;wreg free
   905   002DEA                     
   906                           ;application.c: 21:     CCP_Init(&ccp);
   907   002DEA  0EAE               	movlw	low _ccp
   908   002DEC  6E68               	movwf	CCP_Init@ccp^0,c
   909   002DEE  EC56  F015         	call	_CCP_Init	;wreg free
   910   002DF2                     
   911                           ;application.c: 22:     CCP_PWM_Set_Duty(&ccp,50);
   912   002DF2  0EAE               	movlw	low _ccp
   913   002DF4  6E5C               	movwf	CCP_PWM_Set_Duty@ccp^0,c
   914   002DF6  0E32               	movlw	50
   915   002DF8  6E5D               	movwf	CCP_PWM_Set_Duty@val^0,c
   916   002DFA  ECB7  F011         	call	_CCP_PWM_Set_Duty	;wreg free
   917   002DFE                     
   918                           ;application.c: 23:     CCP_PWM_Start(&ccp);
   919   002DFE  0EAE               	movlw	low _ccp
   920   002E00  6E02               	movwf	CCP_PWM_Start@ccp^0,c
   921   002E02  EC67  F016         	call	_CCP_PWM_Start	;wreg free
   922   002E06                     l1165:
   923   002E06  EF03  F017         	goto	l1165
   924   002E0A  EF07  F000         	goto	start
   925   002E0E                     __end_of_main:
   926                           	callstack 0
   927                           
   928 ;; *************** function _application_initialize *****************
   929 ;; Defined at:
   930 ;;		line 29 in file "application.c"
   931 ;; Parameters:    Size  Location     Type
   932 ;;		None
   933 ;; Auto vars:     Size  Location     Type
   934 ;;		None
   935 ;; Return value:  Size  Location     Type
   936 ;;                  1    wreg      void 
   937 ;; Registers used:
   938 ;;		wreg, fsr2l, fsr2h, status,2, status,0, prodl, prodh, cstack
   939 ;; Tracked objects:
   940 ;;		On entry : 0/0
   941 ;;		On exit  : 0/0
   942 ;;		Unchanged: 0/0
   943 ;; Data sizes:     COMRAM   BANK0   BANK1   BANK2   BANK3   BANK4   BANK5   BANK6   BANK7   BANK8   BANK9  BANK10  BANK1
      +1  BANK12  BANK13  BANK14  BANK15
   944 ;;      Params:         0       0       0       0       0       0       0       0       0       0       0       0       
      +0       0       0       0       0
   945 ;;      Locals:         0       0       0       0       0       0       0       0       0       0       0       0       
      +0       0       0       0       0
   946 ;;      Temps:          0       0       0       0       0       0       0       0       0       0       0       0       
      +0       0       0       0       0
   947 ;;      Totals:         0       0       0       0       0       0       0       0       0       0       0       0       
      +0       0       0       0       0
   948 ;;Total ram usage:        0 bytes
   949 ;; Hardware stack levels used: 1
   950 ;; Hardware stack levels required when called: 6
   951 ;; This function calls:
   952 ;;		_Ecu_initialize
   953 ;; This function is called by:
   954 ;;		_main
   955 ;; This function uses a non-reentrant model
   956 ;;
   957                           
   958                           	psect	text1
   959   002E9C                     __ptext1:
   960                           	callstack 0
   961   002E9C                     _application_initialize:
   962                           	callstack 24
   963   002E9C                     
   964                           ;application.c: 30:     ret = Ecu_initialize();
   965   002E9C  EC53  F017         	call	_Ecu_initialize	;wreg free
   966   002EA0  0100               	movlb	0	; () banked
   967   002EA2  6FE4               	movwf	_ret& (0+255),b
   968   002EA4                     
   969                           ; BSR set to: 0
   970   002EA4  0012               	return		;funcret
   971   002EA6                     __end_of_application_initialize:
   972                           	callstack 0
   973                           
   974 ;; *************** function _Ecu_initialize *****************
   975 ;; Defined at:
   976 ;;		line 42 in file "ECU_Layer/ECU_LAYER.c"
   977 ;; Parameters:    Size  Location     Type
   978 ;;		None
   979 ;; Auto vars:     Size  Location     Type
   980 ;;		None
   981 ;; Return value:  Size  Location     Type
   982 ;;                  1    wreg      unsigned char 
   983 ;; Registers used:
   984 ;;		wreg, fsr2l, fsr2h, status,2, status,0, prodl, prodh, cstack
   985 ;; Tracked objects:
   986 ;;		On entry : 0/0
   987 ;;		On exit  : 0/0
   988 ;;		Unchanged: 0/0
   989 ;; Data sizes:     COMRAM   BANK0   BANK1   BANK2   BANK3   BANK4   BANK5   BANK6   BANK7   BANK8   BANK9  BANK10  BANK1
      +1  BANK12  BANK13  BANK14  BANK15
   990 ;;      Params:         0       0       0       0       0       0       0       0       0       0       0       0       
      +0       0       0       0       0
   991 ;;      Locals:         0       0       0       0       0       0       0       0       0       0       0       0       
      +0       0       0       0       0
   992 ;;      Temps:          0       0       0       0       0       0       0       0       0       0       0       0       
      +0       0       0       0       0
   993 ;;      Totals:         0       0       0       0       0       0       0       0       0       0       0       0       
      +0       0       0       0       0
   994 ;;Total ram usage:        0 bytes
   995 ;; Hardware stack levels used: 1
   996 ;; Hardware stack levels required when called: 5
   997 ;; This function calls:
   998 ;;		_led_initialize
   999 ;; This function is called by:
  1000 ;;		_application_initialize
  1001 ;; This function uses a non-reentrant model
  1002 ;;
  1003                           
  1004                           	psect	text2
  1005   002EA6                     __ptext2:
  1006                           	callstack 0
  1007   002EA6                     _Ecu_initialize:
  1008                           	callstack 24
  1009   002EA6                     
  1010                           ;ECU_Layer/ECU_LAYER.c: 44:     led_initialize(&led1);
  1011   002EA6  0E7D               	movlw	low _led1
  1012   002EA8  6E0C               	movwf	led_initialize@led^0,c
  1013   002EAA  EC01  F016         	call	_led_initialize	;wreg free
  1014   002EAE  0012               	return		;funcret
  1015   002EB0                     __end_of_Ecu_initialize:
  1016                           	callstack 0
  1017                           
  1018 ;; *************** function _led_initialize *****************
  1019 ;; Defined at:
  1020 ;;		line 13 in file "ECU_Layer/LED/ecu_led.c"
  1021 ;; Parameters:    Size  Location     Type
  1022 ;;  led             1   11[COMRAM] PTR const struct .
  1023 ;;		 -> led1(1), 
  1024 ;; Auto vars:     Size  Location     Type
  1025 ;;  pin_obj         1   13[COMRAM] struct .
  1026 ;;  ret             1    0        unsigned char 
  1027 ;; Return value:  Size  Location     Type
  1028 ;;                  1    wreg      unsigned char 
  1029 ;; Registers used:
  1030 ;;		wreg, fsr2l, fsr2h, status,2, status,0, prodl, prodh, cstack
  1031 ;; Tracked objects:
  1032 ;;		On entry : 0/0
  1033 ;;		On exit  : 0/0
  1034 ;;		Unchanged: 0/0
  1035 ;; Data sizes:     COMRAM   BANK0   BANK1   BANK2   BANK3   BANK4   BANK5   BANK6   BANK7   BANK8   BANK9  BANK10  BANK1
      +1  BANK12  BANK13  BANK14  BANK15
  1036 ;;      Params:         1       0       0       0       0       0       0       0       0       0       0       0       
      +0       0       0       0       0
  1037 ;;      Locals:         1       0       0       0       0       0       0       0       0       0       0       0       
      +0       0       0       0       0
  1038 ;;      Temps:          1       0       0       0       0       0       0       0       0       0       0       0       
      +0       0       0       0       0
  1039 ;;      Totals:         3       0       0       0       0       0       0       0       0       0       0       0       
      +0       0       0       0       0
  1040 ;;Total ram usage:        3 bytes
  1041 ;; Hardware stack levels used: 1
  1042 ;; Hardware stack levels required when called: 4
  1043 ;; This function calls:
  1044 ;;		_gpio_pin_initialize
  1045 ;; This function is called by:
  1046 ;;		_Ecu_initialize
  1047 ;; This function uses a non-reentrant model
  1048 ;;
  1049                           
  1050                           	psect	text3
  1051   002C02                     __ptext3:
  1052                           	callstack 0
  1053   002C02                     _led_initialize:
  1054                           	callstack 24
  1055   002C02                     
  1056                           ;ECU_Layer/LED/ecu_led.c: 15:     if(led == ((void*)0)){
  1057   002C02  500C               	movf	led_initialize@led^0,w,c
  1058   002C04  A4D8               	btfss	status,2,c
  1059   002C06  EF07  F016         	goto	u3541
  1060   002C0A  EF09  F016         	goto	u3540
  1061   002C0E                     u3541:
  1062   002C0E  EF0B  F016         	goto	l245
  1063   002C12                     u3540:
  1064   002C12                     
  1065                           ;ECU_Layer/LED/ecu_led.c: 17:     }
  1066   002C12  EF35  F016         	goto	l249
  1067   002C16                     l245:
  1068                           
  1069                           ;ECU_Layer/LED/ecu_led.c: 19:         pin_config_t pin_obj = {.port = led->port_name, .p
      +                          in = led->pin_name,
  1070   002C16  C077  F00E         	movff	led_initialize@F3062,led_initialize@pin_obj
  1071   002C1A  500C               	movf	led_initialize@led^0,w,c
  1072   002C1C  6ED9               	movwf	fsr2l,c
  1073   002C1E  6ADA               	clrf	fsr2h,c
  1074   002C20  50DF               	movf	223,w,c
  1075   002C22  0B07               	andlw	7
  1076   002C24  6E0D               	movwf	??_led_initialize^0,c
  1077   002C26  500E               	movf	led_initialize@pin_obj^0,w,c
  1078   002C28  180D               	xorwf	??_led_initialize^0,w,c
  1079   002C2A  0BF8               	andlw	-8
  1080   002C2C  180D               	xorwf	??_led_initialize^0,w,c
  1081   002C2E  6E0E               	movwf	led_initialize@pin_obj^0,c
  1082   002C30  500C               	movf	led_initialize@led^0,w,c
  1083   002C32  6ED9               	movwf	fsr2l,c
  1084   002C34  6ADA               	clrf	fsr2h,c
  1085   002C36  30DF               	rrcf	223,w,c
  1086   002C38  32E8               	rrcf	wreg,f,c
  1087   002C3A  32E8               	rrcf	wreg,f,c
  1088   002C3C  0B07               	andlw	7
  1089   002C3E  6E0D               	movwf	??_led_initialize^0,c
  1090   002C40  460D               	rlncf	??_led_initialize^0,f,c
  1091   002C42  460D               	rlncf	??_led_initialize^0,f,c
  1092   002C44  460D               	rlncf	??_led_initialize^0,f,c
  1093   002C46  500E               	movf	led_initialize@pin_obj^0,w,c
  1094   002C48  180D               	xorwf	??_led_initialize^0,w,c
  1095   002C4A  0BC7               	andlw	-57
  1096   002C4C  180D               	xorwf	??_led_initialize^0,w,c
  1097   002C4E  6E0E               	movwf	led_initialize@pin_obj^0,c
  1098   002C50  9C0E               	bcf	led_initialize@pin_obj^0,6,c
  1099   002C52  500C               	movf	led_initialize@led^0,w,c
  1100   002C54  6ED9               	movwf	fsr2l,c
  1101   002C56  6ADA               	clrf	fsr2h,c
  1102   002C58  ACDF               	btfss	indf2,6,c
  1103   002C5A  D002               	bra	u3555
  1104   002C5C  8E0E               	bsf	led_initialize@pin_obj^0,7,c
  1105   002C5E  D001               	bra	u3557
  1106   002C60                     u3555:
  1107   002C60  9E0E               	bcf	led_initialize@pin_obj^0,7,c
  1108   002C62                     u3557:
  1109   002C62                     
  1110                           ;ECU_Layer/LED/ecu_led.c: 21:         gpio_pin_initialize(&pin_obj);
  1111   002C62  0E0E               	movlw	low led_initialize@pin_obj
  1112   002C64  6E0A               	movwf	gpio_pin_initialize@_pin_config^0,c
  1113   002C66  ECB5  F016         	call	_gpio_pin_initialize	;wreg free
  1114   002C6A                     l249:
  1115   002C6A  0012               	return		;funcret
  1116   002C6C                     __end_of_led_initialize:
  1117                           	callstack 0
  1118                           
  1119 ;; *************** function _TIMER2_INIT *****************
  1120 ;; Defined at:
  1121 ;;		line 13 in file "MCAL_Layer/TIMERS/TIMER2/hal_timer2.c"
  1122 ;; Parameters:    Size  Location     Type
  1123 ;;  timer           1    1[COMRAM] PTR const struct .
  1124 ;;		 -> timer(5), 
  1125 ;; Auto vars:     Size  Location     Type
  1126 ;;  ret             1    0        unsigned char 
  1127 ;; Return value:  Size  Location     Type
  1128 ;;                  1    wreg      unsigned char 
  1129 ;; Registers used:
  1130 ;;		wreg, fsr2l, fsr2h, status,2, status,0
  1131 ;; Tracked objects:
  1132 ;;		On entry : 0/0
  1133 ;;		On exit  : 0/0
  1134 ;;		Unchanged: 0/0
  1135 ;; Data sizes:     COMRAM   BANK0   BANK1   BANK2   BANK3   BANK4   BANK5   BANK6   BANK7   BANK8   BANK9  BANK10  BANK1
      +1  BANK12  BANK13  BANK14  BANK15
  1136 ;;      Params:         1       0       0       0       0       0       0       0       0       0       0       0       
      +0       0       0       0       0
  1137 ;;      Locals:         0       0       0       0       0       0       0       0       0       0       0       0       
      +0       0       0       0       0
  1138 ;;      Temps:          1       0       0       0       0       0       0       0       0       0       0       0       
      +0       0       0       0       0
  1139 ;;      Totals:         2       0       0       0       0       0       0       0       0       0       0       0       
      +0       0       0       0       0
  1140 ;;Total ram usage:        2 bytes
  1141 ;; Hardware stack levels used: 1
  1142 ;; Hardware stack levels required when called: 2
  1143 ;; This function calls:
  1144 ;;		Nothing
  1145 ;; This function is called by:
  1146 ;;		_main
  1147 ;; This function uses a non-reentrant model
  1148 ;;
  1149                           
  1150                           	psect	text4
  1151   002B80                     __ptext4:
  1152                           	callstack 0
  1153   002B80                     _TIMER2_INIT:
  1154                           	callstack 28
  1155   002B80                     
  1156                           ;MCAL_Layer/TIMERS/TIMER2/hal_timer2.c: 15:     if(timer == ((void*)0)){
  1157   002B80  5002               	movf	TIMER2_INIT@timer^0,w,c
  1158   002B82  A4D8               	btfss	status,2,c
  1159   002B84  EFC6  F015         	goto	u4941
  1160   002B88  EFC8  F015         	goto	u4940
  1161   002B8C                     u4941:
  1162   002B8C  EFCA  F015         	goto	l1033
  1163   002B90                     u4940:
  1164   002B90                     
  1165                           ;MCAL_Layer/TIMERS/TIMER2/hal_timer2.c: 17:     }
  1166   002B90  EF00  F016         	goto	l1035
  1167   002B94                     l1033:
  1168                           
  1169                           ;MCAL_Layer/TIMERS/TIMER2/hal_timer2.c: 19:         (T2CONbits.TMR2ON = 0);
  1170   002B94  94CA               	bcf	202,2,c	;volatile
  1171   002B96                     
  1172                           ;MCAL_Layer/TIMERS/TIMER2/hal_timer2.c: 20:         (T2CONbits.T2CKPS = timer->prescaler
      +                          _val);
  1173   002B96  5002               	movf	TIMER2_INIT@timer^0,w,c
  1174   002B98  6ED9               	movwf	fsr2l,c
  1175   002B9A  6ADA               	clrf	fsr2h,c
  1176   002B9C  0E03               	movlw	3
  1177   002B9E  26D9               	addwf	fsr2l,f,c
  1178   002BA0  50DF               	movf	indf2,w,c
  1179   002BA2  6E03               	movwf	??_TIMER2_INIT^0,c
  1180   002BA4  50CA               	movf	202,w,c	;volatile
  1181   002BA6  1803               	xorwf	??_TIMER2_INIT^0,w,c
  1182   002BA8  0BFC               	andlw	-4
  1183   002BAA  1803               	xorwf	??_TIMER2_INIT^0,w,c
  1184   002BAC  6ECA               	movwf	202,c	;volatile
  1185                           
  1186                           ;MCAL_Layer/TIMERS/TIMER2/hal_timer2.c: 21:         (T2CONbits.TOUTPS = timer->postscale
      +                          _val);
  1187   002BAE  5002               	movf	TIMER2_INIT@timer^0,w,c
  1188   002BB0  6ED9               	movwf	fsr2l,c
  1189   002BB2  6ADA               	clrf	fsr2h,c
  1190   002BB4  0E04               	movlw	4
  1191   002BB6  26D9               	addwf	fsr2l,f,c
  1192   002BB8  50DF               	movf	indf2,w,c
  1193   002BBA  6E03               	movwf	??_TIMER2_INIT^0,c
  1194   002BBC  4603               	rlncf	??_TIMER2_INIT^0,f,c
  1195   002BBE  4603               	rlncf	??_TIMER2_INIT^0,f,c
  1196   002BC0  4603               	rlncf	??_TIMER2_INIT^0,f,c
  1197   002BC2  50CA               	movf	202,w,c	;volatile
  1198   002BC4  1803               	xorwf	??_TIMER2_INIT^0,w,c
  1199   002BC6  0B87               	andlw	-121
  1200   002BC8  1803               	xorwf	??_TIMER2_INIT^0,w,c
  1201   002BCA  6ECA               	movwf	202,c	;volatile
  1202                           
  1203                           ;MCAL_Layer/TIMERS/TIMER2/hal_timer2.c: 22:         TMR2 = timer->prevalue;
  1204   002BCC  5002               	movf	TIMER2_INIT@timer^0,w,c
  1205   002BCE  6ED9               	movwf	fsr2l,c
  1206   002BD0  6ADA               	clrf	fsr2h,c
  1207   002BD2  0E02               	movlw	2
  1208   002BD4  26D9               	addwf	fsr2l,f,c
  1209   002BD6  50DF               	movf	indf2,w,c
  1210   002BD8  6ECC               	movwf	204,c	;volatile
  1211   002BDA                     
  1212                           ;MCAL_Layer/TIMERS/TIMER2/hal_timer2.c: 23:         TMR2_HANDLER = timer->TIMER2_HANDLER
      +                          ;
  1213   002BDA  5002               	movf	TIMER2_INIT@timer^0,w,c
  1214   002BDC  6ED9               	movwf	fsr2l,c
  1215   002BDE  6ADA               	clrf	fsr2h,c
  1216   002BE0  CFDE F0C8          	movff	postinc2,_TMR2_HANDLER
  1217   002BE4  CFDD F0C9          	movff	postdec2,_TMR2_HANDLER+1
  1218   002BE8                     
  1219                           ;MCAL_Layer/TIMERS/TIMER2/hal_timer2.c: 24:         preval = timer->prevalue;
  1220   002BE8  5002               	movf	TIMER2_INIT@timer^0,w,c
  1221   002BEA  6ED9               	movwf	fsr2l,c
  1222   002BEC  6ADA               	clrf	fsr2h,c
  1223   002BEE  0E02               	movlw	2
  1224   002BF0  26D9               	addwf	fsr2l,f,c
  1225   002BF2  50DF               	movf	indf2,w,c
  1226   002BF4  6E70               	movwf	_preval@hal_timer2$F2436^0,c
  1227   002BF6                     
  1228                           ;MCAL_Layer/TIMERS/TIMER2/hal_timer2.c: 38:     (INTCONbits.GIEH = 1);
  1229   002BF6  8EF2               	bsf	242,7,c	;volatile
  1230   002BF8                     
  1231                           ;MCAL_Layer/TIMERS/TIMER2/hal_timer2.c: 39:     (INTCONbits.PEIE = 1);
  1232   002BF8  8CF2               	bsf	242,6,c	;volatile
  1233   002BFA                     
  1234                           ;MCAL_Layer/TIMERS/TIMER2/hal_timer2.c: 40:     (PIE1bits.TMR2IE = 1);
  1235   002BFA  829D               	bsf	157,1,c	;volatile
  1236   002BFC                     
  1237                           ;MCAL_Layer/TIMERS/TIMER2/hal_timer2.c: 41:     (PIR1bits.TMR2IF = 0);
  1238   002BFC  929E               	bcf	158,1,c	;volatile
  1239   002BFE                     
  1240                           ;MCAL_Layer/TIMERS/TIMER2/hal_timer2.c: 43:     (T2CONbits.TMR2ON = 1);
  1241   002BFE  84CA               	bsf	202,2,c	;volatile
  1242   002C00                     l1035:
  1243   002C00  0012               	return		;funcret
  1244   002C02                     __end_of_TIMER2_INIT:
  1245                           	callstack 0
  1246                           
  1247 ;; *************** function _CCP_PWM_Start *****************
  1248 ;; Defined at:
  1249 ;;		line 162 in file "MCAL_Layer/CCP/hal_cpp.c"
  1250 ;; Parameters:    Size  Location     Type
  1251 ;;  ccp             1    1[COMRAM] PTR const struct .
  1252 ;;		 -> ccp(15), 
  1253 ;; Auto vars:     Size  Location     Type
  1254 ;;  ret             1    0        unsigned char 
  1255 ;; Return value:  Size  Location     Type
  1256 ;;                  1    wreg      unsigned char 
  1257 ;; Registers used:
  1258 ;;		wreg, fsr2l, fsr2h, status,2, status,0
  1259 ;; Tracked objects:
  1260 ;;		On entry : 0/0
  1261 ;;		On exit  : 0/0
  1262 ;;		Unchanged: 0/0
  1263 ;; Data sizes:     COMRAM   BANK0   BANK1   BANK2   BANK3   BANK4   BANK5   BANK6   BANK7   BANK8   BANK9  BANK10  BANK1
      +1  BANK12  BANK13  BANK14  BANK15
  1264 ;;      Params:         1       0       0       0       0       0       0       0       0       0       0       0       
      +0       0       0       0       0
  1265 ;;      Locals:         0       0       0       0       0       0       0       0       0       0       0       0       
      +0       0       0       0       0
  1266 ;;      Temps:          1       0       0       0       0       0       0       0       0       0       0       0       
      +0       0       0       0       0
  1267 ;;      Totals:         2       0       0       0       0       0       0       0       0       0       0       0       
      +0       0       0       0       0
  1268 ;;Total ram usage:        2 bytes
  1269 ;; Hardware stack levels used: 1
  1270 ;; Hardware stack levels required when called: 2
  1271 ;; This function calls:
  1272 ;;		Nothing
  1273 ;; This function is called by:
  1274 ;;		_main
  1275 ;; This function uses a non-reentrant model
  1276 ;;
  1277                           
  1278                           	psect	text5
  1279   002CCE                     __ptext5:
  1280                           	callstack 0
  1281   002CCE                     _CCP_PWM_Start:
  1282                           	callstack 28
  1283   002CCE                     
  1284                           ;MCAL_Layer/CCP/hal_cpp.c: 164:     if(ccp == ((void*)0)){
  1285   002CCE  5002               	movf	CCP_PWM_Start@ccp^0,w,c
  1286   002CD0  A4D8               	btfss	status,2,c
  1287   002CD2  EF6D  F016         	goto	u5041
  1288   002CD6  EF6F  F016         	goto	u5040
  1289   002CDA                     u5041:
  1290   002CDA  EF71  F016         	goto	l5823
  1291   002CDE                     u5040:
  1292   002CDE                     
  1293                           ;MCAL_Layer/CCP/hal_cpp.c: 166:     }
  1294   002CDE  EF93  F016         	goto	l1249
  1295   002CE2                     l5823:
  1296                           
  1297                           ;MCAL_Layer/CCP/hal_cpp.c: 168:         if(ccp->ccpx == CCP1_INST){
  1298   002CE2  5002               	movf	CCP_PWM_Start@ccp^0,w,c
  1299   002CE4  6ED9               	movwf	fsr2l,c
  1300   002CE6  6ADA               	clrf	fsr2h,c
  1301   002CE8  50DF               	movf	indf2,w,c
  1302   002CEA  A4D8               	btfss	status,2,c
  1303   002CEC  EF7A  F016         	goto	u5051
  1304   002CF0  EF7C  F016         	goto	u5050
  1305   002CF4                     u5051:
  1306   002CF4  EF82  F016         	goto	l5827
  1307   002CF8                     u5050:
  1308   002CF8                     
  1309                           ;MCAL_Layer/CCP/hal_cpp.c: 169:         CCP1CONbits.CCP1M = ((uint8)0x0C);
  1310   002CF8  50BD               	movf	189,w,c	;volatile
  1311   002CFA  0BF0               	andlw	-16
  1312   002CFC  090C               	iorlw	12
  1313   002CFE  6EBD               	movwf	189,c	;volatile
  1314                           
  1315                           ;MCAL_Layer/CCP/hal_cpp.c: 170:         }
  1316   002D00  EF93  F016         	goto	l1249
  1317   002D04                     l5827:
  1318   002D04  5002               	movf	CCP_PWM_Start@ccp^0,w,c
  1319   002D06  6ED9               	movwf	fsr2l,c
  1320   002D08  6ADA               	clrf	fsr2h,c
  1321   002D0A  04DE               	decf	postinc2,w,c
  1322   002D0C  A4D8               	btfss	status,2,c
  1323   002D0E  EF8B  F016         	goto	u5061
  1324   002D12  EF8D  F016         	goto	u5060
  1325   002D16                     u5061:
  1326   002D16  EF93  F016         	goto	l1246
  1327   002D1A                     u5060:
  1328   002D1A                     
  1329                           ;MCAL_Layer/CCP/hal_cpp.c: 172:          CCP2CONbits.CCP2M = ((uint8)0x0C);
  1330   002D1A  50BA               	movf	186,w,c	;volatile
  1331   002D1C  0BF0               	andlw	-16
  1332   002D1E  090C               	iorlw	12
  1333   002D20  6EBA               	movwf	186,c	;volatile
  1334                           
  1335                           ;MCAL_Layer/CCP/hal_cpp.c: 173:         }
  1336   002D22  EF93  F016         	goto	l1249
  1337   002D26                     l1246:
  1338   002D26                     l1249:
  1339   002D26  0012               	return		;funcret
  1340   002D28                     __end_of_CCP_PWM_Start:
  1341                           	callstack 0
  1342                           
  1343 ;; *************** function _CCP_PWM_Set_Duty *****************
  1344 ;; Defined at:
  1345 ;;		line 143 in file "MCAL_Layer/CCP/hal_cpp.c"
  1346 ;; Parameters:    Size  Location     Type
  1347 ;;  ccp             1   91[COMRAM] PTR const struct .
  1348 ;;		 -> ccp(15), 
  1349 ;;  val             1   92[COMRAM] unsigned char 
  1350 ;; Auto vars:     Size  Location     Type
  1351 ;;  pwm_period      2   99[COMRAM] unsigned short 
  1352 ;;  ret             1    0        unsigned char 
  1353 ;; Return value:  Size  Location     Type
  1354 ;;                  1    wreg      unsigned char 
  1355 ;; Registers used:
  1356 ;;		wreg, fsr2l, fsr2h, status,2, status,0, prodl, prodh, cstack
  1357 ;; Tracked objects:
  1358 ;;		On entry : 0/0
  1359 ;;		On exit  : 0/0
  1360 ;;		Unchanged: 0/0
  1361 ;; Data sizes:     COMRAM   BANK0   BANK1   BANK2   BANK3   BANK4   BANK5   BANK6   BANK7   BANK8   BANK9  BANK10  BANK1
      +1  BANK12  BANK13  BANK14  BANK15
  1362 ;;      Params:         2       0       0       0       0       0       0       0       0       0       0       0       
      +0       0       0       0       0
  1363 ;;      Locals:         6       0       0       0       0       0       0       0       0       0       0       0       
      +0       0       0       0       0
  1364 ;;      Temps:          2       0       0       0       0       0       0       0       0       0       0       0       
      +0       0       0       0       0
  1365 ;;      Totals:        10       0       0       0       0       0       0       0       0       0       0       0       
      +0       0       0       0       0
  1366 ;;Total ram usage:       10 bytes
  1367 ;; Hardware stack levels used: 1
  1368 ;; Hardware stack levels required when called: 3
  1369 ;; This function calls:
  1370 ;;		___fladd
  1371 ;;		___fldiv
  1372 ;;		___flmul
  1373 ;;		___fltol
  1374 ;;		___xxtofl
  1375 ;; This function is called by:
  1376 ;;		_main
  1377 ;; This function uses a non-reentrant model
  1378 ;;
  1379                           
  1380                           	psect	text6
  1381   00236E                     __ptext6:
  1382                           	callstack 0
  1383   00236E                     _CCP_PWM_Set_Duty:
  1384                           	callstack 27
  1385   00236E                     
  1386                           ;MCAL_Layer/CCP/hal_cpp.c: 145:     if(ccp == ((void*)0)){
  1387   00236E  505C               	movf	CCP_PWM_Set_Duty@ccp^0,w,c
  1388   002370  A4D8               	btfss	status,2,c
  1389   002372  EFBD  F011         	goto	u5011
  1390   002376  EFBF  F011         	goto	u5010
  1391   00237A                     u5011:
  1392   00237A  EFC1  F011         	goto	l5809
  1393   00237E                     u5010:
  1394   00237E                     
  1395                           ;MCAL_Layer/CCP/hal_cpp.c: 147:     }
  1396   00237E  EF75  F012         	goto	l1240
  1397   002382                     l5809:
  1398                           
  1399                           ;MCAL_Layer/CCP/hal_cpp.c: 149:         uint16 pwm_period = (uint16)((float)4 *((float)P
      +                          R2 + 1.0) * ((float)val / 100.0));
  1400   002382  0E00               	movlw	0
  1401   002384  6E3D               	movwf	___flmul@a^0,c
  1402   002386  0E00               	movlw	0
  1403   002388  6E3E               	movwf	(___flmul@a+1)^0,c
  1404   00238A  0E80               	movlw	128
  1405   00238C  6E3F               	movwf	(___flmul@a+2)^0,c
  1406   00238E  0E40               	movlw	64
  1407   002390  6E40               	movwf	(___flmul@a+3)^0,c
  1408   002392  0E00               	movlw	0
  1409   002394  6E2D               	movwf	___fladd@a^0,c
  1410   002396  0E00               	movlw	0
  1411   002398  6E2E               	movwf	(___fladd@a+1)^0,c
  1412   00239A  0E80               	movlw	128
  1413   00239C  6E2F               	movwf	(___fladd@a+2)^0,c
  1414   00239E  0E3F               	movlw	63
  1415   0023A0  6E30               	movwf	(___fladd@a+3)^0,c
  1416   0023A2  50CB               	movf	203,w,c	;volatile
  1417   0023A4  6E02               	movwf	___xxtofl@val^0,c
  1418   0023A6  6A03               	clrf	(___xxtofl@val+1)^0,c
  1419   0023A8  6A04               	clrf	(___xxtofl@val+2)^0,c
  1420   0023AA  6A05               	clrf	(___xxtofl@val+3)^0,c
  1421   0023AC  0E00               	movlw	0
  1422   0023AE  EC05  F010         	call	___xxtofl
  1423   0023B2  C002  F029         	movff	?___xxtofl,___fladd@b
  1424   0023B6  C003  F02A         	movff	?___xxtofl+1,___fladd@b+1
  1425   0023BA  C004  F02B         	movff	?___xxtofl+2,___fladd@b+2
  1426   0023BE  C005  F02C         	movff	?___xxtofl+3,___fladd@b+3
  1427   0023C2  EC20  F008         	call	___fladd	;wreg free
  1428   0023C6  C029  F039         	movff	?___fladd,___flmul@b
  1429   0023CA  C02A  F03A         	movff	?___fladd+1,___flmul@b+1
  1430   0023CE  C02B  F03B         	movff	?___fladd+2,___flmul@b+2
  1431   0023D2  C02C  F03C         	movff	?___fladd+3,___flmul@b+3
  1432   0023D6  EC80  F00A         	call	___flmul	;wreg free
  1433   0023DA  C039  F060         	movff	?___flmul,_CCP_PWM_Set_Duty$4071
  1434   0023DE  C03A  F061         	movff	?___flmul+1,_CCP_PWM_Set_Duty$4071+1
  1435   0023E2  C03B  F062         	movff	?___flmul+2,_CCP_PWM_Set_Duty$4071+2
  1436   0023E6  C03C  F063         	movff	?___flmul+3,_CCP_PWM_Set_Duty$4071+3
  1437                           
  1438                           ;MCAL_Layer/CCP/hal_cpp.c: 149:         uint16 pwm_period = (uint16)((float)4 *((float)P
      +                          R2 + 1.0) * ((float)val / 100.0));
  1439   0023EA  0E00               	movlw	0
  1440   0023EC  6E14               	movwf	___fldiv@a^0,c
  1441   0023EE  0E00               	movlw	0
  1442   0023F0  6E15               	movwf	(___fldiv@a+1)^0,c
  1443   0023F2  0EC8               	movlw	200
  1444   0023F4  6E16               	movwf	(___fldiv@a+2)^0,c
  1445   0023F6  0E42               	movlw	66
  1446   0023F8  6E17               	movwf	(___fldiv@a+3)^0,c
  1447   0023FA  505D               	movf	CCP_PWM_Set_Duty@val^0,w,c
  1448   0023FC  6E02               	movwf	___xxtofl@val^0,c
  1449   0023FE  6A03               	clrf	(___xxtofl@val+1)^0,c
  1450   002400  6A04               	clrf	(___xxtofl@val+2)^0,c
  1451   002402  6A05               	clrf	(___xxtofl@val+3)^0,c
  1452   002404  0E00               	movlw	0
  1453   002406  EC05  F010         	call	___xxtofl
  1454   00240A  C002  F010         	movff	?___xxtofl,___fldiv@b
  1455   00240E  C003  F011         	movff	?___xxtofl+1,___fldiv@b+1
  1456   002412  C004  F012         	movff	?___xxtofl+2,___fldiv@b+2
  1457   002416  C005  F013         	movff	?___xxtofl+3,___fldiv@b+3
  1458   00241A  EC95  F00C         	call	___fldiv	;wreg free
  1459   00241E  C010  F03D         	movff	?___fldiv,___flmul@a
  1460   002422  C011  F03E         	movff	?___fldiv+1,___flmul@a+1
  1461   002426  C012  F03F         	movff	?___fldiv+2,___flmul@a+2
  1462   00242A  C013  F040         	movff	?___fldiv+3,___flmul@a+3
  1463   00242E  C060  F039         	movff	_CCP_PWM_Set_Duty$4071,___flmul@b
  1464   002432  C061  F03A         	movff	_CCP_PWM_Set_Duty$4071+1,___flmul@b+1
  1465   002436  C062  F03B         	movff	_CCP_PWM_Set_Duty$4071+2,___flmul@b+2
  1466   00243A  C063  F03C         	movff	_CCP_PWM_Set_Duty$4071+3,___flmul@b+3
  1467   00243E  EC80  F00A         	call	___flmul	;wreg free
  1468   002442  C039  F052         	movff	?___flmul,___fltol@f1
  1469   002446  C03A  F053         	movff	?___flmul+1,___fltol@f1+1
  1470   00244A  C03B  F054         	movff	?___flmul+2,___fltol@f1+2
  1471   00244E  C03C  F055         	movff	?___flmul+3,___fltol@f1+3
  1472   002452  EC5B  F014         	call	___fltol	;wreg free
  1473   002456  C052  F064         	movff	?___fltol,CCP_PWM_Set_Duty@pwm_period
  1474   00245A  C053  F065         	movff	?___fltol+1,CCP_PWM_Set_Duty@pwm_period+1
  1475   00245E                     
  1476                           ;MCAL_Layer/CCP/hal_cpp.c: 150:         if(ccp->ccpx == CCP1_INST){
  1477   00245E  505C               	movf	CCP_PWM_Set_Duty@ccp^0,w,c
  1478   002460  6ED9               	movwf	fsr2l,c
  1479   002462  6ADA               	clrf	fsr2h,c
  1480   002464  50DF               	movf	indf2,w,c
  1481   002466  A4D8               	btfss	status,2,c
  1482   002468  EF38  F012         	goto	u5021
  1483   00246C  EF3A  F012         	goto	u5020
  1484   002470                     u5021:
  1485   002470  EF52  F012         	goto	l5815
  1486   002474                     u5020:
  1487   002474                     
  1488                           ;MCAL_Layer/CCP/hal_cpp.c: 151:         CCP1CONbits.DC1B = (uint8)(pwm_period & 0x0003);
  1489   002474  C064  F05E         	movff	CCP_PWM_Set_Duty@pwm_period,??_CCP_PWM_Set_Duty
  1490   002478  0E03               	movlw	3
  1491   00247A  165E               	andwf	??_CCP_PWM_Set_Duty^0,f,c
  1492   00247C  3A5E               	swapf	??_CCP_PWM_Set_Duty^0,f,c
  1493   00247E  50BD               	movf	189,w,c	;volatile
  1494   002480  185E               	xorwf	??_CCP_PWM_Set_Duty^0,w,c
  1495   002482  0BCF               	andlw	-49
  1496   002484  185E               	xorwf	??_CCP_PWM_Set_Duty^0,w,c
  1497   002486  6EBD               	movwf	189,c	;volatile
  1498                           
  1499                           ;MCAL_Layer/CCP/hal_cpp.c: 152:         CCPR1L = (uint8)(pwm_period >> 2);
  1500   002488  C064  F05E         	movff	CCP_PWM_Set_Duty@pwm_period,??_CCP_PWM_Set_Duty
  1501   00248C  C065  F05F         	movff	CCP_PWM_Set_Duty@pwm_period+1,??_CCP_PWM_Set_Duty+1
  1502   002490  90D8               	bcf	status,0,c
  1503   002492  325F               	rrcf	(??_CCP_PWM_Set_Duty+1)^0,f,c
  1504   002494  325E               	rrcf	??_CCP_PWM_Set_Duty^0,f,c
  1505   002496  90D8               	bcf	status,0,c
  1506   002498  325F               	rrcf	(??_CCP_PWM_Set_Duty+1)^0,f,c
  1507   00249A  325E               	rrcf	??_CCP_PWM_Set_Duty^0,f,c
  1508   00249C  505E               	movf	??_CCP_PWM_Set_Duty^0,w,c
  1509   00249E  6EBE               	movwf	190,c	;volatile
  1510                           
  1511                           ;MCAL_Layer/CCP/hal_cpp.c: 153:         }
  1512   0024A0  EF75  F012         	goto	l1240
  1513   0024A4                     l5815:
  1514   0024A4  505C               	movf	CCP_PWM_Set_Duty@ccp^0,w,c
  1515   0024A6  6ED9               	movwf	fsr2l,c
  1516   0024A8  6ADA               	clrf	fsr2h,c
  1517   0024AA  04DE               	decf	postinc2,w,c
  1518   0024AC  A4D8               	btfss	status,2,c
  1519   0024AE  EF5B  F012         	goto	u5031
  1520   0024B2  EF5D  F012         	goto	u5030
  1521   0024B6                     u5031:
  1522   0024B6  EF75  F012         	goto	l1237
  1523   0024BA                     u5030:
  1524   0024BA                     
  1525                           ;MCAL_Layer/CCP/hal_cpp.c: 155:             CCP2CONbits.DC2B = (uint8)(pwm_period & 0x00
      +                          03);
  1526   0024BA  C064  F05E         	movff	CCP_PWM_Set_Duty@pwm_period,??_CCP_PWM_Set_Duty
  1527   0024BE  0E03               	movlw	3
  1528   0024C0  165E               	andwf	??_CCP_PWM_Set_Duty^0,f,c
  1529   0024C2  3A5E               	swapf	??_CCP_PWM_Set_Duty^0,f,c
  1530   0024C4  50BA               	movf	186,w,c	;volatile
  1531   0024C6  185E               	xorwf	??_CCP_PWM_Set_Duty^0,w,c
  1532   0024C8  0BCF               	andlw	-49
  1533   0024CA  185E               	xorwf	??_CCP_PWM_Set_Duty^0,w,c
  1534   0024CC  6EBA               	movwf	186,c	;volatile
  1535                           
  1536                           ;MCAL_Layer/CCP/hal_cpp.c: 156:         CCPR2L = (uint8)(pwm_period >> 2);
  1537   0024CE  C064  F05E         	movff	CCP_PWM_Set_Duty@pwm_period,??_CCP_PWM_Set_Duty
  1538   0024D2  C065  F05F         	movff	CCP_PWM_Set_Duty@pwm_period+1,??_CCP_PWM_Set_Duty+1
  1539   0024D6  90D8               	bcf	status,0,c
  1540   0024D8  325F               	rrcf	(??_CCP_PWM_Set_Duty+1)^0,f,c
  1541   0024DA  325E               	rrcf	??_CCP_PWM_Set_Duty^0,f,c
  1542   0024DC  90D8               	bcf	status,0,c
  1543   0024DE  325F               	rrcf	(??_CCP_PWM_Set_Duty+1)^0,f,c
  1544   0024E0  325E               	rrcf	??_CCP_PWM_Set_Duty^0,f,c
  1545   0024E2  505E               	movf	??_CCP_PWM_Set_Duty^0,w,c
  1546   0024E4  6EBB               	movwf	187,c	;volatile
  1547                           
  1548                           ;MCAL_Layer/CCP/hal_cpp.c: 157:         }
  1549   0024E6  EF75  F012         	goto	l1240
  1550   0024EA                     l1237:
  1551   0024EA                     l1240:
  1552   0024EA  0012               	return		;funcret
  1553   0024EC                     __end_of_CCP_PWM_Set_Duty:
  1554                           	callstack 0
  1555                           
  1556 ;; *************** function _CCP_Init *****************
  1557 ;; Defined at:
  1558 ;;		line 18 in file "MCAL_Layer/CCP/hal_cpp.c"
  1559 ;; Parameters:    Size  Location     Type
  1560 ;;  ccp             1  103[COMRAM] PTR const struct .
  1561 ;;		 -> ccp(15), 
  1562 ;; Auto vars:     Size  Location     Type
  1563 ;;  ret             1    0        unsigned char 
  1564 ;; Return value:  Size  Location     Type
  1565 ;;                  1    wreg      unsigned char 
  1566 ;; Registers used:
  1567 ;;		wreg, fsr2l, fsr2h, status,2, status,0, prodl, prodh, cstack
  1568 ;; Tracked objects:
  1569 ;;		On entry : 0/0
  1570 ;;		On exit  : 0/0
  1571 ;;		Unchanged: 0/0
  1572 ;; Data sizes:     COMRAM   BANK0   BANK1   BANK2   BANK3   BANK4   BANK5   BANK6   BANK7   BANK8   BANK9  BANK10  BANK1
      +1  BANK12  BANK13  BANK14  BANK15
  1573 ;;      Params:         1       0       0       0       0       0       0       0       0       0       0       0       
      +0       0       0       0       0
  1574 ;;      Locals:         0       0       0       0       0       0       0       0       0       0       0       0       
      +0       0       0       0       0
  1575 ;;      Temps:          0       1       0       0       0       0       0       0       0       0       0       0       
      +0       0       0       0       0
  1576 ;;      Totals:         1       1       0       0       0       0       0       0       0       0       0       0       
      +0       0       0       0       0
  1577 ;;Total ram usage:        2 bytes
  1578 ;; Hardware stack levels used: 1
  1579 ;; Hardware stack levels required when called: 4
  1580 ;; This function calls:
  1581 ;;		_CCP_Capture_Config
  1582 ;;		_CCP_Compare_Config
  1583 ;;		_CCP_Interrupt_Config
  1584 ;;		_CCP_PWM_Config
  1585 ;;		_gpio_pin_initialize
  1586 ;; This function is called by:
  1587 ;;		_main
  1588 ;; This function uses a non-reentrant model
  1589 ;;
  1590                           
  1591                           	psect	text7
  1592   002AAC                     __ptext7:
  1593                           	callstack 0
  1594   002AAC                     _CCP_Init:
  1595                           	callstack 26
  1596   002AAC                     
  1597                           ;MCAL_Layer/CCP/hal_cpp.c: 20:     if(ccp == ((void*)0)){
  1598   002AAC  5068               	movf	CCP_Init@ccp^0,w,c
  1599   002AAE  A4D8               	btfss	status,2,c
  1600   002AB0  EF5C  F015         	goto	u6411
  1601   002AB4  EF5E  F015         	goto	u6410
  1602   002AB8                     u6411:
  1603   002AB8  EF60  F015         	goto	l6813
  1604   002ABC                     u6410:
  1605   002ABC                     
  1606                           ;MCAL_Layer/CCP/hal_cpp.c: 22:     }
  1607   002ABC  EFBF  F015         	goto	l1222
  1608   002AC0                     l6813:
  1609                           
  1610                           ;MCAL_Layer/CCP/hal_cpp.c: 24:         if(ccp->ccpx == CCP1_INST){
  1611   002AC0  5068               	movf	CCP_Init@ccp^0,w,c
  1612   002AC2  6ED9               	movwf	fsr2l,c
  1613   002AC4  6ADA               	clrf	fsr2h,c
  1614   002AC6  50DF               	movf	indf2,w,c
  1615   002AC8  A4D8               	btfss	status,2,c
  1616   002ACA  EF69  F015         	goto	u6421
  1617   002ACE  EF6B  F015         	goto	u6420
  1618   002AD2                     u6421:
  1619   002AD2  EF6F  F015         	goto	l6817
  1620   002AD6                     u6420:
  1621   002AD6                     
  1622                           ;MCAL_Layer/CCP/hal_cpp.c: 25:         (CCP1CONbits.CCP1M = ((uint8)0x00));
  1623   002AD6  0EF0               	movlw	-16
  1624   002AD8  16BD               	andwf	189,f,c	;volatile
  1625                           
  1626                           ;MCAL_Layer/CCP/hal_cpp.c: 26:         }
  1627   002ADA  EF7C  F015         	goto	l6821
  1628   002ADE                     l6817:
  1629   002ADE  5068               	movf	CCP_Init@ccp^0,w,c
  1630   002AE0  6ED9               	movwf	fsr2l,c
  1631   002AE2  6ADA               	clrf	fsr2h,c
  1632   002AE4  04DE               	decf	postinc2,w,c
  1633   002AE6  A4D8               	btfss	status,2,c
  1634   002AE8  EF78  F015         	goto	u6431
  1635   002AEC  EF7A  F015         	goto	u6430
  1636   002AF0                     u6431:
  1637   002AF0  EF7C  F015         	goto	l6821
  1638   002AF4                     u6430:
  1639   002AF4                     
  1640                           ;MCAL_Layer/CCP/hal_cpp.c: 28:         (CCP2CONbits.CCP2M = ((uint8)0x00));
  1641   002AF4  0EF0               	movlw	-16
  1642   002AF6  16BA               	andwf	186,f,c	;volatile
  1643   002AF8                     l6821:
  1644                           
  1645                           ;MCAL_Layer/CCP/hal_cpp.c: 34:         if(ccp->mode == CCP_CAPTURE_MODE){
  1646   002AF8  5068               	movf	CCP_Init@ccp^0,w,c
  1647   002AFA  6ED9               	movwf	fsr2l,c
  1648   002AFC  6ADA               	clrf	fsr2h,c
  1649   002AFE  0E01               	movlw	1
  1650   002B00  26D9               	addwf	fsr2l,f,c
  1651   002B02  50DF               	movf	indf2,w,c
  1652   002B04  A4D8               	btfss	status,2,c
  1653   002B06  EF87  F015         	goto	u6441
  1654   002B0A  EF89  F015         	goto	u6440
  1655   002B0E                     u6441:
  1656   002B0E  EF8F  F015         	goto	l6825
  1657   002B12                     u6440:
  1658   002B12  C068  F002         	movff	CCP_Init@ccp,CCP_Capture_Config@ccp
  1659   002B16  EC76  F012         	call	_CCP_Capture_Config	;wreg free
  1660                           
  1661                           ;MCAL_Layer/CCP/hal_cpp.c: 36:         }
  1662   002B1A  EFB6  F015         	goto	l6833
  1663   002B1E                     l6825:
  1664   002B1E  5068               	movf	CCP_Init@ccp^0,w,c
  1665   002B20  6ED9               	movwf	fsr2l,c
  1666   002B22  6ADA               	clrf	fsr2h,c
  1667   002B24  0E01               	movlw	1
  1668   002B26  26D9               	addwf	fsr2l,f,c
  1669   002B28  04DE               	decf	postinc2,w,c
  1670   002B2A  A4D8               	btfss	status,2,c
  1671   002B2C  EF9A  F015         	goto	u6451
  1672   002B30  EF9C  F015         	goto	u6450
  1673   002B34                     u6451:
  1674   002B34  EFA2  F015         	goto	l6829
  1675   002B38                     u6450:
  1676   002B38  C068  F002         	movff	CCP_Init@ccp,CCP_Compare_Config@ccp
  1677   002B3C  EC34  F013         	call	_CCP_Compare_Config	;wreg free
  1678                           
  1679                           ;MCAL_Layer/CCP/hal_cpp.c: 39:         }
  1680   002B40  EFB6  F015         	goto	l6833
  1681   002B44                     l6829:
  1682   002B44  5068               	movf	CCP_Init@ccp^0,w,c
  1683   002B46  6ED9               	movwf	fsr2l,c
  1684   002B48  6ADA               	clrf	fsr2h,c
  1685   002B4A  0E01               	movlw	1
  1686   002B4C  26D9               	addwf	fsr2l,f,c
  1687   002B4E  0E02               	movlw	2
  1688   002B50  18DE               	xorwf	postinc2,w,c
  1689   002B52  A4D8               	btfss	status,2,c
  1690   002B54  EFAE  F015         	goto	u6461
  1691   002B58  EFB0  F015         	goto	u6460
  1692   002B5C                     u6461:
  1693   002B5C  EFB6  F015         	goto	l1219
  1694   002B60                     u6460:
  1695   002B60  C068  F05C         	movff	CCP_Init@ccp,CCP_PWM_Config@ccp
  1696   002B64  ECDF  F010         	call	_CCP_PWM_Config	;wreg free
  1697                           
  1698                           ;MCAL_Layer/CCP/hal_cpp.c: 42:         }
  1699   002B68  EFB6  F015         	goto	l6833
  1700   002B6C                     l1219:
  1701   002B6C                     l6833:
  1702   002B6C  5068               	movf	CCP_Init@ccp^0,w,c
  1703   002B6E  0F03               	addlw	3
  1704   002B70  6E0A               	movwf	gpio_pin_initialize@_pin_config^0,c
  1705   002B72  ECB5  F016         	call	_gpio_pin_initialize	;wreg free
  1706   002B76                     
  1707                           ;MCAL_Layer/CCP/hal_cpp.c: 46:         CCP_Interrupt_Config(ccp);
  1708   002B76  C068  F002         	movff	CCP_Init@ccp,CCP_Interrupt_Config@ccp
  1709   002B7A  ECD4  F016         	call	_CCP_Interrupt_Config	;wreg free
  1710   002B7E                     l1222:
  1711   002B7E  0012               	return		;funcret
  1712   002B80                     __end_of_CCP_Init:
  1713                           	callstack 0
  1714                           
  1715 ;; *************** function _gpio_pin_initialize *****************
  1716 ;; Defined at:
  1717 ;;		line 134 in file "MCAL_Layer/GPIO/hal_gpio.c"
  1718 ;; Parameters:    Size  Location     Type
  1719 ;;  _pin_config     1    9[COMRAM] PTR const struct .
  1720 ;;		 -> ccp(15), relay_initialization@pin_obj(1), led_initialize@pin_obj(1), 
  1721 ;; Auto vars:     Size  Location     Type
  1722 ;;  ret             1   10[COMRAM] unsigned char 
  1723 ;; Return value:  Size  Location     Type
  1724 ;;                  1    wreg      unsigned char 
  1725 ;; Registers used:
  1726 ;;		wreg, fsr2l, fsr2h, status,2, status,0, prodl, prodh, cstack
  1727 ;; Tracked objects:
  1728 ;;		On entry : 0/0
  1729 ;;		On exit  : 0/0
  1730 ;;		Unchanged: 0/0
  1731 ;; Data sizes:     COMRAM   BANK0   BANK1   BANK2   BANK3   BANK4   BANK5   BANK6   BANK7   BANK8   BANK9  BANK10  BANK1
      +1  BANK12  BANK13  BANK14  BANK15
  1732 ;;      Params:         1       0       0       0       0       0       0       0       0       0       0       0       
      +0       0       0       0       0
  1733 ;;      Locals:         1       0       0       0       0       0       0       0       0       0       0       0       
      +0       0       0       0       0
  1734 ;;      Temps:          0       0       0       0       0       0       0       0       0       0       0       0       
      +0       0       0       0       0
  1735 ;;      Totals:         2       0       0       0       0       0       0       0       0       0       0       0       
      +0       0       0       0       0
  1736 ;;Total ram usage:        2 bytes
  1737 ;; Hardware stack levels used: 1
  1738 ;; Hardware stack levels required when called: 3
  1739 ;; This function calls:
  1740 ;;		_gpio_pin_direction_intialize
  1741 ;;		_gpio_pin_write_logic
  1742 ;; This function is called by:
  1743 ;;		_led_initialize
  1744 ;;		_CCP_Init
  1745 ;;		_sev_seg_initialize
  1746 ;;		_keypad_initialize
  1747 ;;		_lcd_8bit_initialize
  1748 ;;		_lcd_4bit_initialize
  1749 ;;		_motor_initialize
  1750 ;;		_relay_initialization
  1751 ;; This function uses a non-reentrant model
  1752 ;;
  1753                           
  1754                           	psect	text8
  1755   002D6A                     __ptext8:
  1756                           	callstack 0
  1757   002D6A                     _gpio_pin_initialize:
  1758                           	callstack 24
  1759   002D6A                     
  1760                           ;MCAL_Layer/GPIO/hal_gpio.c: 135:     std_ReturnType ret = (std_ReturnType)0x01;
  1761   002D6A  0E01               	movlw	1
  1762   002D6C  6E0B               	movwf	gpio_pin_initialize@ret^0,c
  1763                           
  1764                           ;MCAL_Layer/GPIO/hal_gpio.c: 136:     if(((void*)0) == _pin_config ){
  1765   002D6E  500A               	movf	gpio_pin_initialize@_pin_config^0,w,c
  1766   002D70  A4D8               	btfss	status,2,c
  1767   002D72  EFBD  F016         	goto	u3531
  1768   002D76  EFBF  F016         	goto	u3530
  1769   002D7A                     u3531:
  1770   002D7A  EFC3  F016         	goto	l4695
  1771   002D7E                     u3530:
  1772   002D7E                     
  1773                           ;MCAL_Layer/GPIO/hal_gpio.c: 137:         ret = (std_ReturnType)0x00;
  1774   002D7E  0E00               	movlw	0
  1775   002D80  6E0B               	movwf	gpio_pin_initialize@ret^0,c
  1776                           
  1777                           ;MCAL_Layer/GPIO/hal_gpio.c: 138:     }
  1778   002D82  EFD2  F016         	goto	l4697
  1779   002D86                     l4695:
  1780                           
  1781                           ;MCAL_Layer/GPIO/hal_gpio.c: 140:         gpio_pin_direction_intialize(_pin_config);
  1782   002D86  C00A  F002         	movff	gpio_pin_initialize@_pin_config,gpio_pin_direction_intialize@_pin_config
  1783   002D8A  ECD2  F013         	call	_gpio_pin_direction_intialize	;wreg free
  1784                           
  1785                           ;MCAL_Layer/GPIO/hal_gpio.c: 141:         gpio_pin_write_logic(_pin_config,_pin_config->
      +                          logic);
  1786   002D8E  C00A  F002         	movff	gpio_pin_initialize@_pin_config,gpio_pin_write_logic@_pin_config
  1787   002D92  500A               	movf	gpio_pin_initialize@_pin_config^0,w,c
  1788   002D94  6ED9               	movwf	fsr2l,c
  1789   002D96  6ADA               	clrf	fsr2h,c
  1790   002D98  0E00               	movlw	0
  1791   002D9A  BEDF               	btfsc	indf2,7,c
  1792   002D9C  0E01               	movlw	1
  1793   002D9E  6E03               	movwf	gpio_pin_write_logic@logic^0,c
  1794   002DA0  ECDE  F014         	call	_gpio_pin_write_logic	;wreg free
  1795   002DA4                     l4697:
  1796                           
  1797                           ;MCAL_Layer/GPIO/hal_gpio.c: 143:     return ret;
  1798   002DA4  500B               	movf	gpio_pin_initialize@ret^0,w,c
  1799   002DA6  0012               	return		;funcret
  1800   002DA8                     __end_of_gpio_pin_initialize:
  1801                           	callstack 0
  1802                           
  1803 ;; *************** function _gpio_pin_write_logic *****************
  1804 ;; Defined at:
  1805 ;;		line 68 in file "MCAL_Layer/GPIO/hal_gpio.c"
  1806 ;; Parameters:    Size  Location     Type
  1807 ;;  _pin_config     1    1[COMRAM] PTR const struct .
  1808 ;;		 -> ccp(15), relay_turn_off@pin_obj(1), relay_turn_on@pin_obj(1), relay_initialization@pin_obj(1), 
  1809 ;;		 -> led_turn_off@pin_obj(1), led_turn_on@pin_obj(1), led_initialize@pin_obj(1), 
  1810 ;;  logic           1    2[COMRAM] enum E2981
  1811 ;; Auto vars:     Size  Location     Type
  1812 ;;  ret             1    8[COMRAM] unsigned char 
  1813 ;; Return value:  Size  Location     Type
  1814 ;;                  1    wreg      unsigned char 
  1815 ;; Registers used:
  1816 ;;		wreg, fsr2l, fsr2h, status,2, status,0, prodl, prodh
  1817 ;; Tracked objects:
  1818 ;;		On entry : 0/0
  1819 ;;		On exit  : 0/0
  1820 ;;		Unchanged: 0/0
  1821 ;; Data sizes:     COMRAM   BANK0   BANK1   BANK2   BANK3   BANK4   BANK5   BANK6   BANK7   BANK8   BANK9  BANK10  BANK1
      +1  BANK12  BANK13  BANK14  BANK15
  1822 ;;      Params:         2       0       0       0       0       0       0       0       0       0       0       0       
      +0       0       0       0       0
  1823 ;;      Locals:         1       0       0       0       0       0       0       0       0       0       0       0       
      +0       0       0       0       0
  1824 ;;      Temps:          5       0       0       0       0       0       0       0       0       0       0       0       
      +0       0       0       0       0
  1825 ;;      Totals:         8       0       0       0       0       0       0       0       0       0       0       0       
      +0       0       0       0       0
  1826 ;;Total ram usage:        8 bytes
  1827 ;; Hardware stack levels used: 1
  1828 ;; Hardware stack levels required when called: 2
  1829 ;; This function calls:
  1830 ;;		Nothing
  1831 ;; This function is called by:
  1832 ;;		_gpio_pin_initialize
  1833 ;;		_sev_seg_write_number
  1834 ;;		_keypad_read_value
  1835 ;;		_lcd_8bit_send_command
  1836 ;;		_lcd_8bit_send_char
  1837 ;;		_lcd_4bit_send_command
  1838 ;;		_lcd_4bit_send_char
  1839 ;;		_lcd_send_8bits
  1840 ;;		_lcd_send_4bits
  1841 ;;		_enable_signal_8bits
  1842 ;;		_enable_signal_4bits
  1843 ;;		_led_turn_on
  1844 ;;		_led_turn_off
  1845 ;;		_motor_turn_right
  1846 ;;		_motor_turn_left
  1847 ;;		_motor_stop
  1848 ;;		_relay_turn_on
  1849 ;;		_relay_turn_off
  1850 ;; This function uses a non-reentrant model
  1851 ;;
  1852                           
  1853                           	psect	text9
  1854   0029BC                     __ptext9:
  1855                           	callstack 0
  1856   0029BC                     _gpio_pin_write_logic:
  1857                           	callstack 24
  1858   0029BC                     
  1859                           ;MCAL_Layer/GPIO/hal_gpio.c: 69:     std_ReturnType ret = (std_ReturnType)0x01;
  1860   0029BC  0E01               	movlw	1
  1861   0029BE  6E09               	movwf	gpio_pin_write_logic@ret^0,c
  1862                           
  1863                           ;MCAL_Layer/GPIO/hal_gpio.c: 70:     if(((void*)0) == _pin_config){
  1864   0029C0  5002               	movf	gpio_pin_write_logic@_pin_config^0,w,c
  1865   0029C2  A4D8               	btfss	status,2,c
  1866   0029C4  EFE6  F014         	goto	u3451
  1867   0029C8  EFE8  F014         	goto	u3450
  1868   0029CC                     u3451:
  1869   0029CC  EF3F  F015         	goto	l4663
  1870   0029D0                     u3450:
  1871   0029D0                     
  1872                           ;MCAL_Layer/GPIO/hal_gpio.c: 71:         ret = (std_ReturnType)0x00;
  1873   0029D0  0E00               	movlw	0
  1874   0029D2  6E09               	movwf	gpio_pin_write_logic@ret^0,c
  1875                           
  1876                           ;MCAL_Layer/GPIO/hal_gpio.c: 72:     }
  1877   0029D4  EF54  F015         	goto	l4665
  1878   0029D8                     l4657:
  1879                           
  1880                           ;MCAL_Layer/GPIO/hal_gpio.c: 76:                 (*lat_registers[_pin_config->port] &= ~
      +                          ((uint8)1<<_pin_config->pin));
  1881   0029D8  5002               	movf	gpio_pin_write_logic@_pin_config^0,w,c
  1882   0029DA  6ED9               	movwf	fsr2l,c
  1883   0029DC  6ADA               	clrf	fsr2h,c
  1884   0029DE  30DF               	rrcf	223,w,c
  1885   0029E0  32E8               	rrcf	wreg,f,c
  1886   0029E2  32E8               	rrcf	wreg,f,c
  1887   0029E4  0B07               	andlw	7
  1888   0029E6  6E04               	movwf	??_gpio_pin_write_logic^0,c
  1889   0029E8  0E01               	movlw	1
  1890   0029EA  6E05               	movwf	(??_gpio_pin_write_logic+1)^0,c
  1891   0029EC  2A04               	incf	??_gpio_pin_write_logic^0,f,c
  1892   0029EE  EFFB  F014         	goto	u3464
  1893   0029F2                     u3465:
  1894   0029F2  90D8               	bcf	status,0,c
  1895   0029F4  3605               	rlcf	(??_gpio_pin_write_logic+1)^0,f,c
  1896   0029F6                     u3464:
  1897   0029F6  2E04               	decfsz	??_gpio_pin_write_logic^0,f,c
  1898   0029F8  EFF9  F014         	goto	u3465
  1899   0029FC  5005               	movf	(??_gpio_pin_write_logic+1)^0,w,c
  1900   0029FE  0AFF               	xorlw	255
  1901   002A00  6E06               	movwf	(??_gpio_pin_write_logic+2)^0,c
  1902   002A02  5002               	movf	gpio_pin_write_logic@_pin_config^0,w,c
  1903   002A04  6ED9               	movwf	fsr2l,c
  1904   002A06  6ADA               	clrf	fsr2h,c
  1905   002A08  50DF               	movf	223,w,c
  1906   002A0A  0B07               	andlw	7
  1907   002A0C  0D02               	mullw	2
  1908   002A0E  50F3               	movf	243,w,c
  1909   002A10  0F9A               	addlw	low _lat_registers
  1910   002A12  6ED9               	movwf	fsr2l,c
  1911   002A14  6ADA               	clrf	fsr2h,c
  1912   002A16  CFDE F007          	movff	postinc2,??_gpio_pin_write_logic+3
  1913   002A1A  CFDD F008          	movff	postdec2,??_gpio_pin_write_logic+4
  1914   002A1E  C007  FFD9         	movff	??_gpio_pin_write_logic+3,fsr2l
  1915   002A22  C008  FFDA         	movff	??_gpio_pin_write_logic+4,fsr2h
  1916   002A26  5006               	movf	(??_gpio_pin_write_logic+2)^0,w,c
  1917   002A28  16DF               	andwf	indf2,f,c
  1918                           
  1919                           ;MCAL_Layer/GPIO/hal_gpio.c: 77:                 break;
  1920   002A2A  EF54  F015         	goto	l4665
  1921   002A2E                     l4659:
  1922                           
  1923                           ;MCAL_Layer/GPIO/hal_gpio.c: 79:                 (*lat_registers[_pin_config->port] |= (
      +                          (uint8)1<<_pin_config->pin));
  1924   002A2E  5002               	movf	gpio_pin_write_logic@_pin_config^0,w,c
  1925   002A30  6ED9               	movwf	fsr2l,c
  1926   002A32  6ADA               	clrf	fsr2h,c
  1927   002A34  30DF               	rrcf	223,w,c
  1928   002A36  32E8               	rrcf	wreg,f,c
  1929   002A38  32E8               	rrcf	wreg,f,c
  1930   002A3A  0B07               	andlw	7
  1931   002A3C  6E04               	movwf	??_gpio_pin_write_logic^0,c
  1932   002A3E  0E01               	movlw	1
  1933   002A40  6E05               	movwf	(??_gpio_pin_write_logic+1)^0,c
  1934   002A42  2A04               	incf	??_gpio_pin_write_logic^0,f,c
  1935   002A44  EF26  F015         	goto	u3474
  1936   002A48                     u3475:
  1937   002A48  90D8               	bcf	status,0,c
  1938   002A4A  3605               	rlcf	(??_gpio_pin_write_logic+1)^0,f,c
  1939   002A4C                     u3474:
  1940   002A4C  2E04               	decfsz	??_gpio_pin_write_logic^0,f,c
  1941   002A4E  EF24  F015         	goto	u3475
  1942   002A52  5002               	movf	gpio_pin_write_logic@_pin_config^0,w,c
  1943   002A54  6ED9               	movwf	fsr2l,c
  1944   002A56  6ADA               	clrf	fsr2h,c
  1945   002A58  50DF               	movf	223,w,c
  1946   002A5A  0B07               	andlw	7
  1947   002A5C  0D02               	mullw	2
  1948   002A5E  50F3               	movf	243,w,c
  1949   002A60  0F9A               	addlw	low _lat_registers
  1950   002A62  6ED9               	movwf	fsr2l,c
  1951   002A64  6ADA               	clrf	fsr2h,c
  1952   002A66  CFDE F006          	movff	postinc2,??_gpio_pin_write_logic+2
  1953   002A6A  CFDD F007          	movff	postdec2,??_gpio_pin_write_logic+3
  1954   002A6E  C006  FFD9         	movff	??_gpio_pin_write_logic+2,fsr2l
  1955   002A72  C007  FFDA         	movff	??_gpio_pin_write_logic+3,fsr2h
  1956   002A76  5005               	movf	(??_gpio_pin_write_logic+1)^0,w,c
  1957   002A78  12DF               	iorwf	indf2,f,c
  1958                           
  1959                           ;MCAL_Layer/GPIO/hal_gpio.c: 80:                 break;
  1960   002A7A  EF54  F015         	goto	l4665
  1961   002A7E                     l4663:
  1962   002A7E  5003               	movf	gpio_pin_write_logic@logic^0,w,c
  1963   002A80  6E04               	movwf	??_gpio_pin_write_logic^0,c
  1964   002A82  6A05               	clrf	(??_gpio_pin_write_logic+1)^0,c
  1965                           
  1966                           ; Switch on 2 bytes has been partitioned into a top level switch of size 1, and 1 sub-sw
      +                          itches
  1967                           ; Switch size 1, requested type "simple"
  1968                           ; Number of cases is 1, Range of values is 0 to 0
  1969                           ; switch strategies available:
  1970                           ; Name         Instructions Cycles
  1971                           ; simple_byte            4     3 (average)
  1972                           ;	Chosen strategy is simple_byte
  1973   002A84  5005               	movf	(??_gpio_pin_write_logic+1)^0,w,c
  1974   002A86  0A00               	xorlw	0	; case 0
  1975   002A88  B4D8               	btfsc	status,2,c
  1976   002A8A  EF49  F015         	goto	l6869
  1977   002A8E  EF54  F015         	goto	l4665
  1978   002A92                     l6869:
  1979                           
  1980                           ; Switch size 1, requested type "simple"
  1981                           ; Number of cases is 2, Range of values is 0 to 1
  1982                           ; switch strategies available:
  1983                           ; Name         Instructions Cycles
  1984                           ; simple_byte            7     4 (average)
  1985                           ;	Chosen strategy is simple_byte
  1986   002A92  5004               	movf	??_gpio_pin_write_logic^0,w,c
  1987   002A94  0A00               	xorlw	0	; case 0
  1988   002A96  B4D8               	btfsc	status,2,c
  1989   002A98  EFEC  F014         	goto	l4657
  1990   002A9C  0A01               	xorlw	1	; case 1
  1991   002A9E  B4D8               	btfsc	status,2,c
  1992   002AA0  EF17  F015         	goto	l4659
  1993   002AA4  EF54  F015         	goto	l4665
  1994   002AA8                     l4665:
  1995                           
  1996                           ;MCAL_Layer/GPIO/hal_gpio.c: 86:     return ret;
  1997   002AA8  5009               	movf	gpio_pin_write_logic@ret^0,w,c
  1998   002AAA  0012               	return		;funcret
  1999   002AAC                     __end_of_gpio_pin_write_logic:
  2000                           	callstack 0
  2001                           
  2002 ;; *************** function _gpio_pin_direction_intialize *****************
  2003 ;; Defined at:
  2004 ;;		line 21 in file "MCAL_Layer/GPIO/hal_gpio.c"
  2005 ;; Parameters:    Size  Location     Type
  2006 ;;  _pin_config     1    1[COMRAM] PTR const struct .
  2007 ;;		 -> ccp(15), relay_initialization@pin_obj(1), led_initialize@pin_obj(1), 
  2008 ;; Auto vars:     Size  Location     Type
  2009 ;;  ret             1    7[COMRAM] unsigned char 
  2010 ;; Return value:  Size  Location     Type
  2011 ;;                  1    wreg      unsigned char 
  2012 ;; Registers used:
  2013 ;;		wreg, fsr2l, fsr2h, status,2, status,0, prodl, prodh
  2014 ;; Tracked objects:
  2015 ;;		On entry : 0/0
  2016 ;;		On exit  : 0/0
  2017 ;;		Unchanged: 0/0
  2018 ;; Data sizes:     COMRAM   BANK0   BANK1   BANK2   BANK3   BANK4   BANK5   BANK6   BANK7   BANK8   BANK9  BANK10  BANK1
      +1  BANK12  BANK13  BANK14  BANK15
  2019 ;;      Params:         1       0       0       0       0       0       0       0       0       0       0       0       
      +0       0       0       0       0
  2020 ;;      Locals:         1       0       0       0       0       0       0       0       0       0       0       0       
      +0       0       0       0       0
  2021 ;;      Temps:          5       0       0       0       0       0       0       0       0       0       0       0       
      +0       0       0       0       0
  2022 ;;      Totals:         7       0       0       0       0       0       0       0       0       0       0       0       
      +0       0       0       0       0
  2023 ;;Total ram usage:        7 bytes
  2024 ;; Hardware stack levels used: 1
  2025 ;; Hardware stack levels required when called: 2
  2026 ;; This function calls:
  2027 ;;		Nothing
  2028 ;; This function is called by:
  2029 ;;		_gpio_pin_initialize
  2030 ;;		_button_initialize
  2031 ;;		_Interrupt_RBx_Init
  2032 ;;		_Interrupt_INTx_Pin_Init
  2033 ;; This function uses a non-reentrant model
  2034 ;;
  2035                           
  2036                           	psect	text10
  2037   0027A4                     __ptext10:
  2038                           	callstack 0
  2039   0027A4                     _gpio_pin_direction_intialize:
  2040                           	callstack 24
  2041   0027A4                     
  2042                           ;MCAL_Layer/GPIO/hal_gpio.c: 22:     std_ReturnType ret = (std_ReturnType)0x01;
  2043   0027A4  0E01               	movlw	1
  2044   0027A6  6E08               	movwf	gpio_pin_direction_intialize@ret^0,c
  2045                           
  2046                           ;MCAL_Layer/GPIO/hal_gpio.c: 23:     if(((void*)0) == _pin_config || _pin_config->pin > 
      +                          8 - 1){
  2047   0027A8  5002               	movf	gpio_pin_direction_intialize@_pin_config^0,w,c
  2048   0027AA  B4D8               	btfsc	status,2,c
  2049   0027AC  EFDA  F013         	goto	u3481
  2050   0027B0  EFDC  F013         	goto	u3480
  2051   0027B4                     u3481:
  2052   0027B4  EFEC  F013         	goto	l4677
  2053   0027B8                     u3480:
  2054   0027B8  5002               	movf	gpio_pin_direction_intialize@_pin_config^0,w,c
  2055   0027BA  6ED9               	movwf	fsr2l,c
  2056   0027BC  6ADA               	clrf	fsr2h,c
  2057   0027BE  30DF               	rrcf	223,w,c
  2058   0027C0  32E8               	rrcf	wreg,f,c
  2059   0027C2  32E8               	rrcf	wreg,f,c
  2060   0027C4  0B07               	andlw	7
  2061   0027C6  6E03               	movwf	??_gpio_pin_direction_intialize^0,c
  2062   0027C8  0E07               	movlw	7
  2063   0027CA  6403               	cpfsgt	??_gpio_pin_direction_intialize^0,c
  2064   0027CC  EFEA  F013         	goto	u3491
  2065   0027D0  EFEC  F013         	goto	u3490
  2066   0027D4                     u3491:
  2067   0027D4  EF43  F014         	goto	l4685
  2068   0027D8                     u3490:
  2069   0027D8                     l4677:
  2070                           
  2071                           ;MCAL_Layer/GPIO/hal_gpio.c: 24:         ret = (std_ReturnType)0x00;
  2072   0027D8  0E00               	movlw	0
  2073   0027DA  6E08               	movwf	gpio_pin_direction_intialize@ret^0,c
  2074                           
  2075                           ;MCAL_Layer/GPIO/hal_gpio.c: 25:     }
  2076   0027DC  EF59  F014         	goto	l4687
  2077   0027E0                     l4679:
  2078                           
  2079                           ;MCAL_Layer/GPIO/hal_gpio.c: 30:             (*tris_registers[_pin_config->port] &= ~((u
      +                          int8)1<<_pin_config->pin));
  2080   0027E0  5002               	movf	gpio_pin_direction_intialize@_pin_config^0,w,c
  2081   0027E2  6ED9               	movwf	fsr2l,c
  2082   0027E4  6ADA               	clrf	fsr2h,c
  2083   0027E6  30DF               	rrcf	223,w,c
  2084   0027E8  32E8               	rrcf	wreg,f,c
  2085   0027EA  32E8               	rrcf	wreg,f,c
  2086   0027EC  0B07               	andlw	7
  2087   0027EE  6E03               	movwf	??_gpio_pin_direction_intialize^0,c
  2088   0027F0  0E01               	movlw	1
  2089   0027F2  6E04               	movwf	(??_gpio_pin_direction_intialize+1)^0,c
  2090   0027F4  2A03               	incf	??_gpio_pin_direction_intialize^0,f,c
  2091   0027F6  EFFF  F013         	goto	u3504
  2092   0027FA                     u3505:
  2093   0027FA  90D8               	bcf	status,0,c
  2094   0027FC  3604               	rlcf	(??_gpio_pin_direction_intialize+1)^0,f,c
  2095   0027FE                     u3504:
  2096   0027FE  2E03               	decfsz	??_gpio_pin_direction_intialize^0,f,c
  2097   002800  EFFD  F013         	goto	u3505
  2098   002804  5004               	movf	(??_gpio_pin_direction_intialize+1)^0,w,c
  2099   002806  0AFF               	xorlw	255
  2100   002808  6E05               	movwf	(??_gpio_pin_direction_intialize+2)^0,c
  2101   00280A  5002               	movf	gpio_pin_direction_intialize@_pin_config^0,w,c
  2102   00280C  6ED9               	movwf	fsr2l,c
  2103   00280E  6ADA               	clrf	fsr2h,c
  2104   002810  50DF               	movf	223,w,c
  2105   002812  0B07               	andlw	7
  2106   002814  0D02               	mullw	2
  2107   002816  50F3               	movf	243,w,c
  2108   002818  0FA4               	addlw	low _tris_registers
  2109   00281A  6ED9               	movwf	fsr2l,c
  2110   00281C  6ADA               	clrf	fsr2h,c
  2111   00281E  CFDE F006          	movff	postinc2,??_gpio_pin_direction_intialize+3
  2112   002822  CFDD F007          	movff	postdec2,??_gpio_pin_direction_intialize+4
  2113   002826  C006  FFD9         	movff	??_gpio_pin_direction_intialize+3,fsr2l
  2114   00282A  C007  FFDA         	movff	??_gpio_pin_direction_intialize+4,fsr2h
  2115   00282E  5005               	movf	(??_gpio_pin_direction_intialize+2)^0,w,c
  2116   002830  16DF               	andwf	indf2,f,c
  2117                           
  2118                           ;MCAL_Layer/GPIO/hal_gpio.c: 31:             break;
  2119   002832  EF59  F014         	goto	l4687
  2120   002836                     l4681:
  2121                           
  2122                           ;MCAL_Layer/GPIO/hal_gpio.c: 33:             (*tris_registers[_pin_config->port] |= ((ui
      +                          nt8)1<<_pin_config->pin));
  2123   002836  5002               	movf	gpio_pin_direction_intialize@_pin_config^0,w,c
  2124   002838  6ED9               	movwf	fsr2l,c
  2125   00283A  6ADA               	clrf	fsr2h,c
  2126   00283C  30DF               	rrcf	223,w,c
  2127   00283E  32E8               	rrcf	wreg,f,c
  2128   002840  32E8               	rrcf	wreg,f,c
  2129   002842  0B07               	andlw	7
  2130   002844  6E03               	movwf	??_gpio_pin_direction_intialize^0,c
  2131   002846  0E01               	movlw	1
  2132   002848  6E04               	movwf	(??_gpio_pin_direction_intialize+1)^0,c
  2133   00284A  2A03               	incf	??_gpio_pin_direction_intialize^0,f,c
  2134   00284C  EF2A  F014         	goto	u3514
  2135   002850                     u3515:
  2136   002850  90D8               	bcf	status,0,c
  2137   002852  3604               	rlcf	(??_gpio_pin_direction_intialize+1)^0,f,c
  2138   002854                     u3514:
  2139   002854  2E03               	decfsz	??_gpio_pin_direction_intialize^0,f,c
  2140   002856  EF28  F014         	goto	u3515
  2141   00285A  5002               	movf	gpio_pin_direction_intialize@_pin_config^0,w,c
  2142   00285C  6ED9               	movwf	fsr2l,c
  2143   00285E  6ADA               	clrf	fsr2h,c
  2144   002860  50DF               	movf	223,w,c
  2145   002862  0B07               	andlw	7
  2146   002864  0D02               	mullw	2
  2147   002866  50F3               	movf	243,w,c
  2148   002868  0FA4               	addlw	low _tris_registers
  2149   00286A  6ED9               	movwf	fsr2l,c
  2150   00286C  6ADA               	clrf	fsr2h,c
  2151   00286E  CFDE F005          	movff	postinc2,??_gpio_pin_direction_intialize+2
  2152   002872  CFDD F006          	movff	postdec2,??_gpio_pin_direction_intialize+3
  2153   002876  C005  FFD9         	movff	??_gpio_pin_direction_intialize+2,fsr2l
  2154   00287A  C006  FFDA         	movff	??_gpio_pin_direction_intialize+3,fsr2h
  2155   00287E  5004               	movf	(??_gpio_pin_direction_intialize+1)^0,w,c
  2156   002880  12DF               	iorwf	indf2,f,c
  2157                           
  2158                           ;MCAL_Layer/GPIO/hal_gpio.c: 34:             break;
  2159   002882  EF59  F014         	goto	l4687
  2160   002886                     l4685:
  2161   002886  5002               	movf	gpio_pin_direction_intialize@_pin_config^0,w,c
  2162   002888  6ED9               	movwf	fsr2l,c
  2163   00288A  6ADA               	clrf	fsr2h,c
  2164   00288C  BCDF               	btfsc	indf2,6,c
  2165   00288E  EF4B  F014         	goto	u3521
  2166   002892  EF4E  F014         	goto	u3520
  2167   002896                     u3521:
  2168   002896  0E01               	movlw	1
  2169   002898  EF4F  F014         	goto	u3526
  2170   00289C                     u3520:
  2171   00289C  0E00               	movlw	0
  2172   00289E                     u3526:
  2173                           
  2174                           ; Switch size 1, requested type "simple"
  2175                           ; Number of cases is 2, Range of values is 0 to 1
  2176                           ; switch strategies available:
  2177                           ; Name         Instructions Cycles
  2178                           ; simple_byte            7     4 (average)
  2179                           ;	Chosen strategy is simple_byte
  2180   00289E  0A00               	xorlw	0	; case 0
  2181   0028A0  B4D8               	btfsc	status,2,c
  2182   0028A2  EFF0  F013         	goto	l4679
  2183   0028A6  0A01               	xorlw	1	; case 1
  2184   0028A8  B4D8               	btfsc	status,2,c
  2185   0028AA  EF1B  F014         	goto	l4681
  2186   0028AE  EFEC  F013         	goto	l4677
  2187   0028B2                     l4687:
  2188                           
  2189                           ;MCAL_Layer/GPIO/hal_gpio.c: 39:     return ret;
  2190   0028B2  5008               	movf	gpio_pin_direction_intialize@ret^0,w,c
  2191   0028B4  0012               	return		;funcret
  2192   0028B6                     __end_of_gpio_pin_direction_intialize:
  2193                           	callstack 0
  2194                           
  2195 ;; *************** function _CCP_PWM_Config *****************
  2196 ;; Defined at:
  2197 ;;		line 320 in file "MCAL_Layer/CCP/hal_cpp.c"
  2198 ;; Parameters:    Size  Location     Type
  2199 ;;  ccp             1   91[COMRAM] PTR const struct .
  2200 ;;		 -> ccp(15), 
  2201 ;; Auto vars:     Size  Location     Type
  2202 ;;  ret             1  102[COMRAM] unsigned char 
  2203 ;; Return value:  Size  Location     Type
  2204 ;;                  1    wreg      unsigned char 
  2205 ;; Registers used:
  2206 ;;		wreg, fsr2l, fsr2h, status,2, status,0, prodl, prodh, cstack
  2207 ;; Tracked objects:
  2208 ;;		On entry : 0/0
  2209 ;;		On exit  : 0/0
  2210 ;;		Unchanged: 0/0
  2211 ;; Data sizes:     COMRAM   BANK0   BANK1   BANK2   BANK3   BANK4   BANK5   BANK6   BANK7   BANK8   BANK9  BANK10  BANK1
      +1  BANK12  BANK13  BANK14  BANK15
  2212 ;;      Params:         1       0       0       0       0       0       0       0       0       0       0       0       
      +0       0       0       0       0
  2213 ;;      Locals:         9       0       0       0       0       0       0       0       0       0       0       0       
      +0       0       0       0       0
  2214 ;;      Temps:          2       0       0       0       0       0       0       0       0       0       0       0       
      +0       0       0       0       0
  2215 ;;      Totals:        12       0       0       0       0       0       0       0       0       0       0       0       
      +0       0       0       0       0
  2216 ;;Total ram usage:       12 bytes
  2217 ;; Hardware stack levels used: 1
  2218 ;; Hardware stack levels required when called: 3
  2219 ;; This function calls:
  2220 ;;		___fladd
  2221 ;;		___fldiv
  2222 ;;		___flmul
  2223 ;;		___fltol
  2224 ;;		___xxtofl
  2225 ;; This function is called by:
  2226 ;;		_CCP_Init
  2227 ;; This function uses a non-reentrant model
  2228 ;;
  2229                           
  2230                           	psect	text11
  2231   0021BE                     __ptext11:
  2232                           	callstack 0
  2233   0021BE                     _CCP_PWM_Config:
  2234                           	callstack 26
  2235   0021BE                     
  2236                           ;MCAL_Layer/CCP/hal_cpp.c: 321:     std_ReturnType ret = (std_ReturnType)0x01;
  2237   0021BE  0E01               	movlw	1
  2238   0021C0  6E67               	movwf	CCP_PWM_Config@ret^0,c
  2239                           
  2240                           ;MCAL_Layer/CCP/hal_cpp.c: 322:     if(ccp == ((void*)0)){
  2241   0021C2  505C               	movf	CCP_PWM_Config@ccp^0,w,c
  2242   0021C4  A4D8               	btfss	status,2,c
  2243   0021C6  EFE7  F010         	goto	u4721
  2244   0021CA  EFE9  F010         	goto	u4720
  2245   0021CE                     u4721:
  2246   0021CE  EFED  F010         	goto	l5459
  2247   0021D2                     u4720:
  2248   0021D2                     
  2249                           ;MCAL_Layer/CCP/hal_cpp.c: 323:         ret = (std_ReturnType)0x00;
  2250   0021D2  0E00               	movlw	0
  2251   0021D4  6E67               	movwf	CCP_PWM_Config@ret^0,c
  2252                           
  2253                           ;MCAL_Layer/CCP/hal_cpp.c: 324:     }
  2254   0021D6  EFB5  F011         	goto	l5473
  2255   0021DA                     l5459:
  2256                           
  2257                           ;MCAL_Layer/CCP/hal_cpp.c: 326:         PR2 = (uint8)(((float)(4000000) / ((float)(ccp->
      +                          timer2_pre_scaler) * (float)(ccp->timer2_postscaler) * 4.0 * (float)(ccp->pwm_freq))) - 
      +                          1);
  2258   0021DA  505C               	movf	CCP_PWM_Config@ccp^0,w,c
  2259   0021DC  6ED9               	movwf	fsr2l,c
  2260   0021DE  6ADA               	clrf	fsr2h,c
  2261   0021E0  0E07               	movlw	7
  2262   0021E2  26D9               	addwf	fsr2l,f,c
  2263   0021E4  50DF               	movf	indf2,w,c
  2264   0021E6  6E5D               	movwf	??_CCP_PWM_Config^0,c
  2265   0021E8  505D               	movf	??_CCP_PWM_Config^0,w,c
  2266   0021EA  6E02               	movwf	___xxtofl@val^0,c
  2267   0021EC  6A03               	clrf	(___xxtofl@val+1)^0,c
  2268   0021EE  6A04               	clrf	(___xxtofl@val+2)^0,c
  2269   0021F0  6A05               	clrf	(___xxtofl@val+3)^0,c
  2270   0021F2  0E00               	movlw	0
  2271   0021F4  EC05  F010         	call	___xxtofl
  2272   0021F8  C002  F03D         	movff	?___xxtofl,___flmul@a
  2273   0021FC  C003  F03E         	movff	?___xxtofl+1,___flmul@a+1
  2274   002200  C004  F03F         	movff	?___xxtofl+2,___flmul@a+2
  2275   002204  C005  F040         	movff	?___xxtofl+3,___flmul@a+3
  2276   002208  505C               	movf	CCP_PWM_Config@ccp^0,w,c
  2277   00220A  6ED9               	movwf	fsr2l,c
  2278   00220C  6ADA               	clrf	fsr2h,c
  2279   00220E  0E08               	movlw	8
  2280   002210  26D9               	addwf	fsr2l,f,c
  2281   002212  50DF               	movf	indf2,w,c
  2282   002214  6E5E               	movwf	(??_CCP_PWM_Config+1)^0,c
  2283   002216  505E               	movf	(??_CCP_PWM_Config+1)^0,w,c
  2284   002218  6E02               	movwf	___xxtofl@val^0,c
  2285   00221A  6A03               	clrf	(___xxtofl@val+1)^0,c
  2286   00221C  6A04               	clrf	(___xxtofl@val+2)^0,c
  2287   00221E  6A05               	clrf	(___xxtofl@val+3)^0,c
  2288   002220  0E00               	movlw	0
  2289   002222  EC05  F010         	call	___xxtofl
  2290   002226  C002  F039         	movff	?___xxtofl,___flmul@b
  2291   00222A  C003  F03A         	movff	?___xxtofl+1,___flmul@b+1
  2292   00222E  C004  F03B         	movff	?___xxtofl+2,___flmul@b+2
  2293   002232  C005  F03C         	movff	?___xxtofl+3,___flmul@b+3
  2294   002236  EC80  F00A         	call	___flmul	;wreg free
  2295   00223A  C039  F05F         	movff	?___flmul,_CCP_PWM_Config$4072
  2296   00223E  C03A  F060         	movff	?___flmul+1,_CCP_PWM_Config$4072+1
  2297   002242  C03B  F061         	movff	?___flmul+2,_CCP_PWM_Config$4072+2
  2298   002246  C03C  F062         	movff	?___flmul+3,_CCP_PWM_Config$4072+3
  2299   00224A                     
  2300                           ;MCAL_Layer/CCP/hal_cpp.c: 326:         PR2 = (uint8)(((float)(4000000) / ((float)(ccp->
      +                          timer2_pre_scaler) * (float)(ccp->timer2_postscaler) * 4.0 * (float)(ccp->pwm_freq))) - 
      +                          1);
  2301   00224A  0E00               	movlw	0
  2302   00224C  6E3D               	movwf	___flmul@a^0,c
  2303   00224E  0E00               	movlw	0
  2304   002250  6E3E               	movwf	(___flmul@a+1)^0,c
  2305   002252  0E80               	movlw	128
  2306   002254  6E3F               	movwf	(___flmul@a+2)^0,c
  2307   002256  0E40               	movlw	64
  2308   002258  6E40               	movwf	(___flmul@a+3)^0,c
  2309   00225A  C05F  F039         	movff	_CCP_PWM_Config$4072,___flmul@b
  2310   00225E  C060  F03A         	movff	_CCP_PWM_Config$4072+1,___flmul@b+1
  2311   002262  C061  F03B         	movff	_CCP_PWM_Config$4072+2,___flmul@b+2
  2312   002266  C062  F03C         	movff	_CCP_PWM_Config$4072+3,___flmul@b+3
  2313   00226A  EC80  F00A         	call	___flmul	;wreg free
  2314   00226E  C039  F063         	movff	?___flmul,_CCP_PWM_Config$4073
  2315   002272  C03A  F064         	movff	?___flmul+1,_CCP_PWM_Config$4073+1
  2316   002276  C03B  F065         	movff	?___flmul+2,_CCP_PWM_Config$4073+2
  2317   00227A  C03C  F066         	movff	?___flmul+3,_CCP_PWM_Config$4073+3
  2318   00227E                     
  2319                           ;MCAL_Layer/CCP/hal_cpp.c: 326:         PR2 = (uint8)(((float)(4000000) / ((float)(ccp->
      +                          timer2_pre_scaler) * (float)(ccp->timer2_postscaler) * 4.0 * (float)(ccp->pwm_freq))) - 
      +                          1);
  2320   00227E  0E00               	movlw	0
  2321   002280  6E2D               	movwf	___fladd@a^0,c
  2322   002282  0E00               	movlw	0
  2323   002284  6E2E               	movwf	(___fladd@a+1)^0,c
  2324   002286  0E80               	movlw	128
  2325   002288  6E2F               	movwf	(___fladd@a+2)^0,c
  2326   00228A  0EBF               	movlw	191
  2327   00228C  6E30               	movwf	(___fladd@a+3)^0,c
  2328   00228E  505C               	movf	CCP_PWM_Config@ccp^0,w,c
  2329   002290  6ED9               	movwf	fsr2l,c
  2330   002292  6ADA               	clrf	fsr2h,c
  2331   002294  0E05               	movlw	5
  2332   002296  26D9               	addwf	fsr2l,f,c
  2333   002298  CFDE F05D          	movff	postinc2,??_CCP_PWM_Config
  2334   00229C  CFDD F05E          	movff	postdec2,??_CCP_PWM_Config+1
  2335   0022A0  C05D  F002         	movff	??_CCP_PWM_Config,___xxtofl@val
  2336   0022A4  C05E  F003         	movff	??_CCP_PWM_Config+1,___xxtofl@val+1
  2337   0022A8  6A04               	clrf	(___xxtofl@val+2)^0,c
  2338   0022AA  6A05               	clrf	(___xxtofl@val+3)^0,c
  2339   0022AC  0E00               	movlw	0
  2340   0022AE  EC05  F010         	call	___xxtofl
  2341   0022B2  C002  F03D         	movff	?___xxtofl,___flmul@a
  2342   0022B6  C003  F03E         	movff	?___xxtofl+1,___flmul@a+1
  2343   0022BA  C004  F03F         	movff	?___xxtofl+2,___flmul@a+2
  2344   0022BE  C005  F040         	movff	?___xxtofl+3,___flmul@a+3
  2345   0022C2  C063  F039         	movff	_CCP_PWM_Config$4073,___flmul@b
  2346   0022C6  C064  F03A         	movff	_CCP_PWM_Config$4073+1,___flmul@b+1
  2347   0022CA  C065  F03B         	movff	_CCP_PWM_Config$4073+2,___flmul@b+2
  2348   0022CE  C066  F03C         	movff	_CCP_PWM_Config$4073+3,___flmul@b+3
  2349   0022D2  EC80  F00A         	call	___flmul	;wreg free
  2350   0022D6  C039  F014         	movff	?___flmul,___fldiv@a
  2351   0022DA  C03A  F015         	movff	?___flmul+1,___fldiv@a+1
  2352   0022DE  C03B  F016         	movff	?___flmul+2,___fldiv@a+2
  2353   0022E2  C03C  F017         	movff	?___flmul+3,___fldiv@a+3
  2354   0022E6  0E00               	movlw	0
  2355   0022E8  6E10               	movwf	___fldiv@b^0,c
  2356   0022EA  0E24               	movlw	36
  2357   0022EC  6E11               	movwf	(___fldiv@b+1)^0,c
  2358   0022EE  0E74               	movlw	116
  2359   0022F0  6E12               	movwf	(___fldiv@b+2)^0,c
  2360   0022F2  0E4A               	movlw	74
  2361   0022F4  6E13               	movwf	(___fldiv@b+3)^0,c
  2362   0022F6  EC95  F00C         	call	___fldiv	;wreg free
  2363   0022FA  C010  F029         	movff	?___fldiv,___fladd@b
  2364   0022FE  C011  F02A         	movff	?___fldiv+1,___fladd@b+1
  2365   002302  C012  F02B         	movff	?___fldiv+2,___fladd@b+2
  2366   002306  C013  F02C         	movff	?___fldiv+3,___fladd@b+3
  2367   00230A  EC20  F008         	call	___fladd	;wreg free
  2368   00230E  C029  F052         	movff	?___fladd,___fltol@f1
  2369   002312  C02A  F053         	movff	?___fladd+1,___fltol@f1+1
  2370   002316  C02B  F054         	movff	?___fladd+2,___fltol@f1+2
  2371   00231A  C02C  F055         	movff	?___fladd+3,___fltol@f1+3
  2372   00231E  EC5B  F014         	call	___fltol	;wreg free
  2373   002322  5052               	movf	?___fltol^0,w,c
  2374   002324  6ECB               	movwf	203,c	;volatile
  2375   002326                     
  2376                           ;MCAL_Layer/CCP/hal_cpp.c: 327:         if(ccp->ccpx == CCP1_INST){
  2377   002326  505C               	movf	CCP_PWM_Config@ccp^0,w,c
  2378   002328  6ED9               	movwf	fsr2l,c
  2379   00232A  6ADA               	clrf	fsr2h,c
  2380   00232C  50DF               	movf	indf2,w,c
  2381   00232E  A4D8               	btfss	status,2,c
  2382   002330  EF9C  F011         	goto	u4731
  2383   002334  EF9E  F011         	goto	u4730
  2384   002338                     u4731:
  2385   002338  EFA4  F011         	goto	l5469
  2386   00233C                     u4730:
  2387   00233C                     
  2388                           ;MCAL_Layer/CCP/hal_cpp.c: 328:             (CCP1CONbits.CCP1M = ((uint8)0x0C));
  2389   00233C  50BD               	movf	189,w,c	;volatile
  2390   00233E  0BF0               	andlw	-16
  2391   002340  090C               	iorlw	12
  2392   002342  6EBD               	movwf	189,c	;volatile
  2393                           
  2394                           ;MCAL_Layer/CCP/hal_cpp.c: 329:         }
  2395   002344  EFB5  F011         	goto	l5473
  2396   002348                     l5469:
  2397   002348  505C               	movf	CCP_PWM_Config@ccp^0,w,c
  2398   00234A  6ED9               	movwf	fsr2l,c
  2399   00234C  6ADA               	clrf	fsr2h,c
  2400   00234E  04DE               	decf	postinc2,w,c
  2401   002350  A4D8               	btfss	status,2,c
  2402   002352  EFAD  F011         	goto	u4741
  2403   002356  EFAF  F011         	goto	u4740
  2404   00235A                     u4741:
  2405   00235A  EFB5  F011         	goto	l1321
  2406   00235E                     u4740:
  2407   00235E                     
  2408                           ;MCAL_Layer/CCP/hal_cpp.c: 331:             (CCP2CONbits.CCP2M = ((uint8)0x0C));
  2409   00235E  50BA               	movf	186,w,c	;volatile
  2410   002360  0BF0               	andlw	-16
  2411   002362  090C               	iorlw	12
  2412   002364  6EBA               	movwf	186,c	;volatile
  2413                           
  2414                           ;MCAL_Layer/CCP/hal_cpp.c: 332:         }
  2415   002366  EFB5  F011         	goto	l5473
  2416   00236A                     l1321:
  2417   00236A                     l5473:
  2418                           
  2419                           ;MCAL_Layer/CCP/hal_cpp.c: 335:     return ret;
  2420   00236A  5067               	movf	CCP_PWM_Config@ret^0,w,c
  2421   00236C  0012               	return		;funcret
  2422   00236E                     __end_of_CCP_PWM_Config:
  2423                           	callstack 0
  2424                           
  2425 ;; *************** function ___xxtofl *****************
  2426 ;; Defined at:
  2427 ;;		line 10 in file "C:\Program Files\Microchip\xc8\v2.46\pic\sources\c99\common\xxtofl.c"
  2428 ;; Parameters:    Size  Location     Type
  2429 ;;  sign            1    wreg     unsigned char 
  2430 ;;  val             4    1[COMRAM] long 
  2431 ;; Auto vars:     Size  Location     Type
  2432 ;;  sign            1    9[COMRAM] unsigned char 
  2433 ;;  arg             4   11[COMRAM] unsigned long 
  2434 ;;  exp             1   10[COMRAM] unsigned char 
  2435 ;; Return value:  Size  Location     Type
  2436 ;;                  4    1[COMRAM] unsigned char 
  2437 ;; Registers used:
  2438 ;;		wreg, status,2, status,0
  2439 ;; Tracked objects:
  2440 ;;		On entry : 0/0
  2441 ;;		On exit  : 0/0
  2442 ;;		Unchanged: 0/0
  2443 ;; Data sizes:     COMRAM   BANK0   BANK1   BANK2   BANK3   BANK4   BANK5   BANK6   BANK7   BANK8   BANK9  BANK10  BANK1
      +1  BANK12  BANK13  BANK14  BANK15
  2444 ;;      Params:         4       0       0       0       0       0       0       0       0       0       0       0       
      +0       0       0       0       0
  2445 ;;      Locals:         6       0       0       0       0       0       0       0       0       0       0       0       
      +0       0       0       0       0
  2446 ;;      Temps:          4       0       0       0       0       0       0       0       0       0       0       0       
      +0       0       0       0       0
  2447 ;;      Totals:        14       0       0       0       0       0       0       0       0       0       0       0       
      +0       0       0       0       0
  2448 ;;Total ram usage:       14 bytes
  2449 ;; Hardware stack levels used: 1
  2450 ;; Hardware stack levels required when called: 2
  2451 ;; This function calls:
  2452 ;;		Nothing
  2453 ;; This function is called by:
  2454 ;;		_CCP_PWM_Set_Duty
  2455 ;;		_CCP_PWM_Config
  2456 ;; This function uses a non-reentrant model
  2457 ;;
  2458                           
  2459                           	psect	text12
  2460   00200A                     __ptext12:
  2461                           	callstack 0
  2462   00200A                     ___xxtofl:
  2463                           	callstack 27
  2464                           
  2465                           ;incstack = 0
  2466                           ;___xxtofl@sign stored from wreg
  2467   00200A  6E0A               	movwf	___xxtofl@sign^0,c
  2468   00200C  500A               	movf	___xxtofl@sign^0,w,c
  2469   00200E  B4D8               	btfsc	status,2,c
  2470   002010  EF0C  F010         	goto	u4441
  2471   002014  EF0E  F010         	goto	u4440
  2472   002018                     u4441:
  2473   002018  EF30  F010         	goto	l1992
  2474   00201C                     u4440:
  2475   00201C  BE05               	btfsc	(___xxtofl@val+3)^0,7,c
  2476   00201E  EF15  F010         	goto	u4450
  2477   002022  EF13  F010         	goto	u4451
  2478   002026                     u4451:
  2479   002026  EF30  F010         	goto	l1992
  2480   00202A                     u4450:
  2481   00202A  C002  F006         	movff	___xxtofl@val,??___xxtofl
  2482   00202E  C003  F007         	movff	___xxtofl@val+1,??___xxtofl+1
  2483   002032  C004  F008         	movff	___xxtofl@val+2,??___xxtofl+2
  2484   002036  C005  F009         	movff	___xxtofl@val+3,??___xxtofl+3
  2485   00203A  1E06               	comf	??___xxtofl^0,f,c
  2486   00203C  1E07               	comf	(??___xxtofl+1)^0,f,c
  2487   00203E  1E08               	comf	(??___xxtofl+2)^0,f,c
  2488   002040  1E09               	comf	(??___xxtofl+3)^0,f,c
  2489   002042  2A06               	incf	??___xxtofl^0,f,c
  2490   002044  0E00               	movlw	0
  2491   002046  2207               	addwfc	(??___xxtofl+1)^0,f,c
  2492   002048  2208               	addwfc	(??___xxtofl+2)^0,f,c
  2493   00204A  2209               	addwfc	(??___xxtofl+3)^0,f,c
  2494   00204C  C006  F00C         	movff	??___xxtofl,___xxtofl@arg
  2495   002050  C007  F00D         	movff	??___xxtofl+1,___xxtofl@arg+1
  2496   002054  C008  F00E         	movff	??___xxtofl+2,___xxtofl@arg+2
  2497   002058  C009  F00F         	movff	??___xxtofl+3,___xxtofl@arg+3
  2498   00205C  EF38  F010         	goto	l5235
  2499   002060                     l1992:
  2500   002060  C002  F00C         	movff	___xxtofl@val,___xxtofl@arg
  2501   002064  C003  F00D         	movff	___xxtofl@val+1,___xxtofl@arg+1
  2502   002068  C004  F00E         	movff	___xxtofl@val+2,___xxtofl@arg+2
  2503   00206C  C005  F00F         	movff	___xxtofl@val+3,___xxtofl@arg+3
  2504   002070                     l5235:
  2505   002070  5002               	movf	___xxtofl@val^0,w,c
  2506   002072  1003               	iorwf	(___xxtofl@val+1)^0,w,c
  2507   002074  1004               	iorwf	(___xxtofl@val+2)^0,w,c
  2508   002076  1005               	iorwf	(___xxtofl@val+3)^0,w,c
  2509   002078  A4D8               	btfss	status,2,c
  2510   00207A  EF41  F010         	goto	u4461
  2511   00207E  EF43  F010         	goto	u4460
  2512   002082                     u4461:
  2513   002082  EF4D  F010         	goto	l5241
  2514   002086                     u4460:
  2515   002086  0E00               	movlw	0
  2516   002088  6E02               	movwf	?___xxtofl^0,c
  2517   00208A  0E00               	movlw	0
  2518   00208C  6E03               	movwf	(?___xxtofl+1)^0,c
  2519   00208E  0E00               	movlw	0
  2520   002090  6E04               	movwf	(?___xxtofl+2)^0,c
  2521   002092  0E00               	movlw	0
  2522   002094  6E05               	movwf	(?___xxtofl+3)^0,c
  2523   002096  EFDE  F010         	goto	l1995
  2524   00209A                     l5241:
  2525   00209A  0E96               	movlw	150
  2526   00209C  6E0B               	movwf	___xxtofl@exp^0,c
  2527   00209E  EF57  F010         	goto	l5245
  2528   0020A2                     l5243:
  2529   0020A2  2A0B               	incf	___xxtofl@exp^0,f,c
  2530   0020A4  90D8               	bcf	status,0,c
  2531   0020A6  320F               	rrcf	(___xxtofl@arg+3)^0,f,c
  2532   0020A8  320E               	rrcf	(___xxtofl@arg+2)^0,f,c
  2533   0020AA  320D               	rrcf	(___xxtofl@arg+1)^0,f,c
  2534   0020AC  320C               	rrcf	___xxtofl@arg^0,f,c
  2535   0020AE                     l5245:
  2536   0020AE  0E00               	movlw	0
  2537   0020B0  140C               	andwf	___xxtofl@arg^0,w,c
  2538   0020B2  6E06               	movwf	??___xxtofl^0,c
  2539   0020B4  0E00               	movlw	0
  2540   0020B6  140D               	andwf	(___xxtofl@arg+1)^0,w,c
  2541   0020B8  6E07               	movwf	(??___xxtofl+1)^0,c
  2542   0020BA  0E00               	movlw	0
  2543   0020BC  140E               	andwf	(___xxtofl@arg+2)^0,w,c
  2544   0020BE  6E08               	movwf	(??___xxtofl+2)^0,c
  2545   0020C0  0EFE               	movlw	254
  2546   0020C2  140F               	andwf	(___xxtofl@arg+3)^0,w,c
  2547   0020C4  6E09               	movwf	(??___xxtofl+3)^0,c
  2548   0020C6  5006               	movf	??___xxtofl^0,w,c
  2549   0020C8  1007               	iorwf	(??___xxtofl+1)^0,w,c
  2550   0020CA  1008               	iorwf	(??___xxtofl+2)^0,w,c
  2551   0020CC  1009               	iorwf	(??___xxtofl+3)^0,w,c
  2552   0020CE  A4D8               	btfss	status,2,c
  2553   0020D0  EF6C  F010         	goto	u4471
  2554   0020D4  EF6E  F010         	goto	u4470
  2555   0020D8                     u4471:
  2556   0020D8  EF51  F010         	goto	l5243
  2557   0020DC                     u4470:
  2558   0020DC  EF7C  F010         	goto	l1999
  2559   0020E0                     l5247:
  2560   0020E0  2A0B               	incf	___xxtofl@exp^0,f,c
  2561   0020E2  0E01               	movlw	1
  2562   0020E4  260C               	addwf	___xxtofl@arg^0,f,c
  2563   0020E6  0E00               	movlw	0
  2564   0020E8  220D               	addwfc	(___xxtofl@arg+1)^0,f,c
  2565   0020EA  220E               	addwfc	(___xxtofl@arg+2)^0,f,c
  2566   0020EC  220F               	addwfc	(___xxtofl@arg+3)^0,f,c
  2567   0020EE  90D8               	bcf	status,0,c
  2568   0020F0  320F               	rrcf	(___xxtofl@arg+3)^0,f,c
  2569   0020F2  320E               	rrcf	(___xxtofl@arg+2)^0,f,c
  2570   0020F4  320D               	rrcf	(___xxtofl@arg+1)^0,f,c
  2571   0020F6  320C               	rrcf	___xxtofl@arg^0,f,c
  2572   0020F8                     l1999:
  2573   0020F8  0E00               	movlw	0
  2574   0020FA  140C               	andwf	___xxtofl@arg^0,w,c
  2575   0020FC  6E06               	movwf	??___xxtofl^0,c
  2576   0020FE  0E00               	movlw	0
  2577   002100  140D               	andwf	(___xxtofl@arg+1)^0,w,c
  2578   002102  6E07               	movwf	(??___xxtofl+1)^0,c
  2579   002104  0E00               	movlw	0
  2580   002106  140E               	andwf	(___xxtofl@arg+2)^0,w,c
  2581   002108  6E08               	movwf	(??___xxtofl+2)^0,c
  2582   00210A  0EFF               	movlw	255
  2583   00210C  140F               	andwf	(___xxtofl@arg+3)^0,w,c
  2584   00210E  6E09               	movwf	(??___xxtofl+3)^0,c
  2585   002110  5006               	movf	??___xxtofl^0,w,c
  2586   002112  1007               	iorwf	(??___xxtofl+1)^0,w,c
  2587   002114  1008               	iorwf	(??___xxtofl+2)^0,w,c
  2588   002116  1009               	iorwf	(??___xxtofl+3)^0,w,c
  2589   002118  A4D8               	btfss	status,2,c
  2590   00211A  EF91  F010         	goto	u4481
  2591   00211E  EF93  F010         	goto	u4480
  2592   002122                     u4481:
  2593   002122  EF70  F010         	goto	l5247
  2594   002126                     u4480:
  2595   002126  EF9B  F010         	goto	l5255
  2596   00212A                     l5253:
  2597   00212A  060B               	decf	___xxtofl@exp^0,f,c
  2598   00212C  90D8               	bcf	status,0,c
  2599   00212E  360C               	rlcf	___xxtofl@arg^0,f,c
  2600   002130  360D               	rlcf	(___xxtofl@arg+1)^0,f,c
  2601   002132  360E               	rlcf	(___xxtofl@arg+2)^0,f,c
  2602   002134  360F               	rlcf	(___xxtofl@arg+3)^0,f,c
  2603   002136                     l5255:
  2604   002136  BE0E               	btfsc	(___xxtofl@arg+2)^0,7,c
  2605   002138  EFA0  F010         	goto	u4491
  2606   00213C  EFA2  F010         	goto	u4490
  2607   002140                     u4491:
  2608   002140  EFAA  F010         	goto	l2006
  2609   002144                     u4490:
  2610   002144  0E02               	movlw	2
  2611   002146  600B               	cpfslt	___xxtofl@exp^0,c
  2612   002148  EFA8  F010         	goto	u4501
  2613   00214C  EFAA  F010         	goto	u4500
  2614   002150                     u4501:
  2615   002150  EF95  F010         	goto	l5253
  2616   002154                     u4500:
  2617   002154                     l2006:
  2618   002154  B00B               	btfsc	___xxtofl@exp^0,0,c
  2619   002156  EFAF  F010         	goto	u4511
  2620   00215A  EFB1  F010         	goto	u4510
  2621   00215E                     u4511:
  2622   00215E  EFB2  F010         	goto	l5261
  2623   002162                     u4510:
  2624   002162  9E0E               	bcf	(___xxtofl@arg+2)^0,7,c
  2625   002164                     l5261:
  2626   002164  90D8               	bcf	status,0,c
  2627   002166  320B               	rrcf	___xxtofl@exp^0,f,c
  2628   002168  C00B  F006         	movff	___xxtofl@exp,??___xxtofl
  2629   00216C  6A07               	clrf	(??___xxtofl+1)^0,c
  2630   00216E  6A08               	clrf	(??___xxtofl+2)^0,c
  2631   002170  6A09               	clrf	(??___xxtofl+3)^0,c
  2632   002172  C006  F009         	movff	??___xxtofl,??___xxtofl+3
  2633   002176  6A08               	clrf	(??___xxtofl+2)^0,c
  2634   002178  6A07               	clrf	(??___xxtofl+1)^0,c
  2635   00217A  6A06               	clrf	??___xxtofl^0,c
  2636   00217C  5006               	movf	??___xxtofl^0,w,c
  2637   00217E  120C               	iorwf	___xxtofl@arg^0,f,c
  2638   002180  5007               	movf	(??___xxtofl+1)^0,w,c
  2639   002182  120D               	iorwf	(___xxtofl@arg+1)^0,f,c
  2640   002184  5008               	movf	(??___xxtofl+2)^0,w,c
  2641   002186  120E               	iorwf	(___xxtofl@arg+2)^0,f,c
  2642   002188  5009               	movf	(??___xxtofl+3)^0,w,c
  2643   00218A  120F               	iorwf	(___xxtofl@arg+3)^0,f,c
  2644   00218C  500A               	movf	___xxtofl@sign^0,w,c
  2645   00218E  B4D8               	btfsc	status,2,c
  2646   002190  EFCC  F010         	goto	u4521
  2647   002194  EFCE  F010         	goto	u4520
  2648   002198                     u4521:
  2649   002198  EFD6  F010         	goto	l5271
  2650   00219C                     u4520:
  2651   00219C  BE05               	btfsc	(___xxtofl@val+3)^0,7,c
  2652   00219E  EFD5  F010         	goto	u4530
  2653   0021A2  EFD3  F010         	goto	u4531
  2654   0021A6                     u4531:
  2655   0021A6  EFD6  F010         	goto	l5271
  2656   0021AA                     u4530:
  2657   0021AA  8E0F               	bsf	(___xxtofl@arg+3)^0,7,c
  2658   0021AC                     l5271:
  2659   0021AC  C00C  F002         	movff	___xxtofl@arg,?___xxtofl
  2660   0021B0  C00D  F003         	movff	___xxtofl@arg+1,?___xxtofl+1
  2661   0021B4  C00E  F004         	movff	___xxtofl@arg+2,?___xxtofl+2
  2662   0021B8  C00F  F005         	movff	___xxtofl@arg+3,?___xxtofl+3
  2663   0021BC                     l1995:
  2664   0021BC  0012               	return		;funcret
  2665   0021BE                     __end_of___xxtofl:
  2666                           	callstack 0
  2667                           
  2668 ;; *************** function ___fltol *****************
  2669 ;; Defined at:
  2670 ;;		line 43 in file "C:\Program Files\Microchip\xc8\v2.46\pic\sources\c99\common\fltol.c"
  2671 ;; Parameters:    Size  Location     Type
  2672 ;;  f1              4   81[COMRAM] unsigned char 
  2673 ;; Auto vars:     Size  Location     Type
  2674 ;;  exp1            1   90[COMRAM] unsigned char 
  2675 ;;  sign1           1   89[COMRAM] unsigned char 
  2676 ;; Return value:  Size  Location     Type
  2677 ;;                  4   81[COMRAM] long 
  2678 ;; Registers used:
  2679 ;;		wreg, status,2, status,0
  2680 ;; Tracked objects:
  2681 ;;		On entry : 0/0
  2682 ;;		On exit  : 0/0
  2683 ;;		Unchanged: 0/0
  2684 ;; Data sizes:     COMRAM   BANK0   BANK1   BANK2   BANK3   BANK4   BANK5   BANK6   BANK7   BANK8   BANK9  BANK10  BANK1
      +1  BANK12  BANK13  BANK14  BANK15
  2685 ;;      Params:         4       0       0       0       0       0       0       0       0       0       0       0       
      +0       0       0       0       0
  2686 ;;      Locals:         2       0       0       0       0       0       0       0       0       0       0       0       
      +0       0       0       0       0
  2687 ;;      Temps:          4       0       0       0       0       0       0       0       0       0       0       0       
      +0       0       0       0       0
  2688 ;;      Totals:        10       0       0       0       0       0       0       0       0       0       0       0       
      +0       0       0       0       0
  2689 ;;Total ram usage:       10 bytes
  2690 ;; Hardware stack levels used: 1
  2691 ;; Hardware stack levels required when called: 2
  2692 ;; This function calls:
  2693 ;;		Nothing
  2694 ;; This function is called by:
  2695 ;;		_CCP_PWM_Set_Duty
  2696 ;;		_CCP_PWM_Config
  2697 ;; This function uses a non-reentrant model
  2698 ;;
  2699                           
  2700                           	psect	text13
  2701   0028B6                     __ptext13:
  2702                           	callstack 0
  2703   0028B6                     ___fltol:
  2704                           	callstack 27
  2705   0028B6  3454               	rlcf	(___fltol@f1+2)^0,w,c
  2706   0028B8  3455               	rlcf	(___fltol@f1+3)^0,w,c
  2707   0028BA  6E5B               	movwf	___fltol@exp1^0,c
  2708   0028BC  505B               	movf	___fltol@exp1^0,w,c
  2709   0028BE  A4D8               	btfss	status,2,c
  2710   0028C0  EF64  F014         	goto	u4371
  2711   0028C4  EF66  F014         	goto	u4370
  2712   0028C8                     u4371:
  2713   0028C8  EF70  F014         	goto	l5191
  2714   0028CC                     u4370:
  2715   0028CC                     l5187:
  2716   0028CC  0E00               	movlw	0
  2717   0028CE  6E52               	movwf	?___fltol^0,c
  2718   0028D0  0E00               	movlw	0
  2719   0028D2  6E53               	movwf	(?___fltol+1)^0,c
  2720   0028D4  0E00               	movlw	0
  2721   0028D6  6E54               	movwf	(?___fltol+2)^0,c
  2722   0028D8  0E00               	movlw	0
  2723   0028DA  6E55               	movwf	(?___fltol+3)^0,c
  2724   0028DC  EFDD  F014         	goto	l1634
  2725   0028E0                     l5191:
  2726   0028E0  C052  F056         	movff	___fltol@f1,??___fltol
  2727   0028E4  C053  F057         	movff	___fltol@f1+1,??___fltol+1
  2728   0028E8  C054  F058         	movff	___fltol@f1+2,??___fltol+2
  2729   0028EC  C055  F059         	movff	___fltol@f1+3,??___fltol+3
  2730   0028F0  0E20               	movlw	32
  2731   0028F2  EF80  F014         	goto	u4380
  2732   0028F6                     u4385:
  2733   0028F6  90D8               	bcf	status,0,c
  2734   0028F8  3259               	rrcf	(??___fltol+3)^0,f,c
  2735   0028FA  3258               	rrcf	(??___fltol+2)^0,f,c
  2736   0028FC  3257               	rrcf	(??___fltol+1)^0,f,c
  2737   0028FE  3256               	rrcf	??___fltol^0,f,c
  2738   002900                     u4380:
  2739   002900  2EE8               	decfsz	wreg,f,c
  2740   002902  EF7B  F014         	goto	u4385
  2741   002906  5056               	movf	??___fltol^0,w,c
  2742   002908  6E5A               	movwf	___fltol@sign1^0,c
  2743   00290A  8E54               	bsf	(___fltol@f1+2)^0,7,c
  2744   00290C  0EFF               	movlw	255
  2745   00290E  1652               	andwf	___fltol@f1^0,f,c
  2746   002910  0EFF               	movlw	255
  2747   002912  1653               	andwf	(___fltol@f1+1)^0,f,c
  2748   002914  0EFF               	movlw	255
  2749   002916  1654               	andwf	(___fltol@f1+2)^0,f,c
  2750   002918  0E00               	movlw	0
  2751   00291A  1655               	andwf	(___fltol@f1+3)^0,f,c
  2752   00291C  0E96               	movlw	150
  2753   00291E  5E5B               	subwf	___fltol@exp1^0,f,c
  2754   002920  BE5B               	btfsc	___fltol@exp1^0,7,c
  2755   002922  EF97  F014         	goto	u4390
  2756   002926  EF95  F014         	goto	u4391
  2757   00292A                     u4391:
  2758   00292A  EFAD  F014         	goto	l5211
  2759   00292E                     u4390:
  2760   00292E  505B               	movf	___fltol@exp1^0,w,c
  2761   002930  0A80               	xorlw	128
  2762   002932  0F97               	addlw	151
  2763   002934  B0D8               	btfsc	status,0,c
  2764   002936  EF9F  F014         	goto	u4401
  2765   00293A  EFA1  F014         	goto	u4400
  2766   00293E                     u4401:
  2767   00293E  EFA3  F014         	goto	l5207
  2768   002942                     u4400:
  2769   002942  EF66  F014         	goto	l5187
  2770   002946                     l5207:
  2771   002946  90D8               	bcf	status,0,c
  2772   002948  3255               	rrcf	(___fltol@f1+3)^0,f,c
  2773   00294A  3254               	rrcf	(___fltol@f1+2)^0,f,c
  2774   00294C  3253               	rrcf	(___fltol@f1+1)^0,f,c
  2775   00294E  3252               	rrcf	___fltol@f1^0,f,c
  2776   002950  3E5B               	incfsz	___fltol@exp1^0,f,c
  2777   002952  EFA3  F014         	goto	l5207
  2778   002956  EFC5  F014         	goto	l5221
  2779   00295A                     l5211:
  2780   00295A  0E1F               	movlw	31
  2781   00295C  645B               	cpfsgt	___fltol@exp1^0,c
  2782   00295E  EFB3  F014         	goto	u4411
  2783   002962  EFB5  F014         	goto	u4410
  2784   002966                     u4411:
  2785   002966  EFBD  F014         	goto	l5219
  2786   00296A                     u4410:
  2787   00296A  EF66  F014         	goto	l5187
  2788   00296E                     l5217:
  2789   00296E  90D8               	bcf	status,0,c
  2790   002970  3652               	rlcf	___fltol@f1^0,f,c
  2791   002972  3653               	rlcf	(___fltol@f1+1)^0,f,c
  2792   002974  3654               	rlcf	(___fltol@f1+2)^0,f,c
  2793   002976  3655               	rlcf	(___fltol@f1+3)^0,f,c
  2794   002978  065B               	decf	___fltol@exp1^0,f,c
  2795   00297A                     l5219:
  2796   00297A  505B               	movf	___fltol@exp1^0,w,c
  2797   00297C  A4D8               	btfss	status,2,c
  2798   00297E  EFC3  F014         	goto	u4421
  2799   002982  EFC5  F014         	goto	u4420
  2800   002986                     u4421:
  2801   002986  EFB7  F014         	goto	l5217
  2802   00298A                     u4420:
  2803   00298A                     l5221:
  2804   00298A  505A               	movf	___fltol@sign1^0,w,c
  2805   00298C  B4D8               	btfsc	status,2,c
  2806   00298E  EFCB  F014         	goto	u4431
  2807   002992  EFCD  F014         	goto	u4430
  2808   002996                     u4431:
  2809   002996  EFD5  F014         	goto	l5225
  2810   00299A                     u4430:
  2811   00299A  1E55               	comf	(___fltol@f1+3)^0,f,c
  2812   00299C  1E54               	comf	(___fltol@f1+2)^0,f,c
  2813   00299E  1E53               	comf	(___fltol@f1+1)^0,f,c
  2814   0029A0  6C52               	negf	___fltol@f1^0,c
  2815   0029A2  0E00               	movlw	0
  2816   0029A4  2253               	addwfc	(___fltol@f1+1)^0,f,c
  2817   0029A6  2254               	addwfc	(___fltol@f1+2)^0,f,c
  2818   0029A8  2255               	addwfc	(___fltol@f1+3)^0,f,c
  2819   0029AA                     l5225:
  2820   0029AA  C052  F052         	movff	___fltol@f1,?___fltol
  2821   0029AE  C053  F053         	movff	___fltol@f1+1,?___fltol+1
  2822   0029B2  C054  F054         	movff	___fltol@f1+2,?___fltol+2
  2823   0029B6  C055  F055         	movff	___fltol@f1+3,?___fltol+3
  2824   0029BA                     l1634:
  2825   0029BA  0012               	return		;funcret
  2826   0029BC                     __end_of___fltol:
  2827                           	callstack 0
  2828                           
  2829 ;; *************** function ___flmul *****************
  2830 ;; Defined at:
  2831 ;;		line 8 in file "C:\Program Files\Microchip\xc8\v2.46\pic\sources\c99\common\sprcmul.c"
  2832 ;; Parameters:    Size  Location     Type
  2833 ;;  b               4   56[COMRAM] long 
  2834 ;;  a               4   60[COMRAM] long 
  2835 ;; Auto vars:     Size  Location     Type
  2836 ;;  prod            4   75[COMRAM] struct .
  2837 ;;  grs             4   69[COMRAM] unsigned long 
  2838 ;;  temp            2   79[COMRAM] struct .
  2839 ;;  bexp            1   74[COMRAM] unsigned char 
  2840 ;;  aexp            1   73[COMRAM] unsigned char 
  2841 ;;  sign            1   68[COMRAM] unsigned char 
  2842 ;; Return value:  Size  Location     Type
  2843 ;;                  4   56[COMRAM] unsigned char 
  2844 ;; Registers used:
  2845 ;;		wreg, status,2, status,0, prodl, prodh
  2846 ;; Tracked objects:
  2847 ;;		On entry : 0/0
  2848 ;;		On exit  : 0/0
  2849 ;;		Unchanged: 0/0
  2850 ;; Data sizes:     COMRAM   BANK0   BANK1   BANK2   BANK3   BANK4   BANK5   BANK6   BANK7   BANK8   BANK9  BANK10  BANK1
      +1  BANK12  BANK13  BANK14  BANK15
  2851 ;;      Params:         8       0       0       0       0       0       0       0       0       0       0       0       
      +0       0       0       0       0
  2852 ;;      Locals:        13       0       0       0       0       0       0       0       0       0       0       0       
      +0       0       0       0       0
  2853 ;;      Temps:          4       0       0       0       0       0       0       0       0       0       0       0       
      +0       0       0       0       0
  2854 ;;      Totals:        25       0       0       0       0       0       0       0       0       0       0       0       
      +0       0       0       0       0
  2855 ;;Total ram usage:       25 bytes
  2856 ;; Hardware stack levels used: 1
  2857 ;; Hardware stack levels required when called: 2
  2858 ;; This function calls:
  2859 ;;		Nothing
  2860 ;; This function is called by:
  2861 ;;		_CCP_PWM_Set_Duty
  2862 ;;		_CCP_PWM_Config
  2863 ;; This function uses a non-reentrant model
  2864 ;;
  2865                           
  2866                           	psect	text14
  2867   001500                     __ptext14:
  2868                           	callstack 0
  2869   001500                     ___flmul:
  2870                           	callstack 27
  2871   001500  503C               	movf	(___flmul@b+3)^0,w,c
  2872   001502  0B80               	andlw	128
  2873   001504  6E45               	movwf	___flmul@sign^0,c
  2874   001506  503C               	movf	(___flmul@b+3)^0,w,c
  2875   001508  243C               	addwf	(___flmul@b+3)^0,w,c
  2876   00150A  6E4B               	movwf	___flmul@bexp^0,c
  2877   00150C  AE3B               	btfss	(___flmul@b+2)^0,7,c
  2878   00150E  EF8B  F00A         	goto	u4181
  2879   001512  EF8D  F00A         	goto	u4180
  2880   001516                     u4181:
  2881   001516  EF8E  F00A         	goto	l5061
  2882   00151A                     u4180:
  2883   00151A  804B               	bsf	___flmul@bexp^0,0,c
  2884   00151C                     l5061:
  2885   00151C  504B               	movf	___flmul@bexp^0,w,c
  2886   00151E  B4D8               	btfsc	status,2,c
  2887   001520  EF94  F00A         	goto	u4191
  2888   001524  EF96  F00A         	goto	u4190
  2889   001528                     u4191:
  2890   001528  EFA9  F00A         	goto	l5069
  2891   00152C                     u4190:
  2892   00152C  284B               	incf	___flmul@bexp^0,w,c
  2893   00152E  A4D8               	btfss	status,2,c
  2894   001530  EF9C  F00A         	goto	u4201
  2895   001534  EF9E  F00A         	goto	u4200
  2896   001538                     u4201:
  2897   001538  EFA6  F00A         	goto	l5067
  2898   00153C                     u4200:
  2899   00153C  0E00               	movlw	0
  2900   00153E  6E39               	movwf	___flmul@b^0,c
  2901   001540  0E00               	movlw	0
  2902   001542  6E3A               	movwf	(___flmul@b+1)^0,c
  2903   001544  0E00               	movlw	0
  2904   001546  6E3B               	movwf	(___flmul@b+2)^0,c
  2905   001548  0E00               	movlw	0
  2906   00154A  6E3C               	movwf	(___flmul@b+3)^0,c
  2907   00154C                     l5067:
  2908   00154C  8E3B               	bsf	(___flmul@b+2)^0,7,c
  2909   00154E  EFB1  F00A         	goto	l5071
  2910   001552                     l5069:
  2911   001552  0E00               	movlw	0
  2912   001554  6E39               	movwf	___flmul@b^0,c
  2913   001556  0E00               	movlw	0
  2914   001558  6E3A               	movwf	(___flmul@b+1)^0,c
  2915   00155A  0E00               	movlw	0
  2916   00155C  6E3B               	movwf	(___flmul@b+2)^0,c
  2917   00155E  0E00               	movlw	0
  2918   001560  6E3C               	movwf	(___flmul@b+3)^0,c
  2919   001562                     l5071:
  2920   001562  5040               	movf	(___flmul@a+3)^0,w,c
  2921   001564  0B80               	andlw	128
  2922   001566  1A45               	xorwf	___flmul@sign^0,f,c
  2923   001568  5040               	movf	(___flmul@a+3)^0,w,c
  2924   00156A  2440               	addwf	(___flmul@a+3)^0,w,c
  2925   00156C  6E4A               	movwf	___flmul@aexp^0,c
  2926   00156E  AE3F               	btfss	(___flmul@a+2)^0,7,c
  2927   001570  EFBC  F00A         	goto	u4211
  2928   001574  EFBE  F00A         	goto	u4210
  2929   001578                     u4211:
  2930   001578  EFBF  F00A         	goto	l5079
  2931   00157C                     u4210:
  2932   00157C  804A               	bsf	___flmul@aexp^0,0,c
  2933   00157E                     l5079:
  2934   00157E  504A               	movf	___flmul@aexp^0,w,c
  2935   001580  B4D8               	btfsc	status,2,c
  2936   001582  EFC5  F00A         	goto	u4221
  2937   001586  EFC7  F00A         	goto	u4220
  2938   00158A                     u4221:
  2939   00158A  EFDA  F00A         	goto	l5087
  2940   00158E                     u4220:
  2941   00158E  284A               	incf	___flmul@aexp^0,w,c
  2942   001590  A4D8               	btfss	status,2,c
  2943   001592  EFCD  F00A         	goto	u4231
  2944   001596  EFCF  F00A         	goto	u4230
  2945   00159A                     u4231:
  2946   00159A  EFD7  F00A         	goto	l5085
  2947   00159E                     u4230:
  2948   00159E  0E00               	movlw	0
  2949   0015A0  6E3D               	movwf	___flmul@a^0,c
  2950   0015A2  0E00               	movlw	0
  2951   0015A4  6E3E               	movwf	(___flmul@a+1)^0,c
  2952   0015A6  0E00               	movlw	0
  2953   0015A8  6E3F               	movwf	(___flmul@a+2)^0,c
  2954   0015AA  0E00               	movlw	0
  2955   0015AC  6E40               	movwf	(___flmul@a+3)^0,c
  2956   0015AE                     l5085:
  2957   0015AE  8E3F               	bsf	(___flmul@a+2)^0,7,c
  2958   0015B0  EFE2  F00A         	goto	l1951
  2959   0015B4                     l5087:
  2960   0015B4  0E00               	movlw	0
  2961   0015B6  6E3D               	movwf	___flmul@a^0,c
  2962   0015B8  0E00               	movlw	0
  2963   0015BA  6E3E               	movwf	(___flmul@a+1)^0,c
  2964   0015BC  0E00               	movlw	0
  2965   0015BE  6E3F               	movwf	(___flmul@a+2)^0,c
  2966   0015C0  0E00               	movlw	0
  2967   0015C2  6E40               	movwf	(___flmul@a+3)^0,c
  2968   0015C4                     l1951:
  2969   0015C4  504A               	movf	___flmul@aexp^0,w,c
  2970   0015C6  B4D8               	btfsc	status,2,c
  2971   0015C8  EFE8  F00A         	goto	u4241
  2972   0015CC  EFEA  F00A         	goto	u4240
  2973   0015D0                     u4241:
  2974   0015D0  EFF2  F00A         	goto	l5091
  2975   0015D4                     u4240:
  2976   0015D4  504B               	movf	___flmul@bexp^0,w,c
  2977   0015D6  A4D8               	btfss	status,2,c
  2978   0015D8  EFF0  F00A         	goto	u4251
  2979   0015DC  EFF2  F00A         	goto	u4250
  2980   0015E0                     u4251:
  2981   0015E0  EFFC  F00A         	goto	l5095
  2982   0015E4                     u4250:
  2983   0015E4                     l5091:
  2984   0015E4  0E00               	movlw	0
  2985   0015E6  6E39               	movwf	?___flmul^0,c
  2986   0015E8  0E00               	movlw	0
  2987   0015EA  6E3A               	movwf	(?___flmul+1)^0,c
  2988   0015EC  0E00               	movlw	0
  2989   0015EE  6E3B               	movwf	(?___flmul+2)^0,c
  2990   0015F0  0E00               	movlw	0
  2991   0015F2  6E3C               	movwf	(?___flmul+3)^0,c
  2992   0015F4  EF94  F00C         	goto	l1955
  2993   0015F8                     l5095:
  2994   0015F8  503F               	movf	(___flmul@a+2)^0,w,c
  2995   0015FA  0239               	mulwf	___flmul@b^0,c
  2996   0015FC  CFF3 F050          	movff	prodl,___flmul@temp
  2997   001600  CFF4 F051          	movff	prodh,___flmul@temp+1
  2998   001604  5050               	movf	___flmul@temp^0,w,c
  2999   001606  6E46               	movwf	___flmul@grs^0,c
  3000   001608  6A47               	clrf	(___flmul@grs+1)^0,c
  3001   00160A  6A48               	clrf	(___flmul@grs+2)^0,c
  3002   00160C  6A49               	clrf	(___flmul@grs+3)^0,c
  3003   00160E  5051               	movf	(___flmul@temp+1)^0,w,c
  3004   001610  6E4C               	movwf	___flmul@prod^0,c
  3005   001612  6A4D               	clrf	(___flmul@prod+1)^0,c
  3006   001614  6A4E               	clrf	(___flmul@prod+2)^0,c
  3007   001616  6A4F               	clrf	(___flmul@prod+3)^0,c
  3008   001618  503E               	movf	(___flmul@a+1)^0,w,c
  3009   00161A  023A               	mulwf	(___flmul@b+1)^0,c
  3010   00161C  CFF3 F050          	movff	prodl,___flmul@temp
  3011   001620  CFF4 F051          	movff	prodh,___flmul@temp+1
  3012   001624  5050               	movf	___flmul@temp^0,w,c
  3013   001626  2646               	addwf	___flmul@grs^0,f,c
  3014   001628  0E00               	movlw	0
  3015   00162A  2247               	addwfc	(___flmul@grs+1)^0,f,c
  3016   00162C  2248               	addwfc	(___flmul@grs+2)^0,f,c
  3017   00162E  2249               	addwfc	(___flmul@grs+3)^0,f,c
  3018   001630  5051               	movf	(___flmul@temp+1)^0,w,c
  3019   001632  264C               	addwf	___flmul@prod^0,f,c
  3020   001634  0E00               	movlw	0
  3021   001636  224D               	addwfc	(___flmul@prod+1)^0,f,c
  3022   001638  224E               	addwfc	(___flmul@prod+2)^0,f,c
  3023   00163A  224F               	addwfc	(___flmul@prod+3)^0,f,c
  3024   00163C  503D               	movf	___flmul@a^0,w,c
  3025   00163E  023B               	mulwf	(___flmul@b+2)^0,c
  3026   001640  CFF3 F050          	movff	prodl,___flmul@temp
  3027   001644  CFF4 F051          	movff	prodh,___flmul@temp+1
  3028   001648  5050               	movf	___flmul@temp^0,w,c
  3029   00164A  2646               	addwf	___flmul@grs^0,f,c
  3030   00164C  0E00               	movlw	0
  3031   00164E  2247               	addwfc	(___flmul@grs+1)^0,f,c
  3032   001650  2248               	addwfc	(___flmul@grs+2)^0,f,c
  3033   001652  2249               	addwfc	(___flmul@grs+3)^0,f,c
  3034   001654  5051               	movf	(___flmul@temp+1)^0,w,c
  3035   001656  264C               	addwf	___flmul@prod^0,f,c
  3036   001658  0E00               	movlw	0
  3037   00165A  224D               	addwfc	(___flmul@prod+1)^0,f,c
  3038   00165C  224E               	addwfc	(___flmul@prod+2)^0,f,c
  3039   00165E  224F               	addwfc	(___flmul@prod+3)^0,f,c
  3040   001660  C048  F049         	movff	___flmul@grs+2,___flmul@grs+3
  3041   001664  C047  F048         	movff	___flmul@grs+1,___flmul@grs+2
  3042   001668  C046  F047         	movff	___flmul@grs,___flmul@grs+1
  3043   00166C  6A46               	clrf	___flmul@grs^0,c
  3044   00166E  503D               	movf	___flmul@a^0,w,c
  3045   001670  023A               	mulwf	(___flmul@b+1)^0,c
  3046   001672  CFF3 F050          	movff	prodl,___flmul@temp
  3047   001676  CFF4 F051          	movff	prodh,___flmul@temp+1
  3048   00167A  5050               	movf	___flmul@temp^0,w,c
  3049   00167C  2646               	addwf	___flmul@grs^0,f,c
  3050   00167E  5051               	movf	(___flmul@temp+1)^0,w,c
  3051   001680  2247               	addwfc	(___flmul@grs+1)^0,f,c
  3052   001682  0E00               	movlw	0
  3053   001684  2248               	addwfc	(___flmul@grs+2)^0,f,c
  3054   001686  0E00               	movlw	0
  3055   001688  2249               	addwfc	(___flmul@grs+3)^0,f,c
  3056   00168A  503E               	movf	(___flmul@a+1)^0,w,c
  3057   00168C  0239               	mulwf	___flmul@b^0,c
  3058   00168E  CFF3 F050          	movff	prodl,___flmul@temp
  3059   001692  CFF4 F051          	movff	prodh,___flmul@temp+1
  3060   001696  5050               	movf	___flmul@temp^0,w,c
  3061   001698  2646               	addwf	___flmul@grs^0,f,c
  3062   00169A  5051               	movf	(___flmul@temp+1)^0,w,c
  3063   00169C  2247               	addwfc	(___flmul@grs+1)^0,f,c
  3064   00169E  0E00               	movlw	0
  3065   0016A0  2248               	addwfc	(___flmul@grs+2)^0,f,c
  3066   0016A2  0E00               	movlw	0
  3067   0016A4  2249               	addwfc	(___flmul@grs+3)^0,f,c
  3068   0016A6  C048  F049         	movff	___flmul@grs+2,___flmul@grs+3
  3069   0016AA  C047  F048         	movff	___flmul@grs+1,___flmul@grs+2
  3070   0016AE  C046  F047         	movff	___flmul@grs,___flmul@grs+1
  3071   0016B2  6A46               	clrf	___flmul@grs^0,c
  3072   0016B4  503D               	movf	___flmul@a^0,w,c
  3073   0016B6  0239               	mulwf	___flmul@b^0,c
  3074   0016B8  CFF3 F050          	movff	prodl,___flmul@temp
  3075   0016BC  CFF4 F051          	movff	prodh,___flmul@temp+1
  3076   0016C0  5050               	movf	___flmul@temp^0,w,c
  3077   0016C2  2646               	addwf	___flmul@grs^0,f,c
  3078   0016C4  5051               	movf	(___flmul@temp+1)^0,w,c
  3079   0016C6  2247               	addwfc	(___flmul@grs+1)^0,f,c
  3080   0016C8  0E00               	movlw	0
  3081   0016CA  2248               	addwfc	(___flmul@grs+2)^0,f,c
  3082   0016CC  0E00               	movlw	0
  3083   0016CE  2249               	addwfc	(___flmul@grs+3)^0,f,c
  3084   0016D0  503F               	movf	(___flmul@a+2)^0,w,c
  3085   0016D2  023A               	mulwf	(___flmul@b+1)^0,c
  3086   0016D4  CFF3 F050          	movff	prodl,___flmul@temp
  3087   0016D8  CFF4 F051          	movff	prodh,___flmul@temp+1
  3088   0016DC  5050               	movf	___flmul@temp^0,w,c
  3089   0016DE  264C               	addwf	___flmul@prod^0,f,c
  3090   0016E0  5051               	movf	(___flmul@temp+1)^0,w,c
  3091   0016E2  224D               	addwfc	(___flmul@prod+1)^0,f,c
  3092   0016E4  0E00               	movlw	0
  3093   0016E6  224E               	addwfc	(___flmul@prod+2)^0,f,c
  3094   0016E8  0E00               	movlw	0
  3095   0016EA  224F               	addwfc	(___flmul@prod+3)^0,f,c
  3096   0016EC  503E               	movf	(___flmul@a+1)^0,w,c
  3097   0016EE  023B               	mulwf	(___flmul@b+2)^0,c
  3098   0016F0  CFF3 F050          	movff	prodl,___flmul@temp
  3099   0016F4  CFF4 F051          	movff	prodh,___flmul@temp+1
  3100   0016F8  5050               	movf	___flmul@temp^0,w,c
  3101   0016FA  264C               	addwf	___flmul@prod^0,f,c
  3102   0016FC  5051               	movf	(___flmul@temp+1)^0,w,c
  3103   0016FE  224D               	addwfc	(___flmul@prod+1)^0,f,c
  3104   001700  0E00               	movlw	0
  3105   001702  224E               	addwfc	(___flmul@prod+2)^0,f,c
  3106   001704  0E00               	movlw	0
  3107   001706  224F               	addwfc	(___flmul@prod+3)^0,f,c
  3108   001708  503F               	movf	(___flmul@a+2)^0,w,c
  3109   00170A  023B               	mulwf	(___flmul@b+2)^0,c
  3110   00170C  CFF3 F050          	movff	prodl,___flmul@temp
  3111   001710  CFF4 F051          	movff	prodh,___flmul@temp+1
  3112   001714  5050               	movf	___flmul@temp^0,w,c
  3113   001716  6E41               	movwf	??___flmul^0,c
  3114   001718  5051               	movf	(___flmul@temp+1)^0,w,c
  3115   00171A  6E42               	movwf	(??___flmul+1)^0,c
  3116   00171C  6A43               	clrf	(??___flmul+2)^0,c
  3117   00171E  6A44               	clrf	(??___flmul+3)^0,c
  3118   001720  C043  F044         	movff	??___flmul+2,??___flmul+3
  3119   001724  C042  F043         	movff	??___flmul+1,??___flmul+2
  3120   001728  C041  F042         	movff	??___flmul,??___flmul+1
  3121   00172C  6A41               	clrf	??___flmul^0,c
  3122   00172E  5041               	movf	??___flmul^0,w,c
  3123   001730  264C               	addwf	___flmul@prod^0,f,c
  3124   001732  5042               	movf	(??___flmul+1)^0,w,c
  3125   001734  224D               	addwfc	(___flmul@prod+1)^0,f,c
  3126   001736  5043               	movf	(??___flmul+2)^0,w,c
  3127   001738  224E               	addwfc	(___flmul@prod+2)^0,f,c
  3128   00173A  5044               	movf	(??___flmul+3)^0,w,c
  3129   00173C  224F               	addwfc	(___flmul@prod+3)^0,f,c
  3130   00173E  C046  F041         	movff	___flmul@grs,??___flmul
  3131   001742  C047  F042         	movff	___flmul@grs+1,??___flmul+1
  3132   001746  C048  F043         	movff	___flmul@grs+2,??___flmul+2
  3133   00174A  C049  F044         	movff	___flmul@grs+3,??___flmul+3
  3134   00174E  0E19               	movlw	25
  3135   001750  EFAF  F00B         	goto	u4260
  3136   001754                     u4265:
  3137   001754  90D8               	bcf	status,0,c
  3138   001756  3244               	rrcf	(??___flmul+3)^0,f,c
  3139   001758  3243               	rrcf	(??___flmul+2)^0,f,c
  3140   00175A  3242               	rrcf	(??___flmul+1)^0,f,c
  3141   00175C  3241               	rrcf	??___flmul^0,f,c
  3142   00175E                     u4260:
  3143   00175E  2EE8               	decfsz	wreg,f,c
  3144   001760  EFAA  F00B         	goto	u4265
  3145   001764  5041               	movf	??___flmul^0,w,c
  3146   001766  264C               	addwf	___flmul@prod^0,f,c
  3147   001768  5042               	movf	(??___flmul+1)^0,w,c
  3148   00176A  224D               	addwfc	(___flmul@prod+1)^0,f,c
  3149   00176C  5043               	movf	(??___flmul+2)^0,w,c
  3150   00176E  224E               	addwfc	(___flmul@prod+2)^0,f,c
  3151   001770  5044               	movf	(??___flmul+3)^0,w,c
  3152   001772  224F               	addwfc	(___flmul@prod+3)^0,f,c
  3153   001774  C048  F049         	movff	___flmul@grs+2,___flmul@grs+3
  3154   001778  C047  F048         	movff	___flmul@grs+1,___flmul@grs+2
  3155   00177C  C046  F047         	movff	___flmul@grs,___flmul@grs+1
  3156   001780  6A46               	clrf	___flmul@grs^0,c
  3157   001782  504A               	movf	___flmul@aexp^0,w,c
  3158   001784  C04B  F041         	movff	___flmul@bexp,??___flmul
  3159   001788  6A42               	clrf	(??___flmul+1)^0,c
  3160   00178A  2641               	addwf	??___flmul^0,f,c
  3161   00178C  0E00               	movlw	0
  3162   00178E  2242               	addwfc	(??___flmul+1)^0,f,c
  3163   001790  0E82               	movlw	130
  3164   001792  2441               	addwf	??___flmul^0,w,c
  3165   001794  6E50               	movwf	___flmul@temp^0,c
  3166   001796  0EFF               	movlw	255
  3167   001798  2042               	addwfc	(??___flmul+1)^0,w,c
  3168   00179A  6E51               	movwf	(___flmul@temp+1)^0,c
  3169   00179C  EFE5  F00B         	goto	l5143
  3170   0017A0                     l5137:
  3171   0017A0  90D8               	bcf	status,0,c
  3172   0017A2  364C               	rlcf	___flmul@prod^0,f,c
  3173   0017A4  364D               	rlcf	(___flmul@prod+1)^0,f,c
  3174   0017A6  364E               	rlcf	(___flmul@prod+2)^0,f,c
  3175   0017A8  364F               	rlcf	(___flmul@prod+3)^0,f,c
  3176   0017AA  AE49               	btfss	(___flmul@grs+3)^0,7,c
  3177   0017AC  EFDA  F00B         	goto	u4271
  3178   0017B0  EFDC  F00B         	goto	u4270
  3179   0017B4                     u4271:
  3180   0017B4  EFDD  F00B         	goto	l1958
  3181   0017B8                     u4270:
  3182   0017B8  804C               	bsf	___flmul@prod^0,0,c
  3183   0017BA                     l1958:
  3184   0017BA  90D8               	bcf	status,0,c
  3185   0017BC  3646               	rlcf	___flmul@grs^0,f,c
  3186   0017BE  3647               	rlcf	(___flmul@grs+1)^0,f,c
  3187   0017C0  3648               	rlcf	(___flmul@grs+2)^0,f,c
  3188   0017C2  3649               	rlcf	(___flmul@grs+3)^0,f,c
  3189   0017C4  0650               	decf	___flmul@temp^0,f,c
  3190   0017C6  A0D8               	btfss	status,0,c
  3191   0017C8  0651               	decf	(___flmul@temp+1)^0,f,c
  3192   0017CA                     l5143:
  3193   0017CA  AE4E               	btfss	(___flmul@prod+2)^0,7,c
  3194   0017CC  EFEA  F00B         	goto	u4281
  3195   0017D0  EFEC  F00B         	goto	u4280
  3196   0017D4                     u4281:
  3197   0017D4  EFD0  F00B         	goto	l5137
  3198   0017D8                     u4280:
  3199   0017D8  0E00               	movlw	0
  3200   0017DA  6E4A               	movwf	___flmul@aexp^0,c
  3201   0017DC  AE49               	btfss	(___flmul@grs+3)^0,7,c
  3202   0017DE  EFF3  F00B         	goto	u4291
  3203   0017E2  EFF5  F00B         	goto	u4290
  3204   0017E6                     u4291:
  3205   0017E6  EF19  F00C         	goto	l1960
  3206   0017EA                     u4290:
  3207   0017EA  0EFF               	movlw	255
  3208   0017EC  1446               	andwf	___flmul@grs^0,w,c
  3209   0017EE  6E41               	movwf	??___flmul^0,c
  3210   0017F0  0EFF               	movlw	255
  3211   0017F2  1447               	andwf	(___flmul@grs+1)^0,w,c
  3212   0017F4  6E42               	movwf	(??___flmul+1)^0,c
  3213   0017F6  0EFF               	movlw	255
  3214   0017F8  1448               	andwf	(___flmul@grs+2)^0,w,c
  3215   0017FA  6E43               	movwf	(??___flmul+2)^0,c
  3216   0017FC  0E7F               	movlw	127
  3217   0017FE  1449               	andwf	(___flmul@grs+3)^0,w,c
  3218   001800  6E44               	movwf	(??___flmul+3)^0,c
  3219   001802  5041               	movf	??___flmul^0,w,c
  3220   001804  1042               	iorwf	(??___flmul+1)^0,w,c
  3221   001806  1043               	iorwf	(??___flmul+2)^0,w,c
  3222   001808  1044               	iorwf	(??___flmul+3)^0,w,c
  3223   00180A  B4D8               	btfsc	status,2,c
  3224   00180C  EF0A  F00C         	goto	u4301
  3225   001810  EF0C  F00C         	goto	u4300
  3226   001814                     u4301:
  3227   001814  EF10  F00C         	goto	l1961
  3228   001818                     u4300:
  3229   001818                     l5151:
  3230   001818  0E01               	movlw	1
  3231   00181A  6E4A               	movwf	___flmul@aexp^0,c
  3232   00181C  EF19  F00C         	goto	l1960
  3233   001820                     l1961:
  3234   001820  A04C               	btfss	___flmul@prod^0,0,c
  3235   001822  EF15  F00C         	goto	u4311
  3236   001826  EF17  F00C         	goto	u4310
  3237   00182A                     u4311:
  3238   00182A  EF19  F00C         	goto	l1960
  3239   00182E                     u4310:
  3240   00182E  EF0C  F00C         	goto	l5151
  3241   001832                     l1960:
  3242   001832  504A               	movf	___flmul@aexp^0,w,c
  3243   001834  B4D8               	btfsc	status,2,c
  3244   001836  EF1F  F00C         	goto	u4321
  3245   00183A  EF21  F00C         	goto	u4320
  3246   00183E                     u4321:
  3247   00183E  EF45  F00C         	goto	l5163
  3248   001842                     u4320:
  3249   001842  0E01               	movlw	1
  3250   001844  264C               	addwf	___flmul@prod^0,f,c
  3251   001846  0E00               	movlw	0
  3252   001848  224D               	addwfc	(___flmul@prod+1)^0,f,c
  3253   00184A  224E               	addwfc	(___flmul@prod+2)^0,f,c
  3254   00184C  224F               	addwfc	(___flmul@prod+3)^0,f,c
  3255   00184E  A04F               	btfss	(___flmul@prod+3)^0,0,c
  3256   001850  EF2C  F00C         	goto	u4331
  3257   001854  EF2E  F00C         	goto	u4330
  3258   001858                     u4331:
  3259   001858  EF45  F00C         	goto	l5163
  3260   00185C                     u4330:
  3261   00185C  C04C  F041         	movff	___flmul@prod,??___flmul
  3262   001860  C04D  F042         	movff	___flmul@prod+1,??___flmul+1
  3263   001864  C04E  F043         	movff	___flmul@prod+2,??___flmul+2
  3264   001868  C04F  F044         	movff	___flmul@prod+3,??___flmul+3
  3265   00186C  3444               	rlcf	(??___flmul+3)^0,w,c
  3266   00186E  3244               	rrcf	(??___flmul+3)^0,f,c
  3267   001870  3243               	rrcf	(??___flmul+2)^0,f,c
  3268   001872  3242               	rrcf	(??___flmul+1)^0,f,c
  3269   001874  3241               	rrcf	??___flmul^0,f,c
  3270   001876  C041  F04C         	movff	??___flmul,___flmul@prod
  3271   00187A  C042  F04D         	movff	??___flmul+1,___flmul@prod+1
  3272   00187E  C043  F04E         	movff	??___flmul+2,___flmul@prod+2
  3273   001882  C044  F04F         	movff	??___flmul+3,___flmul@prod+3
  3274   001886  4A50               	infsnz	___flmul@temp^0,f,c
  3275   001888  2A51               	incf	(___flmul@temp+1)^0,f,c
  3276   00188A                     l5163:
  3277   00188A  BE51               	btfsc	(___flmul@temp+1)^0,7,c
  3278   00188C  EF50  F00C         	goto	u4341
  3279   001890  5051               	movf	(___flmul@temp+1)^0,w,c
  3280   001892  E108               	bnz	u4340
  3281   001894  2850               	incf	___flmul@temp^0,w,c
  3282   001896  A0D8               	btfss	status,0,c
  3283   001898  EF50  F00C         	goto	u4341
  3284   00189C  EF52  F00C         	goto	u4340
  3285   0018A0                     u4341:
  3286   0018A0  EF5C  F00C         	goto	l5167
  3287   0018A4                     u4340:
  3288   0018A4  0E00               	movlw	0
  3289   0018A6  6E4C               	movwf	___flmul@prod^0,c
  3290   0018A8  0E00               	movlw	0
  3291   0018AA  6E4D               	movwf	(___flmul@prod+1)^0,c
  3292   0018AC  0E80               	movlw	128
  3293   0018AE  6E4E               	movwf	(___flmul@prod+2)^0,c
  3294   0018B0  0E7F               	movlw	127
  3295   0018B2  6E4F               	movwf	(___flmul@prod+3)^0,c
  3296   0018B4  EF8A  F00C         	goto	l5179
  3297   0018B8                     l5167:
  3298   0018B8  BE51               	btfsc	(___flmul@temp+1)^0,7,c
  3299   0018BA  EF69  F00C         	goto	u4350
  3300   0018BE  5051               	movf	(___flmul@temp+1)^0,w,c
  3301   0018C0  E106               	bnz	u4351
  3302   0018C2  0450               	decf	___flmul@temp^0,w,c
  3303   0018C4  B0D8               	btfsc	status,0,c
  3304   0018C6  EF67  F00C         	goto	u4351
  3305   0018CA  EF69  F00C         	goto	u4350
  3306   0018CE                     u4351:
  3307   0018CE  EF75  F00C         	goto	l1968
  3308   0018D2                     u4350:
  3309   0018D2  0E00               	movlw	0
  3310   0018D4  6E4C               	movwf	___flmul@prod^0,c
  3311   0018D6  0E00               	movlw	0
  3312   0018D8  6E4D               	movwf	(___flmul@prod+1)^0,c
  3313   0018DA  0E00               	movlw	0
  3314   0018DC  6E4E               	movwf	(___flmul@prod+2)^0,c
  3315   0018DE  0E00               	movlw	0
  3316   0018E0  6E4F               	movwf	(___flmul@prod+3)^0,c
  3317   0018E2  0E00               	movlw	0
  3318   0018E4  6E45               	movwf	___flmul@sign^0,c
  3319   0018E6  EF8A  F00C         	goto	l5179
  3320   0018EA                     l1968:
  3321   0018EA  C050  F04B         	movff	___flmul@temp,___flmul@bexp
  3322   0018EE  0EFF               	movlw	255
  3323   0018F0  164C               	andwf	___flmul@prod^0,f,c
  3324   0018F2  0EFF               	movlw	255
  3325   0018F4  164D               	andwf	(___flmul@prod+1)^0,f,c
  3326   0018F6  0E7F               	movlw	127
  3327   0018F8  164E               	andwf	(___flmul@prod+2)^0,f,c
  3328   0018FA  0E00               	movlw	0
  3329   0018FC  164F               	andwf	(___flmul@prod+3)^0,f,c
  3330   0018FE  A04B               	btfss	___flmul@bexp^0,0,c
  3331   001900  EF84  F00C         	goto	u4361
  3332   001904  EF86  F00C         	goto	u4360
  3333   001908                     u4361:
  3334   001908  EF87  F00C         	goto	l5177
  3335   00190C                     u4360:
  3336   00190C  8E4E               	bsf	(___flmul@prod+2)^0,7,c
  3337   00190E                     l5177:
  3338   00190E  90D8               	bcf	status,0,c
  3339   001910  304B               	rrcf	___flmul@bexp^0,w,c
  3340   001912  6E4F               	movwf	(___flmul@prod+3)^0,c
  3341   001914                     l5179:
  3342   001914  5045               	movf	___flmul@sign^0,w,c
  3343   001916  124F               	iorwf	(___flmul@prod+3)^0,f,c
  3344   001918  C04C  F039         	movff	___flmul@prod,?___flmul
  3345   00191C  C04D  F03A         	movff	___flmul@prod+1,?___flmul+1
  3346   001920  C04E  F03B         	movff	___flmul@prod+2,?___flmul+2
  3347   001924  C04F  F03C         	movff	___flmul@prod+3,?___flmul+3
  3348   001928                     l1955:
  3349   001928  0012               	return		;funcret
  3350   00192A                     __end_of___flmul:
  3351                           	callstack 0
  3352                           
  3353 ;; *************** function ___fldiv *****************
  3354 ;; Defined at:
  3355 ;;		line 11 in file "C:\Program Files\Microchip\xc8\v2.46\pic\sources\c99\common\sprcdiv.c"
  3356 ;; Parameters:    Size  Location     Type
  3357 ;;  b               4   15[COMRAM] unsigned char 
  3358 ;;  a               4   19[COMRAM] unsigned char 
  3359 ;; Auto vars:     Size  Location     Type
  3360 ;;  grs             4   34[COMRAM] unsigned long 
  3361 ;;  rem             4   27[COMRAM] unsigned long 
  3362 ;;  new_exp         2   32[COMRAM] short 
  3363 ;;  aexp            1   39[COMRAM] unsigned char 
  3364 ;;  bexp            1   38[COMRAM] unsigned char 
  3365 ;;  sign            1   31[COMRAM] unsigned char 
  3366 ;; Return value:  Size  Location     Type
  3367 ;;                  4   15[COMRAM] unsigned char 
  3368 ;; Registers used:
  3369 ;;		wreg, status,2, status,0
  3370 ;; Tracked objects:
  3371 ;;		On entry : 0/0
  3372 ;;		On exit  : 0/0
  3373 ;;		Unchanged: 0/0
  3374 ;; Data sizes:     COMRAM   BANK0   BANK1   BANK2   BANK3   BANK4   BANK5   BANK6   BANK7   BANK8   BANK9  BANK10  BANK1
      +1  BANK12  BANK13  BANK14  BANK15
  3375 ;;      Params:         8       0       0       0       0       0       0       0       0       0       0       0       
      +0       0       0       0       0
  3376 ;;      Locals:        13       0       0       0       0       0       0       0       0       0       0       0       
      +0       0       0       0       0
  3377 ;;      Temps:          4       0       0       0       0       0       0       0       0       0       0       0       
      +0       0       0       0       0
  3378 ;;      Totals:        25       0       0       0       0       0       0       0       0       0       0       0       
      +0       0       0       0       0
  3379 ;;Total ram usage:       25 bytes
  3380 ;; Hardware stack levels used: 1
  3381 ;; Hardware stack levels required when called: 2
  3382 ;; This function calls:
  3383 ;;		Nothing
  3384 ;; This function is called by:
  3385 ;;		_CCP_PWM_Set_Duty
  3386 ;;		_CCP_PWM_Config
  3387 ;; This function uses a non-reentrant model
  3388 ;;
  3389                           
  3390                           	psect	text15
  3391   00192A                     __ptext15:
  3392                           	callstack 0
  3393   00192A                     ___fldiv:
  3394                           	callstack 27
  3395   00192A  5013               	movf	(___fldiv@b+3)^0,w,c
  3396   00192C  0B80               	andlw	128
  3397   00192E  6E20               	movwf	___fldiv@sign^0,c
  3398   001930  5013               	movf	(___fldiv@b+3)^0,w,c
  3399   001932  2413               	addwf	(___fldiv@b+3)^0,w,c
  3400   001934  6E27               	movwf	___fldiv@bexp^0,c
  3401   001936  AE12               	btfss	(___fldiv@b+2)^0,7,c
  3402   001938  EFA0  F00C         	goto	u3951
  3403   00193C  EFA2  F00C         	goto	u3950
  3404   001940                     u3951:
  3405   001940  EFA3  F00C         	goto	l4923
  3406   001944                     u3950:
  3407   001944  8027               	bsf	___fldiv@bexp^0,0,c
  3408   001946                     l4923:
  3409   001946  5027               	movf	___fldiv@bexp^0,w,c
  3410   001948  B4D8               	btfsc	status,2,c
  3411   00194A  EFA9  F00C         	goto	u3961
  3412   00194E  EFAB  F00C         	goto	u3960
  3413   001952                     u3961:
  3414   001952  EFC0  F00C         	goto	l4933
  3415   001956                     u3960:
  3416   001956  2827               	incf	___fldiv@bexp^0,w,c
  3417   001958  A4D8               	btfss	status,2,c
  3418   00195A  EFB1  F00C         	goto	u3971
  3419   00195E  EFB3  F00C         	goto	u3970
  3420   001962                     u3971:
  3421   001962  EFBB  F00C         	goto	l4929
  3422   001966                     u3970:
  3423   001966  0E00               	movlw	0
  3424   001968  6E10               	movwf	___fldiv@b^0,c
  3425   00196A  0E00               	movlw	0
  3426   00196C  6E11               	movwf	(___fldiv@b+1)^0,c
  3427   00196E  0E00               	movlw	0
  3428   001970  6E12               	movwf	(___fldiv@b+2)^0,c
  3429   001972  0E00               	movlw	0
  3430   001974  6E13               	movwf	(___fldiv@b+3)^0,c
  3431   001976                     l4929:
  3432   001976  8E12               	bsf	(___fldiv@b+2)^0,7,c
  3433   001978  0E00               	movlw	0
  3434   00197A  6E13               	movwf	(___fldiv@b+3)^0,c
  3435   00197C  EFC8  F00C         	goto	l4935
  3436   001980                     l4933:
  3437   001980  0E00               	movlw	0
  3438   001982  6E10               	movwf	___fldiv@b^0,c
  3439   001984  0E00               	movlw	0
  3440   001986  6E11               	movwf	(___fldiv@b+1)^0,c
  3441   001988  0E00               	movlw	0
  3442   00198A  6E12               	movwf	(___fldiv@b+2)^0,c
  3443   00198C  0E00               	movlw	0
  3444   00198E  6E13               	movwf	(___fldiv@b+3)^0,c
  3445   001990                     l4935:
  3446   001990  5017               	movf	(___fldiv@a+3)^0,w,c
  3447   001992  0B80               	andlw	128
  3448   001994  1A20               	xorwf	___fldiv@sign^0,f,c
  3449   001996  5017               	movf	(___fldiv@a+3)^0,w,c
  3450   001998  2417               	addwf	(___fldiv@a+3)^0,w,c
  3451   00199A  6E28               	movwf	___fldiv@aexp^0,c
  3452   00199C  AE16               	btfss	(___fldiv@a+2)^0,7,c
  3453   00199E  EFD3  F00C         	goto	u3981
  3454   0019A2  EFD5  F00C         	goto	u3980
  3455   0019A6                     u3981:
  3456   0019A6  EFD6  F00C         	goto	l4943
  3457   0019AA                     u3980:
  3458   0019AA  8028               	bsf	___fldiv@aexp^0,0,c
  3459   0019AC                     l4943:
  3460   0019AC  5028               	movf	___fldiv@aexp^0,w,c
  3461   0019AE  B4D8               	btfsc	status,2,c
  3462   0019B0  EFDC  F00C         	goto	u3991
  3463   0019B4  EFDE  F00C         	goto	u3990
  3464   0019B8                     u3991:
  3465   0019B8  EFF3  F00C         	goto	l4953
  3466   0019BC                     u3990:
  3467   0019BC  2828               	incf	___fldiv@aexp^0,w,c
  3468   0019BE  A4D8               	btfss	status,2,c
  3469   0019C0  EFE4  F00C         	goto	u4001
  3470   0019C4  EFE6  F00C         	goto	u4000
  3471   0019C8                     u4001:
  3472   0019C8  EFEE  F00C         	goto	l4949
  3473   0019CC                     u4000:
  3474   0019CC  0E00               	movlw	0
  3475   0019CE  6E14               	movwf	___fldiv@a^0,c
  3476   0019D0  0E00               	movlw	0
  3477   0019D2  6E15               	movwf	(___fldiv@a+1)^0,c
  3478   0019D4  0E00               	movlw	0
  3479   0019D6  6E16               	movwf	(___fldiv@a+2)^0,c
  3480   0019D8  0E00               	movlw	0
  3481   0019DA  6E17               	movwf	(___fldiv@a+3)^0,c
  3482   0019DC                     l4949:
  3483   0019DC  8E16               	bsf	(___fldiv@a+2)^0,7,c
  3484   0019DE  0E00               	movlw	0
  3485   0019E0  6E17               	movwf	(___fldiv@a+3)^0,c
  3486   0019E2  EFFB  F00C         	goto	l4955
  3487   0019E6                     l4953:
  3488   0019E6  0E00               	movlw	0
  3489   0019E8  6E14               	movwf	___fldiv@a^0,c
  3490   0019EA  0E00               	movlw	0
  3491   0019EC  6E15               	movwf	(___fldiv@a+1)^0,c
  3492   0019EE  0E00               	movlw	0
  3493   0019F0  6E16               	movwf	(___fldiv@a+2)^0,c
  3494   0019F2  0E00               	movlw	0
  3495   0019F4  6E17               	movwf	(___fldiv@a+3)^0,c
  3496   0019F6                     l4955:
  3497   0019F6  5014               	movf	___fldiv@a^0,w,c
  3498   0019F8  1015               	iorwf	(___fldiv@a+1)^0,w,c
  3499   0019FA  1016               	iorwf	(___fldiv@a+2)^0,w,c
  3500   0019FC  1017               	iorwf	(___fldiv@a+3)^0,w,c
  3501   0019FE  A4D8               	btfss	status,2,c
  3502   001A00  EF04  F00D         	goto	u4011
  3503   001A04  EF06  F00D         	goto	u4010
  3504   001A08                     u4011:
  3505   001A08  EF1E  F00D         	goto	l4967
  3506   001A0C                     u4010:
  3507   001A0C  0E00               	movlw	0
  3508   001A0E  6E10               	movwf	___fldiv@b^0,c
  3509   001A10  0E00               	movlw	0
  3510   001A12  6E11               	movwf	(___fldiv@b+1)^0,c
  3511   001A14  0E00               	movlw	0
  3512   001A16  6E12               	movwf	(___fldiv@b+2)^0,c
  3513   001A18  0E00               	movlw	0
  3514   001A1A  6E13               	movwf	(___fldiv@b+3)^0,c
  3515   001A1C  0E80               	movlw	128
  3516   001A1E  1212               	iorwf	(___fldiv@b+2)^0,f,c
  3517   001A20  0E7F               	movlw	127
  3518   001A22  1213               	iorwf	(___fldiv@b+3)^0,f,c
  3519   001A24                     l4961:
  3520   001A24  5020               	movf	___fldiv@sign^0,w,c
  3521   001A26  1213               	iorwf	(___fldiv@b+3)^0,f,c
  3522   001A28  C010  F010         	movff	___fldiv@b,?___fldiv
  3523   001A2C  C011  F011         	movff	___fldiv@b+1,?___fldiv+1
  3524   001A30  C012  F012         	movff	___fldiv@b+2,?___fldiv+2
  3525   001A34  C013  F013         	movff	___fldiv@b+3,?___fldiv+3
  3526   001A38  EF61  F00E         	goto	l1919
  3527   001A3C                     l4967:
  3528   001A3C  5027               	movf	___fldiv@bexp^0,w,c
  3529   001A3E  A4D8               	btfss	status,2,c
  3530   001A40  EF24  F00D         	goto	u4021
  3531   001A44  EF26  F00D         	goto	u4020
  3532   001A48                     u4021:
  3533   001A48  EF30  F00D         	goto	l4975
  3534   001A4C                     u4020:
  3535   001A4C  0E00               	movlw	0
  3536   001A4E  6E10               	movwf	?___fldiv^0,c
  3537   001A50  0E00               	movlw	0
  3538   001A52  6E11               	movwf	(?___fldiv+1)^0,c
  3539   001A54  0E00               	movlw	0
  3540   001A56  6E12               	movwf	(?___fldiv+2)^0,c
  3541   001A58  0E00               	movlw	0
  3542   001A5A  6E13               	movwf	(?___fldiv+3)^0,c
  3543   001A5C  EF61  F00E         	goto	l1919
  3544   001A60                     l4975:
  3545   001A60  5028               	movf	___fldiv@aexp^0,w,c
  3546   001A62  C027  F018         	movff	___fldiv@bexp,??___fldiv
  3547   001A66  6A19               	clrf	(??___fldiv+1)^0,c
  3548   001A68  5E18               	subwf	??___fldiv^0,f,c
  3549   001A6A  0E00               	movlw	0
  3550   001A6C  5A19               	subwfb	(??___fldiv+1)^0,f,c
  3551   001A6E  0E7F               	movlw	127
  3552   001A70  2418               	addwf	??___fldiv^0,w,c
  3553   001A72  6E21               	movwf	___fldiv@new_exp^0,c
  3554   001A74  0E00               	movlw	0
  3555   001A76  2019               	addwfc	(??___fldiv+1)^0,w,c
  3556   001A78  6E22               	movwf	(___fldiv@new_exp+1)^0,c
  3557   001A7A  C010  F01C         	movff	___fldiv@b,___fldiv@rem
  3558   001A7E  C011  F01D         	movff	___fldiv@b+1,___fldiv@rem+1
  3559   001A82  C012  F01E         	movff	___fldiv@b+2,___fldiv@rem+2
  3560   001A86  C013  F01F         	movff	___fldiv@b+3,___fldiv@rem+3
  3561   001A8A  0E00               	movlw	0
  3562   001A8C  6E10               	movwf	___fldiv@b^0,c
  3563   001A8E  0E00               	movlw	0
  3564   001A90  6E11               	movwf	(___fldiv@b+1)^0,c
  3565   001A92  0E00               	movlw	0
  3566   001A94  6E12               	movwf	(___fldiv@b+2)^0,c
  3567   001A96  0E00               	movlw	0
  3568   001A98  6E13               	movwf	(___fldiv@b+3)^0,c
  3569   001A9A  0E00               	movlw	0
  3570   001A9C  6E23               	movwf	___fldiv@grs^0,c
  3571   001A9E  0E00               	movlw	0
  3572   001AA0  6E24               	movwf	(___fldiv@grs+1)^0,c
  3573   001AA2  0E00               	movlw	0
  3574   001AA4  6E25               	movwf	(___fldiv@grs+2)^0,c
  3575   001AA6  0E00               	movlw	0
  3576   001AA8  6E26               	movwf	(___fldiv@grs+3)^0,c
  3577   001AAA  0E00               	movlw	0
  3578   001AAC  6E28               	movwf	___fldiv@aexp^0,c
  3579   001AAE  EF91  F00D         	goto	l1921
  3580   001AB2                     l4985:
  3581   001AB2  5028               	movf	___fldiv@aexp^0,w,c
  3582   001AB4  B4D8               	btfsc	status,2,c
  3583   001AB6  EF5F  F00D         	goto	u4031
  3584   001ABA  EF61  F00D         	goto	u4030
  3585   001ABE                     u4031:
  3586   001ABE  EF78  F00D         	goto	l4993
  3587   001AC2                     u4030:
  3588   001AC2  90D8               	bcf	status,0,c
  3589   001AC4  361C               	rlcf	___fldiv@rem^0,f,c
  3590   001AC6  361D               	rlcf	(___fldiv@rem+1)^0,f,c
  3591   001AC8  361E               	rlcf	(___fldiv@rem+2)^0,f,c
  3592   001ACA  361F               	rlcf	(___fldiv@rem+3)^0,f,c
  3593   001ACC  90D8               	bcf	status,0,c
  3594   001ACE  3610               	rlcf	___fldiv@b^0,f,c
  3595   001AD0  3611               	rlcf	(___fldiv@b+1)^0,f,c
  3596   001AD2  3612               	rlcf	(___fldiv@b+2)^0,f,c
  3597   001AD4  3613               	rlcf	(___fldiv@b+3)^0,f,c
  3598   001AD6  AE26               	btfss	(___fldiv@grs+3)^0,7,c
  3599   001AD8  EF70  F00D         	goto	u4041
  3600   001ADC  EF72  F00D         	goto	u4040
  3601   001AE0                     u4041:
  3602   001AE0  EF73  F00D         	goto	l1924
  3603   001AE4                     u4040:
  3604   001AE4  8010               	bsf	___fldiv@b^0,0,c
  3605   001AE6                     l1924:
  3606   001AE6  90D8               	bcf	status,0,c
  3607   001AE8  3623               	rlcf	___fldiv@grs^0,f,c
  3608   001AEA  3624               	rlcf	(___fldiv@grs+1)^0,f,c
  3609   001AEC  3625               	rlcf	(___fldiv@grs+2)^0,f,c
  3610   001AEE  3626               	rlcf	(___fldiv@grs+3)^0,f,c
  3611   001AF0                     l4993:
  3612   001AF0  5014               	movf	___fldiv@a^0,w,c
  3613   001AF2  5C1C               	subwf	___fldiv@rem^0,w,c
  3614   001AF4  5015               	movf	(___fldiv@a+1)^0,w,c
  3615   001AF6  581D               	subwfb	(___fldiv@rem+1)^0,w,c
  3616   001AF8  5016               	movf	(___fldiv@a+2)^0,w,c
  3617   001AFA  581E               	subwfb	(___fldiv@rem+2)^0,w,c
  3618   001AFC  5017               	movf	(___fldiv@a+3)^0,w,c
  3619   001AFE  581F               	subwfb	(___fldiv@rem+3)^0,w,c
  3620   001B00  A0D8               	btfss	status,0,c
  3621   001B02  EF85  F00D         	goto	u4051
  3622   001B06  EF87  F00D         	goto	u4050
  3623   001B0A                     u4051:
  3624   001B0A  EF90  F00D         	goto	l4999
  3625   001B0E                     u4050:
  3626   001B0E  8C26               	bsf	(___fldiv@grs+3)^0,6,c
  3627   001B10  5014               	movf	___fldiv@a^0,w,c
  3628   001B12  5E1C               	subwf	___fldiv@rem^0,f,c
  3629   001B14  5015               	movf	(___fldiv@a+1)^0,w,c
  3630   001B16  5A1D               	subwfb	(___fldiv@rem+1)^0,f,c
  3631   001B18  5016               	movf	(___fldiv@a+2)^0,w,c
  3632   001B1A  5A1E               	subwfb	(___fldiv@rem+2)^0,f,c
  3633   001B1C  5017               	movf	(___fldiv@a+3)^0,w,c
  3634   001B1E  5A1F               	subwfb	(___fldiv@rem+3)^0,f,c
  3635   001B20                     l4999:
  3636   001B20  2A28               	incf	___fldiv@aexp^0,f,c
  3637   001B22                     l1921:
  3638   001B22  0E19               	movlw	25
  3639   001B24  6428               	cpfsgt	___fldiv@aexp^0,c
  3640   001B26  EF97  F00D         	goto	u4061
  3641   001B2A  EF99  F00D         	goto	u4060
  3642   001B2E                     u4061:
  3643   001B2E  EF59  F00D         	goto	l4985
  3644   001B32                     u4060:
  3645   001B32  501C               	movf	___fldiv@rem^0,w,c
  3646   001B34  101D               	iorwf	(___fldiv@rem+1)^0,w,c
  3647   001B36  101E               	iorwf	(___fldiv@rem+2)^0,w,c
  3648   001B38  101F               	iorwf	(___fldiv@rem+3)^0,w,c
  3649   001B3A  B4D8               	btfsc	status,2,c
  3650   001B3C  EFA2  F00D         	goto	u4071
  3651   001B40  EFA4  F00D         	goto	u4070
  3652   001B44                     u4071:
  3653   001B44  EFBC  F00D         	goto	l5011
  3654   001B48                     u4070:
  3655   001B48  8023               	bsf	___fldiv@grs^0,0,c
  3656   001B4A  EFBC  F00D         	goto	l5011
  3657   001B4E                     l5005:
  3658   001B4E  90D8               	bcf	status,0,c
  3659   001B50  3610               	rlcf	___fldiv@b^0,f,c
  3660   001B52  3611               	rlcf	(___fldiv@b+1)^0,f,c
  3661   001B54  3612               	rlcf	(___fldiv@b+2)^0,f,c
  3662   001B56  3613               	rlcf	(___fldiv@b+3)^0,f,c
  3663   001B58  AE26               	btfss	(___fldiv@grs+3)^0,7,c
  3664   001B5A  EFB1  F00D         	goto	u4081
  3665   001B5E  EFB3  F00D         	goto	u4080
  3666   001B62                     u4081:
  3667   001B62  EFB4  F00D         	goto	l1930
  3668   001B66                     u4080:
  3669   001B66  8010               	bsf	___fldiv@b^0,0,c
  3670   001B68                     l1930:
  3671   001B68  90D8               	bcf	status,0,c
  3672   001B6A  3623               	rlcf	___fldiv@grs^0,f,c
  3673   001B6C  3624               	rlcf	(___fldiv@grs+1)^0,f,c
  3674   001B6E  3625               	rlcf	(___fldiv@grs+2)^0,f,c
  3675   001B70  3626               	rlcf	(___fldiv@grs+3)^0,f,c
  3676   001B72  0621               	decf	___fldiv@new_exp^0,f,c
  3677   001B74  A0D8               	btfss	status,0,c
  3678   001B76  0622               	decf	(___fldiv@new_exp+1)^0,f,c
  3679   001B78                     l5011:
  3680   001B78  AE12               	btfss	(___fldiv@b+2)^0,7,c
  3681   001B7A  EFC1  F00D         	goto	u4091
  3682   001B7E  EFC3  F00D         	goto	u4090
  3683   001B82                     u4091:
  3684   001B82  EFA7  F00D         	goto	l5005
  3685   001B86                     u4090:
  3686   001B86  0E00               	movlw	0
  3687   001B88  6E28               	movwf	___fldiv@aexp^0,c
  3688   001B8A  AE26               	btfss	(___fldiv@grs+3)^0,7,c
  3689   001B8C  EFCA  F00D         	goto	u4101
  3690   001B90  EFCC  F00D         	goto	u4100
  3691   001B94                     u4101:
  3692   001B94  EFF0  F00D         	goto	l1932
  3693   001B98                     u4100:
  3694   001B98  0EFF               	movlw	255
  3695   001B9A  1423               	andwf	___fldiv@grs^0,w,c
  3696   001B9C  6E18               	movwf	??___fldiv^0,c
  3697   001B9E  0EFF               	movlw	255
  3698   001BA0  1424               	andwf	(___fldiv@grs+1)^0,w,c
  3699   001BA2  6E19               	movwf	(??___fldiv+1)^0,c
  3700   001BA4  0EFF               	movlw	255
  3701   001BA6  1425               	andwf	(___fldiv@grs+2)^0,w,c
  3702   001BA8  6E1A               	movwf	(??___fldiv+2)^0,c
  3703   001BAA  0E7F               	movlw	127
  3704   001BAC  1426               	andwf	(___fldiv@grs+3)^0,w,c
  3705   001BAE  6E1B               	movwf	(??___fldiv+3)^0,c
  3706   001BB0  5018               	movf	??___fldiv^0,w,c
  3707   001BB2  1019               	iorwf	(??___fldiv+1)^0,w,c
  3708   001BB4  101A               	iorwf	(??___fldiv+2)^0,w,c
  3709   001BB6  101B               	iorwf	(??___fldiv+3)^0,w,c
  3710   001BB8  B4D8               	btfsc	status,2,c
  3711   001BBA  EFE1  F00D         	goto	u4111
  3712   001BBE  EFE3  F00D         	goto	u4110
  3713   001BC2                     u4111:
  3714   001BC2  EFE7  F00D         	goto	l1933
  3715   001BC6                     u4110:
  3716   001BC6                     l5019:
  3717   001BC6  0E01               	movlw	1
  3718   001BC8  6E28               	movwf	___fldiv@aexp^0,c
  3719   001BCA  EFF0  F00D         	goto	l1932
  3720   001BCE                     l1933:
  3721   001BCE  A010               	btfss	___fldiv@b^0,0,c
  3722   001BD0  EFEC  F00D         	goto	u4121
  3723   001BD4  EFEE  F00D         	goto	u4120
  3724   001BD8                     u4121:
  3725   001BD8  EFF0  F00D         	goto	l1932
  3726   001BDC                     u4120:
  3727   001BDC  EFE3  F00D         	goto	l5019
  3728   001BE0                     l1932:
  3729   001BE0  5028               	movf	___fldiv@aexp^0,w,c
  3730   001BE2  B4D8               	btfsc	status,2,c
  3731   001BE4  EFF6  F00D         	goto	u4131
  3732   001BE8  EFF8  F00D         	goto	u4130
  3733   001BEC                     u4131:
  3734   001BEC  EF1C  F00E         	goto	l5031
  3735   001BF0                     u4130:
  3736   001BF0  0E01               	movlw	1
  3737   001BF2  2610               	addwf	___fldiv@b^0,f,c
  3738   001BF4  0E00               	movlw	0
  3739   001BF6  2211               	addwfc	(___fldiv@b+1)^0,f,c
  3740   001BF8  2212               	addwfc	(___fldiv@b+2)^0,f,c
  3741   001BFA  2213               	addwfc	(___fldiv@b+3)^0,f,c
  3742   001BFC  A013               	btfss	(___fldiv@b+3)^0,0,c
  3743   001BFE  EF03  F00E         	goto	u4141
  3744   001C02  EF05  F00E         	goto	u4140
  3745   001C06                     u4141:
  3746   001C06  EF1C  F00E         	goto	l5031
  3747   001C0A                     u4140:
  3748   001C0A  C010  F018         	movff	___fldiv@b,??___fldiv
  3749   001C0E  C011  F019         	movff	___fldiv@b+1,??___fldiv+1
  3750   001C12  C012  F01A         	movff	___fldiv@b+2,??___fldiv+2
  3751   001C16  C013  F01B         	movff	___fldiv@b+3,??___fldiv+3
  3752   001C1A  341B               	rlcf	(??___fldiv+3)^0,w,c
  3753   001C1C  321B               	rrcf	(??___fldiv+3)^0,f,c
  3754   001C1E  321A               	rrcf	(??___fldiv+2)^0,f,c
  3755   001C20  3219               	rrcf	(??___fldiv+1)^0,f,c
  3756   001C22  3218               	rrcf	??___fldiv^0,f,c
  3757   001C24  C018  F010         	movff	??___fldiv,___fldiv@b
  3758   001C28  C019  F011         	movff	??___fldiv+1,___fldiv@b+1
  3759   001C2C  C01A  F012         	movff	??___fldiv+2,___fldiv@b+2
  3760   001C30  C01B  F013         	movff	??___fldiv+3,___fldiv@b+3
  3761   001C34  4A21               	infsnz	___fldiv@new_exp^0,f,c
  3762   001C36  2A22               	incf	(___fldiv@new_exp+1)^0,f,c
  3763   001C38                     l5031:
  3764   001C38  BE22               	btfsc	(___fldiv@new_exp+1)^0,7,c
  3765   001C3A  EF27  F00E         	goto	u4151
  3766   001C3E  5022               	movf	(___fldiv@new_exp+1)^0,w,c
  3767   001C40  E108               	bnz	u4150
  3768   001C42  2821               	incf	___fldiv@new_exp^0,w,c
  3769   001C44  A0D8               	btfss	status,0,c
  3770   001C46  EF27  F00E         	goto	u4151
  3771   001C4A  EF29  F00E         	goto	u4150
  3772   001C4E                     u4151:
  3773   001C4E  EF34  F00E         	goto	l5035
  3774   001C52                     u4150:
  3775   001C52  0E00               	movlw	0
  3776   001C54  6E22               	movwf	(___fldiv@new_exp+1)^0,c
  3777   001C56  6821               	setf	___fldiv@new_exp^0,c
  3778   001C58  0E00               	movlw	0
  3779   001C5A  6E10               	movwf	___fldiv@b^0,c
  3780   001C5C  0E00               	movlw	0
  3781   001C5E  6E11               	movwf	(___fldiv@b+1)^0,c
  3782   001C60  0E00               	movlw	0
  3783   001C62  6E12               	movwf	(___fldiv@b+2)^0,c
  3784   001C64  0E00               	movlw	0
  3785   001C66  6E13               	movwf	(___fldiv@b+3)^0,c
  3786   001C68                     l5035:
  3787   001C68  BE22               	btfsc	(___fldiv@new_exp+1)^0,7,c
  3788   001C6A  EF41  F00E         	goto	u4160
  3789   001C6E  5022               	movf	(___fldiv@new_exp+1)^0,w,c
  3790   001C70  E106               	bnz	u4161
  3791   001C72  0421               	decf	___fldiv@new_exp^0,w,c
  3792   001C74  B0D8               	btfsc	status,0,c
  3793   001C76  EF3F  F00E         	goto	u4161
  3794   001C7A  EF41  F00E         	goto	u4160
  3795   001C7E                     u4161:
  3796   001C7E  EF4F  F00E         	goto	l5039
  3797   001C82                     u4160:
  3798   001C82  0E00               	movlw	0
  3799   001C84  6E22               	movwf	(___fldiv@new_exp+1)^0,c
  3800   001C86  0E00               	movlw	0
  3801   001C88  6E21               	movwf	___fldiv@new_exp^0,c
  3802   001C8A  0E00               	movlw	0
  3803   001C8C  6E10               	movwf	___fldiv@b^0,c
  3804   001C8E  0E00               	movlw	0
  3805   001C90  6E11               	movwf	(___fldiv@b+1)^0,c
  3806   001C92  0E00               	movlw	0
  3807   001C94  6E12               	movwf	(___fldiv@b+2)^0,c
  3808   001C96  0E00               	movlw	0
  3809   001C98  6E13               	movwf	(___fldiv@b+3)^0,c
  3810   001C9A  0E00               	movlw	0
  3811   001C9C  6E20               	movwf	___fldiv@sign^0,c
  3812   001C9E                     l5039:
  3813   001C9E  C021  F027         	movff	___fldiv@new_exp,___fldiv@bexp
  3814   001CA2  A027               	btfss	___fldiv@bexp^0,0,c
  3815   001CA4  EF56  F00E         	goto	u4171
  3816   001CA8  EF58  F00E         	goto	u4170
  3817   001CAC                     u4171:
  3818   001CAC  EF5B  F00E         	goto	l5045
  3819   001CB0                     u4170:
  3820   001CB0  8E12               	bsf	(___fldiv@b+2)^0,7,c
  3821   001CB2  EF5C  F00E         	goto	l5047
  3822   001CB6                     l5045:
  3823   001CB6  9E12               	bcf	(___fldiv@b+2)^0,7,c
  3824   001CB8                     l5047:
  3825   001CB8  90D8               	bcf	status,0,c
  3826   001CBA  3027               	rrcf	___fldiv@bexp^0,w,c
  3827   001CBC  6E13               	movwf	(___fldiv@b+3)^0,c
  3828   001CBE  EF12  F00D         	goto	l4961
  3829   001CC2                     l1919:
  3830   001CC2  0012               	return		;funcret
  3831   001CC4                     __end_of___fldiv:
  3832                           	callstack 0
  3833                           
  3834 ;; *************** function ___fladd *****************
  3835 ;; Defined at:
  3836 ;;		line 10 in file "C:\Program Files\Microchip\xc8\v2.46\pic\sources\c99\common\sprcadd.c"
  3837 ;; Parameters:    Size  Location     Type
  3838 ;;  b               4   40[COMRAM] unsigned char 
  3839 ;;  a               4   44[COMRAM] unsigned char 
  3840 ;; Auto vars:     Size  Location     Type
  3841 ;;  grs             1   55[COMRAM] unsigned char 
  3842 ;;  bexp            1   54[COMRAM] unsigned char 
  3843 ;;  aexp            1   53[COMRAM] unsigned char 
  3844 ;;  signs           1   52[COMRAM] unsigned char 
  3845 ;; Return value:  Size  Location     Type
  3846 ;;                  4   40[COMRAM] unsigned char 
  3847 ;; Registers used:
  3848 ;;		wreg, status,2, status,0
  3849 ;; Tracked objects:
  3850 ;;		On entry : 0/0
  3851 ;;		On exit  : 0/0
  3852 ;;		Unchanged: 0/0
  3853 ;; Data sizes:     COMRAM   BANK0   BANK1   BANK2   BANK3   BANK4   BANK5   BANK6   BANK7   BANK8   BANK9  BANK10  BANK1
      +1  BANK12  BANK13  BANK14  BANK15
  3854 ;;      Params:         8       0       0       0       0       0       0       0       0       0       0       0       
      +0       0       0       0       0
  3855 ;;      Locals:         4       0       0       0       0       0       0       0       0       0       0       0       
      +0       0       0       0       0
  3856 ;;      Temps:          4       0       0       0       0       0       0       0       0       0       0       0       
      +0       0       0       0       0
  3857 ;;      Totals:        16       0       0       0       0       0       0       0       0       0       0       0       
      +0       0       0       0       0
  3858 ;;Total ram usage:       16 bytes
  3859 ;; Hardware stack levels used: 1
  3860 ;; Hardware stack levels required when called: 2
  3861 ;; This function calls:
  3862 ;;		Nothing
  3863 ;; This function is called by:
  3864 ;;		_CCP_PWM_Set_Duty
  3865 ;;		_CCP_PWM_Config
  3866 ;; This function uses a non-reentrant model
  3867 ;;
  3868                           
  3869                           	psect	text16
  3870   001040                     __ptext16:
  3871                           	callstack 0
  3872   001040                     ___fladd:
  3873                           	callstack 27
  3874   001040  502C               	movf	(___fladd@b+3)^0,w,c
  3875   001042  0B80               	andlw	128
  3876   001044  6E35               	movwf	___fladd@signs^0,c
  3877   001046  502C               	movf	(___fladd@b+3)^0,w,c
  3878   001048  242C               	addwf	(___fladd@b+3)^0,w,c
  3879   00104A  6E37               	movwf	___fladd@bexp^0,c
  3880   00104C  AE2B               	btfss	(___fladd@b+2)^0,7,c
  3881   00104E  EF2B  F008         	goto	u3561
  3882   001052  EF2D  F008         	goto	u3560
  3883   001056                     u3561:
  3884   001056  EF2E  F008         	goto	l4721
  3885   00105A                     u3560:
  3886   00105A  8037               	bsf	___fladd@bexp^0,0,c
  3887   00105C                     l4721:
  3888   00105C  5037               	movf	___fladd@bexp^0,w,c
  3889   00105E  B4D8               	btfsc	status,2,c
  3890   001060  EF34  F008         	goto	u3571
  3891   001064  EF36  F008         	goto	u3570
  3892   001068                     u3571:
  3893   001068  EF4B  F008         	goto	l4731
  3894   00106C                     u3570:
  3895   00106C  2837               	incf	___fladd@bexp^0,w,c
  3896   00106E  A4D8               	btfss	status,2,c
  3897   001070  EF3C  F008         	goto	u3581
  3898   001074  EF3E  F008         	goto	u3580
  3899   001078                     u3581:
  3900   001078  EF46  F008         	goto	l4727
  3901   00107C                     u3580:
  3902   00107C  0E00               	movlw	0
  3903   00107E  6E29               	movwf	___fladd@b^0,c
  3904   001080  0E00               	movlw	0
  3905   001082  6E2A               	movwf	(___fladd@b+1)^0,c
  3906   001084  0E00               	movlw	0
  3907   001086  6E2B               	movwf	(___fladd@b+2)^0,c
  3908   001088  0E00               	movlw	0
  3909   00108A  6E2C               	movwf	(___fladd@b+3)^0,c
  3910   00108C                     l4727:
  3911   00108C  8E2B               	bsf	(___fladd@b+2)^0,7,c
  3912   00108E  0E00               	movlw	0
  3913   001090  6E2C               	movwf	(___fladd@b+3)^0,c
  3914   001092  EF53  F008         	goto	l4733
  3915   001096                     l4731:
  3916   001096  0E00               	movlw	0
  3917   001098  6E29               	movwf	___fladd@b^0,c
  3918   00109A  0E00               	movlw	0
  3919   00109C  6E2A               	movwf	(___fladd@b+1)^0,c
  3920   00109E  0E00               	movlw	0
  3921   0010A0  6E2B               	movwf	(___fladd@b+2)^0,c
  3922   0010A2  0E00               	movlw	0
  3923   0010A4  6E2C               	movwf	(___fladd@b+3)^0,c
  3924   0010A6                     l4733:
  3925   0010A6  5030               	movf	(___fladd@a+3)^0,w,c
  3926   0010A8  0B80               	andlw	128
  3927   0010AA  6E36               	movwf	___fladd@aexp^0,c
  3928   0010AC  5035               	movf	___fladd@signs^0,w,c
  3929   0010AE  1836               	xorwf	___fladd@aexp^0,w,c
  3930   0010B0  B4D8               	btfsc	status,2,c
  3931   0010B2  EF5D  F008         	goto	u3591
  3932   0010B6  EF5F  F008         	goto	u3590
  3933   0010BA                     u3591:
  3934   0010BA  EF60  F008         	goto	l4739
  3935   0010BE                     u3590:
  3936   0010BE  8C35               	bsf	___fladd@signs^0,6,c
  3937   0010C0                     l4739:
  3938   0010C0  5030               	movf	(___fladd@a+3)^0,w,c
  3939   0010C2  2430               	addwf	(___fladd@a+3)^0,w,c
  3940   0010C4  6E36               	movwf	___fladd@aexp^0,c
  3941   0010C6  AE2F               	btfss	(___fladd@a+2)^0,7,c
  3942   0010C8  EF68  F008         	goto	u3601
  3943   0010CC  EF6A  F008         	goto	u3600
  3944   0010D0                     u3601:
  3945   0010D0  EF6B  F008         	goto	l4745
  3946   0010D4                     u3600:
  3947   0010D4  8036               	bsf	___fladd@aexp^0,0,c
  3948   0010D6                     l4745:
  3949   0010D6  5036               	movf	___fladd@aexp^0,w,c
  3950   0010D8  B4D8               	btfsc	status,2,c
  3951   0010DA  EF71  F008         	goto	u3611
  3952   0010DE  EF73  F008         	goto	u3610
  3953   0010E2                     u3611:
  3954   0010E2  EF88  F008         	goto	l4755
  3955   0010E6                     u3610:
  3956   0010E6  2836               	incf	___fladd@aexp^0,w,c
  3957   0010E8  A4D8               	btfss	status,2,c
  3958   0010EA  EF79  F008         	goto	u3621
  3959   0010EE  EF7B  F008         	goto	u3620
  3960   0010F2                     u3621:
  3961   0010F2  EF83  F008         	goto	l4751
  3962   0010F6                     u3620:
  3963   0010F6  0E00               	movlw	0
  3964   0010F8  6E2D               	movwf	___fladd@a^0,c
  3965   0010FA  0E00               	movlw	0
  3966   0010FC  6E2E               	movwf	(___fladd@a+1)^0,c
  3967   0010FE  0E00               	movlw	0
  3968   001100  6E2F               	movwf	(___fladd@a+2)^0,c
  3969   001102  0E00               	movlw	0
  3970   001104  6E30               	movwf	(___fladd@a+3)^0,c
  3971   001106                     l4751:
  3972   001106  8E2F               	bsf	(___fladd@a+2)^0,7,c
  3973   001108  0E00               	movlw	0
  3974   00110A  6E30               	movwf	(___fladd@a+3)^0,c
  3975   00110C  EF90  F008         	goto	l4757
  3976   001110                     l4755:
  3977   001110  0E00               	movlw	0
  3978   001112  6E2D               	movwf	___fladd@a^0,c
  3979   001114  0E00               	movlw	0
  3980   001116  6E2E               	movwf	(___fladd@a+1)^0,c
  3981   001118  0E00               	movlw	0
  3982   00111A  6E2F               	movwf	(___fladd@a+2)^0,c
  3983   00111C  0E00               	movlw	0
  3984   00111E  6E30               	movwf	(___fladd@a+3)^0,c
  3985   001120                     l4757:
  3986   001120  5037               	movf	___fladd@bexp^0,w,c
  3987   001122  5C36               	subwf	___fladd@aexp^0,w,c
  3988   001124  B0D8               	btfsc	status,0,c
  3989   001126  EF97  F008         	goto	u3631
  3990   00112A  EF99  F008         	goto	u3630
  3991   00112E                     u3631:
  3992   00112E  EFC0  F008         	goto	l4793
  3993   001132                     u3630:
  3994   001132  AC35               	btfss	___fladd@signs^0,6,c
  3995   001134  EF9E  F008         	goto	u3641
  3996   001138  EFA0  F008         	goto	u3640
  3997   00113C                     u3641:
  3998   00113C  EFA2  F008         	goto	l4763
  3999   001140                     u3640:
  4000   001140  0E80               	movlw	128
  4001   001142  1A35               	xorwf	___fladd@signs^0,f,c
  4002   001144                     l4763:
  4003   001144  C037  F038         	movff	___fladd@bexp,___fladd@grs
  4004   001148  C036  F037         	movff	___fladd@aexp,___fladd@bexp
  4005   00114C  C038  F036         	movff	___fladd@grs,___fladd@aexp
  4006   001150  C029  F038         	movff	___fladd@b,___fladd@grs
  4007   001154  C02D  F029         	movff	___fladd@a,___fladd@b
  4008   001158  C038  F02D         	movff	___fladd@grs,___fladd@a
  4009   00115C  C02A  F038         	movff	___fladd@b+1,___fladd@grs
  4010   001160  C02E  F02A         	movff	___fladd@a+1,___fladd@b+1
  4011   001164  C038  F02E         	movff	___fladd@grs,___fladd@a+1
  4012   001168  C02B  F038         	movff	___fladd@b+2,___fladd@grs
  4013   00116C  C02F  F02B         	movff	___fladd@a+2,___fladd@b+2
  4014   001170  C038  F02F         	movff	___fladd@grs,___fladd@a+2
  4015   001174  C02C  F038         	movff	___fladd@b+3,___fladd@grs
  4016   001178  C030  F02C         	movff	___fladd@a+3,___fladd@b+3
  4017   00117C  C038  F030         	movff	___fladd@grs,___fladd@a+3
  4018   001180                     l4793:
  4019   001180  0E00               	movlw	0
  4020   001182  6E38               	movwf	___fladd@grs^0,c
  4021   001184  5037               	movf	___fladd@bexp^0,w,c
  4022   001186  C036  F031         	movff	___fladd@aexp,??___fladd
  4023   00118A  6A32               	clrf	(??___fladd+1)^0,c
  4024   00118C  5E31               	subwf	??___fladd^0,f,c
  4025   00118E  0E00               	movlw	0
  4026   001190  5A32               	subwfb	(??___fladd+1)^0,f,c
  4027   001192  BE32               	btfsc	(??___fladd+1)^0,7,c
  4028   001194  EFD5  F008         	goto	u3651
  4029   001198  5032               	movf	(??___fladd+1)^0,w,c
  4030   00119A  E109               	bnz	u3650
  4031   00119C  0E1A               	movlw	26
  4032   00119E  5C31               	subwf	??___fladd^0,w,c
  4033   0011A0  A0D8               	btfss	status,0,c
  4034   0011A2  EFD5  F008         	goto	u3651
  4035   0011A6  EFD7  F008         	goto	u3650
  4036   0011AA                     u3651:
  4037   0011AA  EF0E  F009         	goto	l1866
  4038   0011AE                     u3650:
  4039   0011AE  5029               	movf	___fladd@b^0,w,c
  4040   0011B0  102A               	iorwf	(___fladd@b+1)^0,w,c
  4041   0011B2  102B               	iorwf	(___fladd@b+2)^0,w,c
  4042   0011B4  102C               	iorwf	(___fladd@b+3)^0,w,c
  4043   0011B6  A4D8               	btfss	status,2,c
  4044   0011B8  EFE0  F008         	goto	u3661
  4045   0011BC  EFE3  F008         	goto	u3660
  4046   0011C0                     u3661:
  4047   0011C0  0E01               	movlw	1
  4048   0011C2  EFE4  F008         	goto	u3670
  4049   0011C6                     u3660:
  4050   0011C6  0E00               	movlw	0
  4051   0011C8                     u3670:
  4052   0011C8  6E38               	movwf	___fladd@grs^0,c
  4053   0011CA  0E00               	movlw	0
  4054   0011CC  6E29               	movwf	___fladd@b^0,c
  4055   0011CE  0E00               	movlw	0
  4056   0011D0  6E2A               	movwf	(___fladd@b+1)^0,c
  4057   0011D2  0E00               	movlw	0
  4058   0011D4  6E2B               	movwf	(___fladd@b+2)^0,c
  4059   0011D6  0E00               	movlw	0
  4060   0011D8  6E2C               	movwf	(___fladd@b+3)^0,c
  4061   0011DA  C036  F037         	movff	___fladd@aexp,___fladd@bexp
  4062   0011DE  EF17  F009         	goto	l1865
  4063   0011E2                     l1867:
  4064   0011E2  A038               	btfss	___fladd@grs^0,0,c
  4065   0011E4  EFF6  F008         	goto	u3681
  4066   0011E8  EFF8  F008         	goto	u3680
  4067   0011EC                     u3681:
  4068   0011EC  EFFE  F008         	goto	l4805
  4069   0011F0                     u3680:
  4070   0011F0  90D8               	bcf	status,0,c
  4071   0011F2  3038               	rrcf	___fladd@grs^0,w,c
  4072   0011F4  0901               	iorlw	1
  4073   0011F6  6E38               	movwf	___fladd@grs^0,c
  4074   0011F8  EF00  F009         	goto	l4807
  4075   0011FC                     l4805:
  4076   0011FC  90D8               	bcf	status,0,c
  4077   0011FE  3238               	rrcf	___fladd@grs^0,f,c
  4078   001200                     l4807:
  4079   001200  A029               	btfss	___fladd@b^0,0,c
  4080   001202  EF05  F009         	goto	u3691
  4081   001206  EF07  F009         	goto	u3690
  4082   00120A                     u3691:
  4083   00120A  EF08  F009         	goto	l4811
  4084   00120E                     u3690:
  4085   00120E  8E38               	bsf	___fladd@grs^0,7,c
  4086   001210                     l4811:
  4087   001210  342C               	rlcf	(___fladd@b+3)^0,w,c
  4088   001212  322C               	rrcf	(___fladd@b+3)^0,f,c
  4089   001214  322B               	rrcf	(___fladd@b+2)^0,f,c
  4090   001216  322A               	rrcf	(___fladd@b+1)^0,f,c
  4091   001218  3229               	rrcf	___fladd@b^0,f,c
  4092   00121A  2A37               	incf	___fladd@bexp^0,f,c
  4093   00121C                     l1866:
  4094   00121C  5036               	movf	___fladd@aexp^0,w,c
  4095   00121E  5C37               	subwf	___fladd@bexp^0,w,c
  4096   001220  A0D8               	btfss	status,0,c
  4097   001222  EF15  F009         	goto	u3701
  4098   001226  EF17  F009         	goto	u3700
  4099   00122A                     u3701:
  4100   00122A  EFF1  F008         	goto	l1867
  4101   00122E                     u3700:
  4102   00122E                     l1865:
  4103   00122E  BC35               	btfsc	___fladd@signs^0,6,c
  4104   001230  EF1C  F009         	goto	u3711
  4105   001234  EF1E  F009         	goto	u3710
  4106   001238                     u3711:
  4107   001238  EF5E  F009         	goto	l4839
  4108   00123C                     u3710:
  4109   00123C  5037               	movf	___fladd@bexp^0,w,c
  4110   00123E  A4D8               	btfss	status,2,c
  4111   001240  EF24  F009         	goto	u3721
  4112   001244  EF26  F009         	goto	u3720
  4113   001248                     u3721:
  4114   001248  EF30  F009         	goto	l4821
  4115   00124C                     u3720:
  4116   00124C  0E00               	movlw	0
  4117   00124E  6E29               	movwf	?___fladd^0,c
  4118   001250  0E00               	movlw	0
  4119   001252  6E2A               	movwf	(?___fladd+1)^0,c
  4120   001254  0E00               	movlw	0
  4121   001256  6E2B               	movwf	(?___fladd+2)^0,c
  4122   001258  0E00               	movlw	0
  4123   00125A  6E2C               	movwf	(?___fladd+3)^0,c
  4124   00125C  EF7F  F00A         	goto	l1874
  4125   001260                     l4821:
  4126   001260  502D               	movf	___fladd@a^0,w,c
  4127   001262  2629               	addwf	___fladd@b^0,f,c
  4128   001264  502E               	movf	(___fladd@a+1)^0,w,c
  4129   001266  222A               	addwfc	(___fladd@b+1)^0,f,c
  4130   001268  502F               	movf	(___fladd@a+2)^0,w,c
  4131   00126A  222B               	addwfc	(___fladd@b+2)^0,f,c
  4132   00126C  5030               	movf	(___fladd@a+3)^0,w,c
  4133   00126E  222C               	addwfc	(___fladd@b+3)^0,f,c
  4134   001270  A02C               	btfss	(___fladd@b+3)^0,0,c
  4135   001272  EF3D  F009         	goto	u3731
  4136   001276  EF3F  F009         	goto	u3730
  4137   00127A                     u3731:
  4138   00127A  EFEB  F009         	goto	l4875
  4139   00127E                     u3730:
  4140   00127E  A038               	btfss	___fladd@grs^0,0,c
  4141   001280  EF44  F009         	goto	u3741
  4142   001284  EF46  F009         	goto	u3740
  4143   001288                     u3741:
  4144   001288  EF4C  F009         	goto	l4829
  4145   00128C                     u3740:
  4146   00128C  90D8               	bcf	status,0,c
  4147   00128E  3038               	rrcf	___fladd@grs^0,w,c
  4148   001290  0901               	iorlw	1
  4149   001292  6E38               	movwf	___fladd@grs^0,c
  4150   001294  EF4E  F009         	goto	l4831
  4151   001298                     l4829:
  4152   001298  90D8               	bcf	status,0,c
  4153   00129A  3238               	rrcf	___fladd@grs^0,f,c
  4154   00129C                     l4831:
  4155   00129C  A029               	btfss	___fladd@b^0,0,c
  4156   00129E  EF53  F009         	goto	u3751
  4157   0012A2  EF55  F009         	goto	u3750
  4158   0012A6                     u3751:
  4159   0012A6  EF56  F009         	goto	l4835
  4160   0012AA                     u3750:
  4161   0012AA  8E38               	bsf	___fladd@grs^0,7,c
  4162   0012AC                     l4835:
  4163   0012AC  342C               	rlcf	(___fladd@b+3)^0,w,c
  4164   0012AE  322C               	rrcf	(___fladd@b+3)^0,f,c
  4165   0012B0  322B               	rrcf	(___fladd@b+2)^0,f,c
  4166   0012B2  322A               	rrcf	(___fladd@b+1)^0,f,c
  4167   0012B4  3229               	rrcf	___fladd@b^0,f,c
  4168   0012B6  2A37               	incf	___fladd@bexp^0,f,c
  4169   0012B8  EFEB  F009         	goto	l4875
  4170   0012BC                     l4839:
  4171   0012BC  502D               	movf	___fladd@a^0,w,c
  4172   0012BE  5C29               	subwf	___fladd@b^0,w,c
  4173   0012C0  502E               	movf	(___fladd@a+1)^0,w,c
  4174   0012C2  582A               	subwfb	(___fladd@b+1)^0,w,c
  4175   0012C4  502F               	movf	(___fladd@a+2)^0,w,c
  4176   0012C6  582B               	subwfb	(___fladd@b+2)^0,w,c
  4177   0012C8  502C               	movf	(___fladd@b+3)^0,w,c
  4178   0012CA  0A80               	xorlw	128
  4179   0012CC  6E31               	movwf	??___fladd^0,c
  4180   0012CE  5030               	movf	(___fladd@a+3)^0,w,c
  4181   0012D0  0A80               	xorlw	128
  4182   0012D2  5831               	subwfb	??___fladd^0,w,c
  4183   0012D4  B0D8               	btfsc	status,0,c
  4184   0012D6  EF6F  F009         	goto	u3761
  4185   0012DA  EF71  F009         	goto	u3760
  4186   0012DE                     u3761:
  4187   0012DE  EF9C  F009         	goto	l4849
  4188   0012E2                     u3760:
  4189   0012E2  5029               	movf	___fladd@b^0,w,c
  4190   0012E4  5C2D               	subwf	___fladd@a^0,w,c
  4191   0012E6  6E31               	movwf	??___fladd^0,c
  4192   0012E8  502A               	movf	(___fladd@b+1)^0,w,c
  4193   0012EA  582E               	subwfb	(___fladd@a+1)^0,w,c
  4194   0012EC  6E32               	movwf	(??___fladd+1)^0,c
  4195   0012EE  502B               	movf	(___fladd@b+2)^0,w,c
  4196   0012F0  582F               	subwfb	(___fladd@a+2)^0,w,c
  4197   0012F2  6E33               	movwf	(??___fladd+2)^0,c
  4198   0012F4  502C               	movf	(___fladd@b+3)^0,w,c
  4199   0012F6  5830               	subwfb	(___fladd@a+3)^0,w,c
  4200   0012F8  6E34               	movwf	(??___fladd+3)^0,c
  4201   0012FA  0EFF               	movlw	255
  4202   0012FC  2431               	addwf	??___fladd^0,w,c
  4203   0012FE  6E29               	movwf	___fladd@b^0,c
  4204   001300  0EFF               	movlw	255
  4205   001302  2032               	addwfc	(??___fladd+1)^0,w,c
  4206   001304  6E2A               	movwf	(___fladd@b+1)^0,c
  4207   001306  0EFF               	movlw	255
  4208   001308  2033               	addwfc	(??___fladd+2)^0,w,c
  4209   00130A  6E2B               	movwf	(___fladd@b+2)^0,c
  4210   00130C  0EFF               	movlw	255
  4211   00130E  2034               	addwfc	(??___fladd+3)^0,w,c
  4212   001310  6E2C               	movwf	(___fladd@b+3)^0,c
  4213   001312  0E80               	movlw	128
  4214   001314  1A35               	xorwf	___fladd@signs^0,f,c
  4215   001316  6C38               	negf	___fladd@grs^0,c
  4216   001318  5038               	movf	___fladd@grs^0,w,c
  4217   00131A  A4D8               	btfss	status,2,c
  4218   00131C  EF92  F009         	goto	u3771
  4219   001320  EF94  F009         	goto	u3770
  4220   001324                     u3771:
  4221   001324  EFA4  F009         	goto	l1882
  4222   001328                     u3770:
  4223   001328  0E01               	movlw	1
  4224   00132A  2629               	addwf	___fladd@b^0,f,c
  4225   00132C  0E00               	movlw	0
  4226   00132E  222A               	addwfc	(___fladd@b+1)^0,f,c
  4227   001330  222B               	addwfc	(___fladd@b+2)^0,f,c
  4228   001332  222C               	addwfc	(___fladd@b+3)^0,f,c
  4229   001334  EFA4  F009         	goto	l1882
  4230   001338                     l4849:
  4231   001338  502D               	movf	___fladd@a^0,w,c
  4232   00133A  5E29               	subwf	___fladd@b^0,f,c
  4233   00133C  502E               	movf	(___fladd@a+1)^0,w,c
  4234   00133E  5A2A               	subwfb	(___fladd@b+1)^0,f,c
  4235   001340  502F               	movf	(___fladd@a+2)^0,w,c
  4236   001342  5A2B               	subwfb	(___fladd@b+2)^0,f,c
  4237   001344  5030               	movf	(___fladd@a+3)^0,w,c
  4238   001346  5A2C               	subwfb	(___fladd@b+3)^0,f,c
  4239   001348                     l1882:
  4240   001348  5029               	movf	___fladd@b^0,w,c
  4241   00134A  102A               	iorwf	(___fladd@b+1)^0,w,c
  4242   00134C  102B               	iorwf	(___fladd@b+2)^0,w,c
  4243   00134E  102C               	iorwf	(___fladd@b+3)^0,w,c
  4244   001350  A4D8               	btfss	status,2,c
  4245   001352  EFAD  F009         	goto	u3781
  4246   001356  EFAF  F009         	goto	u3780
  4247   00135A                     u3781:
  4248   00135A  EFE4  F009         	goto	l4873
  4249   00135E                     u3780:
  4250   00135E  5038               	movf	___fladd@grs^0,w,c
  4251   001360  A4D8               	btfss	status,2,c
  4252   001362  EFB5  F009         	goto	u3791
  4253   001366  EFB7  F009         	goto	u3790
  4254   00136A                     u3791:
  4255   00136A  EFE4  F009         	goto	l4873
  4256   00136E                     u3790:
  4257   00136E  0E00               	movlw	0
  4258   001370  6E29               	movwf	?___fladd^0,c
  4259   001372  0E00               	movlw	0
  4260   001374  6E2A               	movwf	(?___fladd+1)^0,c
  4261   001376  0E00               	movlw	0
  4262   001378  6E2B               	movwf	(?___fladd+2)^0,c
  4263   00137A  0E00               	movlw	0
  4264   00137C  6E2C               	movwf	(?___fladd+3)^0,c
  4265   00137E  EF7F  F00A         	goto	l1874
  4266   001382                     l4857:
  4267   001382  90D8               	bcf	status,0,c
  4268   001384  3629               	rlcf	___fladd@b^0,f,c
  4269   001386  362A               	rlcf	(___fladd@b+1)^0,f,c
  4270   001388  362B               	rlcf	(___fladd@b+2)^0,f,c
  4271   00138A  362C               	rlcf	(___fladd@b+3)^0,f,c
  4272   00138C  AE38               	btfss	___fladd@grs^0,7,c
  4273   00138E  EFCB  F009         	goto	u3801
  4274   001392  EFCD  F009         	goto	u3800
  4275   001396                     u3801:
  4276   001396  EFCE  F009         	goto	l4863
  4277   00139A                     u3800:
  4278   00139A  8029               	bsf	___fladd@b^0,0,c
  4279   00139C                     l4863:
  4280   00139C  A038               	btfss	___fladd@grs^0,0,c
  4281   00139E  EFD3  F009         	goto	u3811
  4282   0013A2  EFD5  F009         	goto	u3810
  4283   0013A6                     u3811:
  4284   0013A6  EFD9  F009         	goto	l4867
  4285   0013AA                     u3810:
  4286   0013AA  80D8               	bsf	status,0,c
  4287   0013AC  3638               	rlcf	___fladd@grs^0,f,c
  4288   0013AE  EFDB  F009         	goto	l4869
  4289   0013B2                     l4867:
  4290   0013B2  90D8               	bcf	status,0,c
  4291   0013B4  3638               	rlcf	___fladd@grs^0,f,c
  4292   0013B6                     l4869:
  4293   0013B6  5037               	movf	___fladd@bexp^0,w,c
  4294   0013B8  B4D8               	btfsc	status,2,c
  4295   0013BA  EFE1  F009         	goto	u3821
  4296   0013BE  EFE3  F009         	goto	u3820
  4297   0013C2                     u3821:
  4298   0013C2  EFE4  F009         	goto	l4873
  4299   0013C6                     u3820:
  4300   0013C6  0637               	decf	___fladd@bexp^0,f,c
  4301   0013C8                     l4873:
  4302   0013C8  AE2B               	btfss	(___fladd@b+2)^0,7,c
  4303   0013CA  EFE9  F009         	goto	u3831
  4304   0013CE  EFEB  F009         	goto	u3830
  4305   0013D2                     u3831:
  4306   0013D2  EFC1  F009         	goto	l4857
  4307   0013D6                     u3830:
  4308   0013D6                     l4875:
  4309   0013D6  0E00               	movlw	0
  4310   0013D8  6E36               	movwf	___fladd@aexp^0,c
  4311   0013DA  AE38               	btfss	___fladd@grs^0,7,c
  4312   0013DC  EFF2  F009         	goto	u3841
  4313   0013E0  EFF4  F009         	goto	u3840
  4314   0013E4                     u3841:
  4315   0013E4  EF0C  F00A         	goto	l1891
  4316   0013E8                     u3840:
  4317   0013E8  C038  F031         	movff	___fladd@grs,??___fladd
  4318   0013EC  0E7F               	movlw	127
  4319   0013EE  1631               	andwf	??___fladd^0,f,c
  4320   0013F0  B4D8               	btfsc	status,2,c
  4321   0013F2  EFFD  F009         	goto	u3851
  4322   0013F6  EFFF  F009         	goto	u3850
  4323   0013FA                     u3851:
  4324   0013FA  EF03  F00A         	goto	l1892
  4325   0013FE                     u3850:
  4326   0013FE                     l4881:
  4327   0013FE  0E01               	movlw	1
  4328   001400  6E36               	movwf	___fladd@aexp^0,c
  4329   001402  EF0C  F00A         	goto	l1891
  4330   001406                     l1892:
  4331   001406  A029               	btfss	___fladd@b^0,0,c
  4332   001408  EF08  F00A         	goto	u3861
  4333   00140C  EF0A  F00A         	goto	u3860
  4334   001410                     u3861:
  4335   001410  EF0C  F00A         	goto	l1891
  4336   001414                     u3860:
  4337   001414  EFFF  F009         	goto	l4881
  4338   001418                     l1891:
  4339   001418  5036               	movf	___fladd@aexp^0,w,c
  4340   00141A  B4D8               	btfsc	status,2,c
  4341   00141C  EF12  F00A         	goto	u3871
  4342   001420  EF14  F00A         	goto	u3870
  4343   001424                     u3871:
  4344   001424  EF3F  F00A         	goto	l4893
  4345   001428                     u3870:
  4346   001428  0E01               	movlw	1
  4347   00142A  2629               	addwf	___fladd@b^0,f,c
  4348   00142C  0E00               	movlw	0
  4349   00142E  222A               	addwfc	(___fladd@b+1)^0,f,c
  4350   001430  222B               	addwfc	(___fladd@b+2)^0,f,c
  4351   001432  222C               	addwfc	(___fladd@b+3)^0,f,c
  4352   001434  A02C               	btfss	(___fladd@b+3)^0,0,c
  4353   001436  EF1F  F00A         	goto	u3881
  4354   00143A  EF21  F00A         	goto	u3880
  4355   00143E                     u3881:
  4356   00143E  EF3F  F00A         	goto	l4893
  4357   001442                     u3880:
  4358   001442  C029  F031         	movff	___fladd@b,??___fladd
  4359   001446  C02A  F032         	movff	___fladd@b+1,??___fladd+1
  4360   00144A  C02B  F033         	movff	___fladd@b+2,??___fladd+2
  4361   00144E  C02C  F034         	movff	___fladd@b+3,??___fladd+3
  4362   001452  3434               	rlcf	(??___fladd+3)^0,w,c
  4363   001454  3234               	rrcf	(??___fladd+3)^0,f,c
  4364   001456  3233               	rrcf	(??___fladd+2)^0,f,c
  4365   001458  3232               	rrcf	(??___fladd+1)^0,f,c
  4366   00145A  3231               	rrcf	??___fladd^0,f,c
  4367   00145C  C031  F029         	movff	??___fladd,___fladd@b
  4368   001460  C032  F02A         	movff	??___fladd+1,___fladd@b+1
  4369   001464  C033  F02B         	movff	??___fladd+2,___fladd@b+2
  4370   001468  C034  F02C         	movff	??___fladd+3,___fladd@b+3
  4371   00146C  2837               	incf	___fladd@bexp^0,w,c
  4372   00146E  B4D8               	btfsc	status,2,c
  4373   001470  EF3C  F00A         	goto	u3891
  4374   001474  EF3E  F00A         	goto	u3890
  4375   001478                     u3891:
  4376   001478  EF3F  F00A         	goto	l4893
  4377   00147C                     u3890:
  4378   00147C  2A37               	incf	___fladd@bexp^0,f,c
  4379   00147E                     l4893:
  4380   00147E  2837               	incf	___fladd@bexp^0,w,c
  4381   001480  B4D8               	btfsc	status,2,c
  4382   001482  EF45  F00A         	goto	u3901
  4383   001486  EF47  F00A         	goto	u3900
  4384   00148A                     u3901:
  4385   00148A  EF4F  F00A         	goto	l4897
  4386   00148E                     u3900:
  4387   00148E  5037               	movf	___fladd@bexp^0,w,c
  4388   001490  A4D8               	btfss	status,2,c
  4389   001492  EF4D  F00A         	goto	u3911
  4390   001496  EF4F  F00A         	goto	u3910
  4391   00149A                     u3911:
  4392   00149A  EF61  F00A         	goto	l4901
  4393   00149E                     u3910:
  4394   00149E                     l4897:
  4395   00149E  0E00               	movlw	0
  4396   0014A0  6E29               	movwf	___fladd@b^0,c
  4397   0014A2  0E00               	movlw	0
  4398   0014A4  6E2A               	movwf	(___fladd@b+1)^0,c
  4399   0014A6  0E00               	movlw	0
  4400   0014A8  6E2B               	movwf	(___fladd@b+2)^0,c
  4401   0014AA  0E00               	movlw	0
  4402   0014AC  6E2C               	movwf	(___fladd@b+3)^0,c
  4403   0014AE  5037               	movf	___fladd@bexp^0,w,c
  4404   0014B0  A4D8               	btfss	status,2,c
  4405   0014B2  EF5D  F00A         	goto	u3921
  4406   0014B6  EF5F  F00A         	goto	u3920
  4407   0014BA                     u3921:
  4408   0014BA  EF61  F00A         	goto	l4901
  4409   0014BE                     u3920:
  4410   0014BE  0E00               	movlw	0
  4411   0014C0  6E35               	movwf	___fladd@signs^0,c
  4412   0014C2                     l4901:
  4413   0014C2  A037               	btfss	___fladd@bexp^0,0,c
  4414   0014C4  EF66  F00A         	goto	u3931
  4415   0014C8  EF68  F00A         	goto	u3930
  4416   0014CC                     u3931:
  4417   0014CC  EF6B  F00A         	goto	l4905
  4418   0014D0                     u3930:
  4419   0014D0  8E2B               	bsf	(___fladd@b+2)^0,7,c
  4420   0014D2  EF6C  F00A         	goto	l4907
  4421   0014D6                     l4905:
  4422   0014D6  9E2B               	bcf	(___fladd@b+2)^0,7,c
  4423   0014D8                     l4907:
  4424   0014D8  90D8               	bcf	status,0,c
  4425   0014DA  3037               	rrcf	___fladd@bexp^0,w,c
  4426   0014DC  6E2C               	movwf	(___fladd@b+3)^0,c
  4427   0014DE  AE35               	btfss	___fladd@signs^0,7,c
  4428   0014E0  EF74  F00A         	goto	u3941
  4429   0014E4  EF76  F00A         	goto	u3940
  4430   0014E8                     u3941:
  4431   0014E8  EF77  F00A         	goto	l4913
  4432   0014EC                     u3940:
  4433   0014EC  8E2C               	bsf	(___fladd@b+3)^0,7,c
  4434   0014EE                     l4913:
  4435   0014EE  C029  F029         	movff	___fladd@b,?___fladd
  4436   0014F2  C02A  F02A         	movff	___fladd@b+1,?___fladd+1
  4437   0014F6  C02B  F02B         	movff	___fladd@b+2,?___fladd+2
  4438   0014FA  C02C  F02C         	movff	___fladd@b+3,?___fladd+3
  4439   0014FE                     l1874:
  4440   0014FE  0012               	return		;funcret
  4441   001500                     __end_of___fladd:
  4442                           	callstack 0
  4443                           
  4444 ;; *************** function _CCP_Interrupt_Config *****************
  4445 ;; Defined at:
  4446 ;;		line 197 in file "MCAL_Layer/CCP/hal_cpp.c"
  4447 ;; Parameters:    Size  Location     Type
  4448 ;;  ccp             1    1[COMRAM] PTR const struct .
  4449 ;;		 -> ccp(15), 
  4450 ;; Auto vars:     Size  Location     Type
  4451 ;;		None
  4452 ;; Return value:  Size  Location     Type
  4453 ;;                  1    wreg      unsigned char 
  4454 ;; Registers used:
  4455 ;;		wreg, fsr2l, fsr2h, status,2, status,0
  4456 ;; Tracked objects:
  4457 ;;		On entry : 0/0
  4458 ;;		On exit  : 0/0
  4459 ;;		Unchanged: 0/0
  4460 ;; Data sizes:     COMRAM   BANK0   BANK1   BANK2   BANK3   BANK4   BANK5   BANK6   BANK7   BANK8   BANK9  BANK10  BANK1
      +1  BANK12  BANK13  BANK14  BANK15
  4461 ;;      Params:         1       0       0       0       0       0       0       0       0       0       0       0       
      +0       0       0       0       0
  4462 ;;      Locals:         0       0       0       0       0       0       0       0       0       0       0       0       
      +0       0       0       0       0
  4463 ;;      Temps:          0       0       0       0       0       0       0       0       0       0       0       0       
      +0       0       0       0       0
  4464 ;;      Totals:         1       0       0       0       0       0       0       0       0       0       0       0       
      +0       0       0       0       0
  4465 ;;Total ram usage:        1 bytes
  4466 ;; Hardware stack levels used: 1
  4467 ;; Hardware stack levels required when called: 2
  4468 ;; This function calls:
  4469 ;;		Nothing
  4470 ;; This function is called by:
  4471 ;;		_CCP_Init
  4472 ;; This function uses a non-reentrant model
  4473 ;;
  4474                           
  4475                           	psect	text17
  4476   002DA8                     __ptext17:
  4477                           	callstack 0
  4478   002DA8                     _CCP_Interrupt_Config:
  4479                           	callstack 27
  4480   002DA8                     
  4481                           ;MCAL_Layer/CCP/hal_cpp.c: 199:     (PIE1bits.CCP1IE = 1);
  4482   002DA8  849D               	bsf	157,2,c	;volatile
  4483                           
  4484                           ;MCAL_Layer/CCP/hal_cpp.c: 200:     (PIR1bits.CCP1IF = 0);
  4485   002DAA  949E               	bcf	158,2,c	;volatile
  4486   002DAC                     
  4487                           ;MCAL_Layer/CCP/hal_cpp.c: 201:     Interrupt_Handler_CCP1 = ccp->Interrupt_CCP1_Handler
      +                          ;
  4488   002DAC  5002               	movf	CCP_Interrupt_Config@ccp^0,w,c
  4489   002DAE  6ED9               	movwf	fsr2l,c
  4490   002DB0  6ADA               	clrf	fsr2h,c
  4491   002DB2  0E09               	movlw	9
  4492   002DB4  26D9               	addwf	fsr2l,f,c
  4493   002DB6  CFDE F0C4          	movff	postinc2,_Interrupt_Handler_CCP1
  4494   002DBA  CFDD F0C5          	movff	postdec2,_Interrupt_Handler_CCP1+1
  4495   002DBE                     
  4496                           ;MCAL_Layer/CCP/hal_cpp.c: 214:     (INTCONbits.GIEH = 1);
  4497   002DBE  8EF2               	bsf	242,7,c	;volatile
  4498   002DC0                     
  4499                           ;MCAL_Layer/CCP/hal_cpp.c: 215:     (INTCONbits.PEIE = 1);
  4500   002DC0  8CF2               	bsf	242,6,c	;volatile
  4501   002DC2                     
  4502                           ;MCAL_Layer/CCP/hal_cpp.c: 220:     (PIE2bits.CCP2IE = 1);
  4503   002DC2  80A0               	bsf	160,0,c	;volatile
  4504   002DC4                     
  4505                           ;MCAL_Layer/CCP/hal_cpp.c: 221:     (PIR2bits.CCP2IF = 0);
  4506   002DC4  90A1               	bcf	161,0,c	;volatile
  4507                           
  4508                           ;MCAL_Layer/CCP/hal_cpp.c: 222:     Interrupt_Handler_CCP2 = ccp->Interrupt_CCP2_Handler
      +                          ;
  4509   002DC6  5002               	movf	CCP_Interrupt_Config@ccp^0,w,c
  4510   002DC8  6ED9               	movwf	fsr2l,c
  4511   002DCA  6ADA               	clrf	fsr2h,c
  4512   002DCC  0E0C               	movlw	12
  4513   002DCE  26D9               	addwf	fsr2l,f,c
  4514   002DD0  CFDE F0C2          	movff	postinc2,_Interrupt_Handler_CCP2
  4515   002DD4  CFDD F0C3          	movff	postdec2,_Interrupt_Handler_CCP2+1
  4516   002DD8                     
  4517                           ;MCAL_Layer/CCP/hal_cpp.c: 235:     (INTCONbits.GIEH = 1);
  4518   002DD8  8EF2               	bsf	242,7,c	;volatile
  4519   002DDA                     
  4520                           ;MCAL_Layer/CCP/hal_cpp.c: 236:     (INTCONbits.PEIE = 1);
  4521   002DDA  8CF2               	bsf	242,6,c	;volatile
  4522   002DDC  0012               	return		;funcret
  4523   002DDE                     __end_of_CCP_Interrupt_Config:
  4524                           	callstack 0
  4525                           
  4526 ;; *************** function _CCP_Compare_Config *****************
  4527 ;; Defined at:
  4528 ;;		line 290 in file "MCAL_Layer/CCP/hal_cpp.c"
  4529 ;; Parameters:    Size  Location     Type
  4530 ;;  ccp             1    1[COMRAM] PTR const struct .
  4531 ;;		 -> ccp(15), 
  4532 ;; Auto vars:     Size  Location     Type
  4533 ;;  ret             1    3[COMRAM] unsigned char 
  4534 ;; Return value:  Size  Location     Type
  4535 ;;                  1    wreg      unsigned char 
  4536 ;; Registers used:
  4537 ;;		wreg, fsr2l, fsr2h, status,2, status,0
  4538 ;; Tracked objects:
  4539 ;;		On entry : 0/0
  4540 ;;		On exit  : 0/0
  4541 ;;		Unchanged: 0/0
  4542 ;; Data sizes:     COMRAM   BANK0   BANK1   BANK2   BANK3   BANK4   BANK5   BANK6   BANK7   BANK8   BANK9  BANK10  BANK1
      +1  BANK12  BANK13  BANK14  BANK15
  4543 ;;      Params:         1       0       0       0       0       0       0       0       0       0       0       0       
      +0       0       0       0       0
  4544 ;;      Locals:         1       0       0       0       0       0       0       0       0       0       0       0       
      +0       0       0       0       0
  4545 ;;      Temps:          1       0       0       0       0       0       0       0       0       0       0       0       
      +0       0       0       0       0
  4546 ;;      Totals:         3       0       0       0       0       0       0       0       0       0       0       0       
      +0       0       0       0       0
  4547 ;;Total ram usage:        3 bytes
  4548 ;; Hardware stack levels used: 1
  4549 ;; Hardware stack levels required when called: 2
  4550 ;; This function calls:
  4551 ;;		Nothing
  4552 ;; This function is called by:
  4553 ;;		_CCP_Init
  4554 ;; This function uses a non-reentrant model
  4555 ;;
  4556                           
  4557                           	psect	text18
  4558   002668                     __ptext18:
  4559                           	callstack 0
  4560   002668                     _CCP_Compare_Config:
  4561                           	callstack 27
  4562   002668                     
  4563                           ;MCAL_Layer/CCP/hal_cpp.c: 291:     std_ReturnType ret = (std_ReturnType)0x01;
  4564   002668  0E01               	movlw	1
  4565   00266A  6E04               	movwf	CCP_Compare_Config@ret^0,c
  4566                           
  4567                           ;MCAL_Layer/CCP/hal_cpp.c: 292:     if(ccp == ((void*)0)){
  4568   00266C  5002               	movf	CCP_Compare_Config@ccp^0,w,c
  4569   00266E  A4D8               	btfss	status,2,c
  4570   002670  EF3C  F013         	goto	u4691
  4571   002674  EF3E  F013         	goto	u4690
  4572   002678                     u4691:
  4573   002678  EF42  F013         	goto	l5415
  4574   00267C                     u4690:
  4575   00267C                     l5413:
  4576                           
  4577                           ;MCAL_Layer/CCP/hal_cpp.c: 293:         ret = (std_ReturnType)0x00;
  4578   00267C  0E00               	movlw	0
  4579   00267E  6E04               	movwf	CCP_Compare_Config@ret^0,c
  4580                           
  4581                           ;MCAL_Layer/CCP/hal_cpp.c: 294:     }
  4582   002680  EFD0  F013         	goto	l5451
  4583   002684                     l5415:
  4584                           
  4585                           ;MCAL_Layer/CCP/hal_cpp.c: 296:         if(ccp->ccpx == CCP1_INST){
  4586   002684  5002               	movf	CCP_Compare_Config@ccp^0,w,c
  4587   002686  6ED9               	movwf	fsr2l,c
  4588   002688  6ADA               	clrf	fsr2h,c
  4589   00268A  50DF               	movf	indf2,w,c
  4590   00268C  A4D8               	btfss	status,2,c
  4591   00268E  EF4B  F013         	goto	u4701
  4592   002692  EF4D  F013         	goto	u4700
  4593   002696                     u4701:
  4594   002696  EF89  F013         	goto	l5433
  4595   00269A                     u4700:
  4596   00269A  EF6D  F013         	goto	l5431
  4597   00269E                     l5419:
  4598   00269E  50BD               	movf	189,w,c	;volatile
  4599   0026A0  0BF0               	andlw	-16
  4600   0026A2  0902               	iorlw	2
  4601   0026A4  6EBD               	movwf	189,c	;volatile
  4602   0026A6  EFD0  F013         	goto	l5451
  4603   0026AA                     l5421:
  4604   0026AA  50BD               	movf	189,w,c	;volatile
  4605   0026AC  0BF0               	andlw	-16
  4606   0026AE  0908               	iorlw	8
  4607   0026B0  6EBD               	movwf	189,c	;volatile
  4608   0026B2  EFD0  F013         	goto	l5451
  4609   0026B6                     l5423:
  4610   0026B6  50BD               	movf	189,w,c	;volatile
  4611   0026B8  0BF0               	andlw	-16
  4612   0026BA  0909               	iorlw	9
  4613   0026BC  6EBD               	movwf	189,c	;volatile
  4614   0026BE  EFD0  F013         	goto	l5451
  4615   0026C2                     l5425:
  4616   0026C2  50BD               	movf	189,w,c	;volatile
  4617   0026C4  0BF0               	andlw	-16
  4618   0026C6  090A               	iorlw	10
  4619   0026C8  6EBD               	movwf	189,c	;volatile
  4620   0026CA  EFD0  F013         	goto	l5451
  4621   0026CE                     l5427:
  4622   0026CE  50BD               	movf	189,w,c	;volatile
  4623   0026D0  0BF0               	andlw	-16
  4624   0026D2  090B               	iorlw	11
  4625   0026D4  6EBD               	movwf	189,c	;volatile
  4626   0026D6  EFD0  F013         	goto	l5451
  4627   0026DA                     l5431:
  4628   0026DA  5002               	movf	CCP_Compare_Config@ccp^0,w,c
  4629   0026DC  6ED9               	movwf	fsr2l,c
  4630   0026DE  6ADA               	clrf	fsr2h,c
  4631   0026E0  0E02               	movlw	2
  4632   0026E2  26D9               	addwf	fsr2l,f,c
  4633   0026E4  50DF               	movf	indf2,w,c
  4634                           
  4635                           ; Switch size 1, requested type "simple"
  4636                           ; Number of cases is 5, Range of values is 2 to 11
  4637                           ; switch strategies available:
  4638                           ; Name         Instructions Cycles
  4639                           ; simple_byte           16     9 (average)
  4640                           ;	Chosen strategy is simple_byte
  4641   0026E6  0A02               	xorlw	2	; case 2
  4642   0026E8  B4D8               	btfsc	status,2,c
  4643   0026EA  EF4F  F013         	goto	l5419
  4644   0026EE  0A0A               	xorlw	10	; case 8
  4645   0026F0  B4D8               	btfsc	status,2,c
  4646   0026F2  EF55  F013         	goto	l5421
  4647   0026F6  0A01               	xorlw	1	; case 9
  4648   0026F8  B4D8               	btfsc	status,2,c
  4649   0026FA  EF5B  F013         	goto	l5423
  4650   0026FE  0A03               	xorlw	3	; case 10
  4651   002700  B4D8               	btfsc	status,2,c
  4652   002702  EF61  F013         	goto	l5425
  4653   002706  0A01               	xorlw	1	; case 11
  4654   002708  B4D8               	btfsc	status,2,c
  4655   00270A  EF67  F013         	goto	l5427
  4656   00270E  EF3E  F013         	goto	l5413
  4657   002712                     l5433:
  4658   002712  5002               	movf	CCP_Compare_Config@ccp^0,w,c
  4659   002714  6ED9               	movwf	fsr2l,c
  4660   002716  6ADA               	clrf	fsr2h,c
  4661   002718  04DE               	decf	postinc2,w,c
  4662   00271A  A4D8               	btfss	status,2,c
  4663   00271C  EF92  F013         	goto	u4711
  4664   002720  EF94  F013         	goto	u4710
  4665   002724                     u4711:
  4666   002724  EFD0  F013         	goto	l1304
  4667   002728                     u4710:
  4668   002728  EFB4  F013         	goto	l5449
  4669   00272C                     l5437:
  4670   00272C  50BA               	movf	186,w,c	;volatile
  4671   00272E  0BF0               	andlw	-16
  4672   002730  0902               	iorlw	2
  4673   002732  6EBA               	movwf	186,c	;volatile
  4674   002734  EFD0  F013         	goto	l5451
  4675   002738                     l5439:
  4676   002738  50BA               	movf	186,w,c	;volatile
  4677   00273A  0BF0               	andlw	-16
  4678   00273C  0908               	iorlw	8
  4679   00273E  6EBA               	movwf	186,c	;volatile
  4680   002740  EFD0  F013         	goto	l5451
  4681   002744                     l5441:
  4682   002744  50BA               	movf	186,w,c	;volatile
  4683   002746  0BF0               	andlw	-16
  4684   002748  0909               	iorlw	9
  4685   00274A  6EBA               	movwf	186,c	;volatile
  4686   00274C  EFD0  F013         	goto	l5451
  4687   002750                     l5443:
  4688   002750  50BA               	movf	186,w,c	;volatile
  4689   002752  0BF0               	andlw	-16
  4690   002754  090A               	iorlw	10
  4691   002756  6EBA               	movwf	186,c	;volatile
  4692   002758  EFD0  F013         	goto	l5451
  4693   00275C                     l5445:
  4694   00275C  50BA               	movf	186,w,c	;volatile
  4695   00275E  0BF0               	andlw	-16
  4696   002760  090B               	iorlw	11
  4697   002762  6EBA               	movwf	186,c	;volatile
  4698   002764  EFD0  F013         	goto	l5451
  4699   002768                     l5449:
  4700   002768  5002               	movf	CCP_Compare_Config@ccp^0,w,c
  4701   00276A  6ED9               	movwf	fsr2l,c
  4702   00276C  6ADA               	clrf	fsr2h,c
  4703   00276E  0E02               	movlw	2
  4704   002770  26D9               	addwf	fsr2l,f,c
  4705   002772  50DF               	movf	indf2,w,c
  4706                           
  4707                           ; Switch size 1, requested type "simple"
  4708                           ; Number of cases is 5, Range of values is 2 to 11
  4709                           ; switch strategies available:
  4710                           ; Name         Instructions Cycles
  4711                           ; simple_byte           16     9 (average)
  4712                           ;	Chosen strategy is simple_byte
  4713   002774  0A02               	xorlw	2	; case 2
  4714   002776  B4D8               	btfsc	status,2,c
  4715   002778  EF96  F013         	goto	l5437
  4716   00277C  0A0A               	xorlw	10	; case 8
  4717   00277E  B4D8               	btfsc	status,2,c
  4718   002780  EF9C  F013         	goto	l5439
  4719   002784  0A01               	xorlw	1	; case 9
  4720   002786  B4D8               	btfsc	status,2,c
  4721   002788  EFA2  F013         	goto	l5441
  4722   00278C  0A03               	xorlw	3	; case 10
  4723   00278E  B4D8               	btfsc	status,2,c
  4724   002790  EFA8  F013         	goto	l5443
  4725   002794  0A01               	xorlw	1	; case 11
  4726   002796  B4D8               	btfsc	status,2,c
  4727   002798  EFAE  F013         	goto	l5445
  4728   00279C  EF3E  F013         	goto	l5413
  4729   0027A0                     l1304:
  4730   0027A0                     l5451:
  4731                           
  4732                           ;MCAL_Layer/CCP/hal_cpp.c: 318:     return ret;
  4733   0027A0  5004               	movf	CCP_Compare_Config@ret^0,w,c
  4734   0027A2  0012               	return		;funcret
  4735   0027A4                     __end_of_CCP_Compare_Config:
  4736                           	callstack 0
  4737                           
  4738 ;; *************** function _CCP_Capture_Config *****************
  4739 ;; Defined at:
  4740 ;;		line 244 in file "MCAL_Layer/CCP/hal_cpp.c"
  4741 ;; Parameters:    Size  Location     Type
  4742 ;;  ccp             1    1[COMRAM] PTR const struct .
  4743 ;;		 -> ccp(15), 
  4744 ;; Auto vars:     Size  Location     Type
  4745 ;;  ret             1    3[COMRAM] unsigned char 
  4746 ;; Return value:  Size  Location     Type
  4747 ;;                  1    wreg      unsigned char 
  4748 ;; Registers used:
  4749 ;;		wreg, fsr2l, fsr2h, status,2, status,0
  4750 ;; Tracked objects:
  4751 ;;		On entry : 0/0
  4752 ;;		On exit  : 0/0
  4753 ;;		Unchanged: 0/0
  4754 ;; Data sizes:     COMRAM   BANK0   BANK1   BANK2   BANK3   BANK4   BANK5   BANK6   BANK7   BANK8   BANK9  BANK10  BANK1
      +1  BANK12  BANK13  BANK14  BANK15
  4755 ;;      Params:         1       0       0       0       0       0       0       0       0       0       0       0       
      +0       0       0       0       0
  4756 ;;      Locals:         1       0       0       0       0       0       0       0       0       0       0       0       
      +0       0       0       0       0
  4757 ;;      Temps:          1       0       0       0       0       0       0       0       0       0       0       0       
      +0       0       0       0       0
  4758 ;;      Totals:         3       0       0       0       0       0       0       0       0       0       0       0       
      +0       0       0       0       0
  4759 ;;Total ram usage:        3 bytes
  4760 ;; Hardware stack levels used: 1
  4761 ;; Hardware stack levels required when called: 2
  4762 ;; This function calls:
  4763 ;;		Nothing
  4764 ;; This function is called by:
  4765 ;;		_CCP_Init
  4766 ;; This function uses a non-reentrant model
  4767 ;;
  4768                           
  4769                           	psect	text19
  4770   0024EC                     __ptext19:
  4771                           	callstack 0
  4772   0024EC                     _CCP_Capture_Config:
  4773                           	callstack 27
  4774   0024EC                     
  4775                           ;MCAL_Layer/CCP/hal_cpp.c: 245:     std_ReturnType ret = (std_ReturnType)0x01;
  4776   0024EC  0E01               	movlw	1
  4777   0024EE  6E04               	movwf	CCP_Capture_Config@ret^0,c
  4778                           
  4779                           ;MCAL_Layer/CCP/hal_cpp.c: 246:     if(ccp == ((void*)0)){
  4780   0024F0  5002               	movf	CCP_Capture_Config@ccp^0,w,c
  4781   0024F2  A4D8               	btfss	status,2,c
  4782   0024F4  EF7E  F012         	goto	u4631
  4783   0024F8  EF80  F012         	goto	u4630
  4784   0024FC                     u4631:
  4785   0024FC  EF84  F012         	goto	l5363
  4786   002500                     u4630:
  4787   002500                     l5361:
  4788                           
  4789                           ;MCAL_Layer/CCP/hal_cpp.c: 247:         ret = (std_ReturnType)0x00;
  4790   002500  0E00               	movlw	0
  4791   002502  6E04               	movwf	CCP_Capture_Config@ret^0,c
  4792                           
  4793                           ;MCAL_Layer/CCP/hal_cpp.c: 248:     }
  4794   002504  EF32  F013         	goto	l5407
  4795   002508                     l5363:
  4796                           
  4797                           ;MCAL_Layer/CCP/hal_cpp.c: 250:         if(ccp->timer == CCP1_CCP2_TIMER3 ){
  4798   002508  5002               	movf	CCP_Capture_Config@ccp^0,w,c
  4799   00250A  6ED9               	movwf	fsr2l,c
  4800   00250C  6ADA               	clrf	fsr2h,c
  4801   00250E  0E04               	movlw	4
  4802   002510  26D9               	addwf	fsr2l,f,c
  4803   002512  50DF               	movf	indf2,w,c
  4804   002514  A4D8               	btfss	status,2,c
  4805   002516  EF8F  F012         	goto	u4641
  4806   00251A  EF91  F012         	goto	u4640
  4807   00251E                     u4641:
  4808   00251E  EF95  F012         	goto	l5367
  4809   002522                     u4640:
  4810   002522                     
  4811                           ;MCAL_Layer/CCP/hal_cpp.c: 251:             T3CONbits.T3CCP1 = 0;
  4812   002522  96B1               	bcf	177,3,c	;volatile
  4813                           
  4814                           ;MCAL_Layer/CCP/hal_cpp.c: 252:             T3CONbits.T3CCP2 = 1;
  4815   002524  8CB1               	bsf	177,6,c	;volatile
  4816                           
  4817                           ;MCAL_Layer/CCP/hal_cpp.c: 253:         }
  4818   002526  EFB8  F012         	goto	l5375
  4819   00252A                     l5367:
  4820   00252A  5002               	movf	CCP_Capture_Config@ccp^0,w,c
  4821   00252C  6ED9               	movwf	fsr2l,c
  4822   00252E  6ADA               	clrf	fsr2h,c
  4823   002530  0E04               	movlw	4
  4824   002532  26D9               	addwf	fsr2l,f,c
  4825   002534  04DE               	decf	postinc2,w,c
  4826   002536  A4D8               	btfss	status,2,c
  4827   002538  EFA0  F012         	goto	u4651
  4828   00253C  EFA2  F012         	goto	u4650
  4829   002540                     u4651:
  4830   002540  EFA6  F012         	goto	l5371
  4831   002544                     u4650:
  4832   002544                     
  4833                           ;MCAL_Layer/CCP/hal_cpp.c: 255:             T3CONbits.T3CCP1 = 1;
  4834   002544  86B1               	bsf	177,3,c	;volatile
  4835                           
  4836                           ;MCAL_Layer/CCP/hal_cpp.c: 256:             T3CONbits.T3CCP2 = 0;
  4837   002546  9CB1               	bcf	177,6,c	;volatile
  4838                           
  4839                           ;MCAL_Layer/CCP/hal_cpp.c: 257:         }
  4840   002548  EFB8  F012         	goto	l5375
  4841   00254C                     l5371:
  4842   00254C  5002               	movf	CCP_Capture_Config@ccp^0,w,c
  4843   00254E  6ED9               	movwf	fsr2l,c
  4844   002550  6ADA               	clrf	fsr2h,c
  4845   002552  0E04               	movlw	4
  4846   002554  26D9               	addwf	fsr2l,f,c
  4847   002556  0E02               	movlw	2
  4848   002558  18DE               	xorwf	postinc2,w,c
  4849   00255A  A4D8               	btfss	status,2,c
  4850   00255C  EFB2  F012         	goto	u4661
  4851   002560  EFB4  F012         	goto	u4660
  4852   002564                     u4661:
  4853   002564  EFB8  F012         	goto	l1269
  4854   002568                     u4660:
  4855   002568                     
  4856                           ;MCAL_Layer/CCP/hal_cpp.c: 259:             T3CONbits.T3CCP1 = 0;
  4857   002568  96B1               	bcf	177,3,c	;volatile
  4858                           
  4859                           ;MCAL_Layer/CCP/hal_cpp.c: 260:             T3CONbits.T3CCP2 = 0;
  4860   00256A  9CB1               	bcf	177,6,c	;volatile
  4861                           
  4862                           ;MCAL_Layer/CCP/hal_cpp.c: 261:         }
  4863   00256C  EFB8  F012         	goto	l5375
  4864   002570                     l1269:
  4865   002570                     l5375:
  4866                           
  4867                           ;MCAL_Layer/CCP/hal_cpp.c: 265:         if(ccp->ccpx == CCP1_INST){
  4868   002570  5002               	movf	CCP_Capture_Config@ccp^0,w,c
  4869   002572  6ED9               	movwf	fsr2l,c
  4870   002574  6ADA               	clrf	fsr2h,c
  4871   002576  50DF               	movf	indf2,w,c
  4872   002578  A4D8               	btfss	status,2,c
  4873   00257A  EFC1  F012         	goto	u4671
  4874   00257E  EFC3  F012         	goto	u4670
  4875   002582                     u4671:
  4876   002582  EFF5  F012         	goto	l5391
  4877   002586                     u4670:
  4878   002586  EFDD  F012         	goto	l5389
  4879   00258A                     l5379:
  4880   00258A  50BD               	movf	189,w,c	;volatile
  4881   00258C  0BF0               	andlw	-16
  4882   00258E  0904               	iorlw	4
  4883   002590  6EBD               	movwf	189,c	;volatile
  4884   002592  EF32  F013         	goto	l5407
  4885   002596                     l5381:
  4886   002596  50BD               	movf	189,w,c	;volatile
  4887   002598  0BF0               	andlw	-16
  4888   00259A  0905               	iorlw	5
  4889   00259C  6EBD               	movwf	189,c	;volatile
  4890   00259E  EF32  F013         	goto	l5407
  4891   0025A2                     l5383:
  4892   0025A2  50BD               	movf	189,w,c	;volatile
  4893   0025A4  0BF0               	andlw	-16
  4894   0025A6  0906               	iorlw	6
  4895   0025A8  6EBD               	movwf	189,c	;volatile
  4896   0025AA  EF32  F013         	goto	l5407
  4897   0025AE                     l5385:
  4898   0025AE  50BD               	movf	189,w,c	;volatile
  4899   0025B0  0BF0               	andlw	-16
  4900   0025B2  0907               	iorlw	7
  4901   0025B4  6EBD               	movwf	189,c	;volatile
  4902   0025B6  EF32  F013         	goto	l5407
  4903   0025BA                     l5389:
  4904   0025BA  5002               	movf	CCP_Capture_Config@ccp^0,w,c
  4905   0025BC  6ED9               	movwf	fsr2l,c
  4906   0025BE  6ADA               	clrf	fsr2h,c
  4907   0025C0  0E02               	movlw	2
  4908   0025C2  26D9               	addwf	fsr2l,f,c
  4909   0025C4  50DF               	movf	indf2,w,c
  4910                           
  4911                           ; Switch size 1, requested type "simple"
  4912                           ; Number of cases is 4, Range of values is 4 to 7
  4913                           ; switch strategies available:
  4914                           ; Name         Instructions Cycles
  4915                           ; simple_byte           13     7 (average)
  4916                           ;	Chosen strategy is simple_byte
  4917   0025C6  0A04               	xorlw	4	; case 4
  4918   0025C8  B4D8               	btfsc	status,2,c
  4919   0025CA  EFC5  F012         	goto	l5379
  4920   0025CE  0A01               	xorlw	1	; case 5
  4921   0025D0  B4D8               	btfsc	status,2,c
  4922   0025D2  EFCB  F012         	goto	l5381
  4923   0025D6  0A03               	xorlw	3	; case 6
  4924   0025D8  B4D8               	btfsc	status,2,c
  4925   0025DA  EFD1  F012         	goto	l5383
  4926   0025DE  0A01               	xorlw	1	; case 7
  4927   0025E0  B4D8               	btfsc	status,2,c
  4928   0025E2  EFD7  F012         	goto	l5385
  4929   0025E6  EF80  F012         	goto	l5361
  4930   0025EA                     l5391:
  4931   0025EA  5002               	movf	CCP_Capture_Config@ccp^0,w,c
  4932   0025EC  6ED9               	movwf	fsr2l,c
  4933   0025EE  6ADA               	clrf	fsr2h,c
  4934   0025F0  04DE               	decf	postinc2,w,c
  4935   0025F2  A4D8               	btfss	status,2,c
  4936   0025F4  EFFE  F012         	goto	u4681
  4937   0025F8  EF00  F013         	goto	u4680
  4938   0025FC                     u4681:
  4939   0025FC  EF32  F013         	goto	l1280
  4940   002600                     u4680:
  4941   002600  EF1A  F013         	goto	l5405
  4942   002604                     l5395:
  4943   002604  50BA               	movf	186,w,c	;volatile
  4944   002606  0BF0               	andlw	-16
  4945   002608  0904               	iorlw	4
  4946   00260A  6EBA               	movwf	186,c	;volatile
  4947   00260C  EF32  F013         	goto	l5407
  4948   002610                     l5397:
  4949   002610  50BA               	movf	186,w,c	;volatile
  4950   002612  0BF0               	andlw	-16
  4951   002614  0905               	iorlw	5
  4952   002616  6EBA               	movwf	186,c	;volatile
  4953   002618  EF32  F013         	goto	l5407
  4954   00261C                     l5399:
  4955   00261C  50BA               	movf	186,w,c	;volatile
  4956   00261E  0BF0               	andlw	-16
  4957   002620  0906               	iorlw	6
  4958   002622  6EBA               	movwf	186,c	;volatile
  4959   002624  EF32  F013         	goto	l5407
  4960   002628                     l5401:
  4961   002628  50BA               	movf	186,w,c	;volatile
  4962   00262A  0BF0               	andlw	-16
  4963   00262C  0907               	iorlw	7
  4964   00262E  6EBA               	movwf	186,c	;volatile
  4965   002630  EF32  F013         	goto	l5407
  4966   002634                     l5405:
  4967   002634  5002               	movf	CCP_Capture_Config@ccp^0,w,c
  4968   002636  6ED9               	movwf	fsr2l,c
  4969   002638  6ADA               	clrf	fsr2h,c
  4970   00263A  0E02               	movlw	2
  4971   00263C  26D9               	addwf	fsr2l,f,c
  4972   00263E  50DF               	movf	indf2,w,c
  4973                           
  4974                           ; Switch size 1, requested type "simple"
  4975                           ; Number of cases is 4, Range of values is 4 to 7
  4976                           ; switch strategies available:
  4977                           ; Name         Instructions Cycles
  4978                           ; simple_byte           13     7 (average)
  4979                           ;	Chosen strategy is simple_byte
  4980   002640  0A04               	xorlw	4	; case 4
  4981   002642  B4D8               	btfsc	status,2,c
  4982   002644  EF02  F013         	goto	l5395
  4983   002648  0A01               	xorlw	1	; case 5
  4984   00264A  B4D8               	btfsc	status,2,c
  4985   00264C  EF08  F013         	goto	l5397
  4986   002650  0A03               	xorlw	3	; case 6
  4987   002652  B4D8               	btfsc	status,2,c
  4988   002654  EF0E  F013         	goto	l5399
  4989   002658  0A01               	xorlw	1	; case 7
  4990   00265A  B4D8               	btfsc	status,2,c
  4991   00265C  EF14  F013         	goto	l5401
  4992   002660  EF80  F012         	goto	l5361
  4993   002664                     l1280:
  4994   002664                     l5407:
  4995                           
  4996                           ;MCAL_Layer/CCP/hal_cpp.c: 285:     return ret;
  4997   002664  5004               	movf	CCP_Capture_Config@ret^0,w,c
  4998   002666  0012               	return		;funcret
  4999   002668                     __end_of_CCP_Capture_Config:
  5000                           	callstack 0
  5001                           
  5002 ;; *************** function _InterruptMangaer *****************
  5003 ;; Defined at:
  5004 ;;		line 38 in file "MCAL_Layer/Interrupt/mcal_interrupt_manager.c"
  5005 ;; Parameters:    Size  Location     Type
  5006 ;;		None
  5007 ;; Auto vars:     Size  Location     Type
  5008 ;;		None
  5009 ;; Return value:  Size  Location     Type
  5010 ;;                  1    wreg      void 
  5011 ;; Registers used:
  5012 ;;		wreg, status,2, status,0, cstack
  5013 ;; Tracked objects:
  5014 ;;		On entry : 0/0
  5015 ;;		On exit  : 0/0
  5016 ;;		Unchanged: 0/0
  5017 ;; Data sizes:     COMRAM   BANK0   BANK1   BANK2   BANK3   BANK4   BANK5   BANK6   BANK7   BANK8   BANK9  BANK10  BANK1
      +1  BANK12  BANK13  BANK14  BANK15
  5018 ;;      Params:         0       0       0       0       0       0       0       0       0       0       0       0       
      +0       0       0       0       0
  5019 ;;      Locals:         0       0       0       0       0       0       0       0       0       0       0       0       
      +0       0       0       0       0
  5020 ;;      Temps:          0       0       0       0       0       0       0       0       0       0       0       0       
      +0       0       0       0       0
  5021 ;;      Totals:         0       0       0       0       0       0       0       0       0       0       0       0       
      +0       0       0       0       0
  5022 ;;Total ram usage:        0 bytes
  5023 ;; Hardware stack levels used: 1
  5024 ;; Hardware stack levels required when called: 1
  5025 ;; This function calls:
  5026 ;;		_CCP1_ISR
  5027 ;;		_CCP2_ISR
  5028 ;;		_INT0_ISR
  5029 ;;		_INT1_ISR
  5030 ;;		_INT2_ISR
  5031 ;;		_RB4_ISR
  5032 ;;		_RB5_ISR
  5033 ;;		_RB6_ISR
  5034 ;;		_RB7_ISR
  5035 ;;		_TMR0_ISR
  5036 ;;		_TMR1_ISR
  5037 ;;		_TMR2_ISR
  5038 ;;		_TMR3_ISR
  5039 ;; This function is called by:
  5040 ;;		Interrupt level 2
  5041 ;; This function uses a non-reentrant model
  5042 ;;
  5043                           
  5044                           	psect	intcode
  5045   000008                     __pintcode:
  5046                           	callstack 0
  5047   000008                     _InterruptMangaer:
  5048                           	callstack 24
  5049                           
  5050                           ;incstack = 0
  5051   000008  827E               	bsf	int$flags,1,c	;set compiler interrupt flag (level 2)
  5052   00000A  ED62  F00E         	call	int_func,f	;refresh shadow registers
  5053                           
  5054                           	psect	intcode_body
  5055   001CC4                     __pintcode_body:
  5056                           	callstack 24
  5057   001CC4                     int_func:
  5058                           	callstack 24
  5059   001CC4  0006               	pop		; remove dummy address from shadow register refresh
  5060   001CC6                     
  5061                           ;MCAL_Layer/Interrupt/mcal_interrupt_manager.c: 39:     if((INTCONbits.INT0IE == 1) && (
      +                          INTCONbits.INT0IF == 1)){
  5062   001CC6  A8F2               	btfss	242,4,c	;volatile
  5063   001CC8  EF68  F00E         	goto	i2u569_41
  5064   001CCC  EF6A  F00E         	goto	i2u569_40
  5065   001CD0                     i2u569_41:
  5066   001CD0  EF73  F00E         	goto	i2l844
  5067   001CD4                     i2u569_40:
  5068   001CD4  A2F2               	btfss	242,1,c	;volatile
  5069   001CD6  EF6F  F00E         	goto	i2u570_41
  5070   001CDA  EF71  F00E         	goto	i2u570_40
  5071   001CDE                     i2u570_41:
  5072   001CDE  EF73  F00E         	goto	i2l844
  5073   001CE2                     i2u570_40:
  5074   001CE2                     
  5075                           ;MCAL_Layer/Interrupt/mcal_interrupt_manager.c: 40:         INT0_ISR();
  5076   001CE2  EC63  F017         	call	_INT0_ISR	;wreg free
  5077   001CE6                     i2l844:
  5078                           
  5079                           ;MCAL_Layer/Interrupt/mcal_interrupt_manager.c: 45:     if((1 == INTCON3bits.INT1E) && (
      +                          1 == INTCON3bits.INT1F)){
  5080   001CE6  A6F0               	btfss	240,3,c	;volatile
  5081   001CE8  EF78  F00E         	goto	i2u571_41
  5082   001CEC  EF7A  F00E         	goto	i2u571_40
  5083   001CF0                     i2u571_41:
  5084   001CF0  EF83  F00E         	goto	i2l846
  5085   001CF4                     i2u571_40:
  5086   001CF4  A0F0               	btfss	240,0,c	;volatile
  5087   001CF6  EF7F  F00E         	goto	i2u572_41
  5088   001CFA  EF81  F00E         	goto	i2u572_40
  5089   001CFE                     i2u572_41:
  5090   001CFE  EF83  F00E         	goto	i2l846
  5091   001D02                     i2u572_40:
  5092   001D02                     
  5093                           ;MCAL_Layer/Interrupt/mcal_interrupt_manager.c: 46:         INT1_ISR();
  5094   001D02  EC61  F017         	call	_INT1_ISR	;wreg free
  5095   001D06                     i2l846:
  5096                           
  5097                           ;MCAL_Layer/Interrupt/mcal_interrupt_manager.c: 49:     if((1 == INTCON3bits.INT2IE) && 
      +                          (1 == INTCON3bits.INT2IF)){
  5098   001D06  A8F0               	btfss	240,4,c	;volatile
  5099   001D08  EF88  F00E         	goto	i2u573_41
  5100   001D0C  EF8A  F00E         	goto	i2u573_40
  5101   001D10                     i2u573_41:
  5102   001D10  EF93  F00E         	goto	i2l848
  5103   001D14                     i2u573_40:
  5104   001D14  A2F0               	btfss	240,1,c	;volatile
  5105   001D16  EF8F  F00E         	goto	i2u574_41
  5106   001D1A  EF91  F00E         	goto	i2u574_40
  5107   001D1E                     i2u574_41:
  5108   001D1E  EF93  F00E         	goto	i2l848
  5109   001D22                     i2u574_40:
  5110   001D22                     
  5111                           ;MCAL_Layer/Interrupt/mcal_interrupt_manager.c: 50:         INT2_ISR();
  5112   001D22  EC5F  F017         	call	_INT2_ISR	;wreg free
  5113   001D26                     i2l848:
  5114                           
  5115                           ;MCAL_Layer/Interrupt/mcal_interrupt_manager.c: 53:     if((INTCONbits.RBIE == 1) && (IN
      +                          TCONbits.RBIF == 1) && (PORTBbits.RB4 == GPIO_HIGH) && (RB4_F == 1)){
  5116   001D26  A6F2               	btfss	242,3,c	;volatile
  5117   001D28  EF98  F00E         	goto	i2u575_41
  5118   001D2C  EF9A  F00E         	goto	i2u575_40
  5119   001D30                     i2u575_41:
  5120   001D30  EFB5  F00E         	goto	i2l850
  5121   001D34                     i2u575_40:
  5122   001D34  A0F2               	btfss	242,0,c	;volatile
  5123   001D36  EF9F  F00E         	goto	i2u576_41
  5124   001D3A  EFA1  F00E         	goto	i2u576_40
  5125   001D3E                     i2u576_41:
  5126   001D3E  EFB5  F00E         	goto	i2l850
  5127   001D42                     i2u576_40:
  5128   001D42  A881               	btfss	129,4,c	;volatile
  5129   001D44  EFA6  F00E         	goto	i2u577_41
  5130   001D48  EFA8  F00E         	goto	i2u577_40
  5131   001D4C                     i2u577_41:
  5132   001D4C  EFB5  F00E         	goto	i2l850
  5133   001D50                     i2u577_40:
  5134   001D50  047B               	decf	_RB4_F^0,w,c	;volatile
  5135   001D52  A4D8               	btfss	status,2,c
  5136   001D54  EFAE  F00E         	goto	i2u578_41
  5137   001D58  EFB0  F00E         	goto	i2u578_40
  5138   001D5C                     i2u578_41:
  5139   001D5C  EFB5  F00E         	goto	i2l850
  5140   001D60                     i2u578_40:
  5141   001D60                     
  5142                           ;MCAL_Layer/Interrupt/mcal_interrupt_manager.c: 54:         RB4_F = 0;
  5143   001D60  0E00               	movlw	0
  5144   001D62  6E7B               	movwf	_RB4_F^0,c	;volatile
  5145   001D64                     
  5146                           ;MCAL_Layer/Interrupt/mcal_interrupt_manager.c: 55:         RB4_ISR(0);
  5147   001D64  0E00               	movlw	0
  5148   001D66  EC07  F017         	call	_RB4_ISR
  5149   001D6A                     i2l850:
  5150                           
  5151                           ;MCAL_Layer/Interrupt/mcal_interrupt_manager.c: 58:     if((INTCONbits.RBIE == 1) && (IN
      +                          TCONbits.RBIF == 1) && (PORTBbits.RB4 == GPIO_LOW) && (RB4_F == 0)){
  5152   001D6A  A6F2               	btfss	242,3,c	;volatile
  5153   001D6C  EFBA  F00E         	goto	i2u579_41
  5154   001D70  EFBC  F00E         	goto	i2u579_40
  5155   001D74                     i2u579_41:
  5156   001D74  EFD7  F00E         	goto	i2l852
  5157   001D78                     i2u579_40:
  5158   001D78  A0F2               	btfss	242,0,c	;volatile
  5159   001D7A  EFC1  F00E         	goto	i2u580_41
  5160   001D7E  EFC3  F00E         	goto	i2u580_40
  5161   001D82                     i2u580_41:
  5162   001D82  EFD7  F00E         	goto	i2l852
  5163   001D86                     i2u580_40:
  5164   001D86  B881               	btfsc	129,4,c	;volatile
  5165   001D88  EFC8  F00E         	goto	i2u581_41
  5166   001D8C  EFCA  F00E         	goto	i2u581_40
  5167   001D90                     i2u581_41:
  5168   001D90  EFD7  F00E         	goto	i2l852
  5169   001D94                     i2u581_40:
  5170   001D94  507B               	movf	_RB4_F^0,w,c	;volatile
  5171   001D96  A4D8               	btfss	status,2,c
  5172   001D98  EFD0  F00E         	goto	i2u582_41
  5173   001D9C  EFD2  F00E         	goto	i2u582_40
  5174   001DA0                     i2u582_41:
  5175   001DA0  EFD7  F00E         	goto	i2l852
  5176   001DA4                     i2u582_40:
  5177   001DA4                     
  5178                           ;MCAL_Layer/Interrupt/mcal_interrupt_manager.c: 59:         RB4_F = 1;
  5179   001DA4  0E01               	movlw	1
  5180   001DA6  6E7B               	movwf	_RB4_F^0,c	;volatile
  5181   001DA8                     
  5182                           ;MCAL_Layer/Interrupt/mcal_interrupt_manager.c: 60:         RB4_ISR(1);
  5183   001DA8  0E01               	movlw	1
  5184   001DAA  EC07  F017         	call	_RB4_ISR
  5185   001DAE                     i2l852:
  5186                           
  5187                           ;MCAL_Layer/Interrupt/mcal_interrupt_manager.c: 63:     if((INTCONbits.RBIE == 1) && (IN
      +                          TCONbits.RBIF == 1) && (PORTBbits.RB5 == GPIO_HIGH) && (RB5_F == 1)){
  5188   001DAE  A6F2               	btfss	242,3,c	;volatile
  5189   001DB0  EFDC  F00E         	goto	i2u583_41
  5190   001DB4  EFDE  F00E         	goto	i2u583_40
  5191   001DB8                     i2u583_41:
  5192   001DB8  EFF9  F00E         	goto	i2l854
  5193   001DBC                     i2u583_40:
  5194   001DBC  A0F2               	btfss	242,0,c	;volatile
  5195   001DBE  EFE3  F00E         	goto	i2u584_41
  5196   001DC2  EFE5  F00E         	goto	i2u584_40
  5197   001DC6                     i2u584_41:
  5198   001DC6  EFF9  F00E         	goto	i2l854
  5199   001DCA                     i2u584_40:
  5200   001DCA  AA81               	btfss	129,5,c	;volatile
  5201   001DCC  EFEA  F00E         	goto	i2u585_41
  5202   001DD0  EFEC  F00E         	goto	i2u585_40
  5203   001DD4                     i2u585_41:
  5204   001DD4  EFF9  F00E         	goto	i2l854
  5205   001DD8                     i2u585_40:
  5206   001DD8  047A               	decf	_RB5_F^0,w,c	;volatile
  5207   001DDA  A4D8               	btfss	status,2,c
  5208   001DDC  EFF2  F00E         	goto	i2u586_41
  5209   001DE0  EFF4  F00E         	goto	i2u586_40
  5210   001DE4                     i2u586_41:
  5211   001DE4  EFF9  F00E         	goto	i2l854
  5212   001DE8                     i2u586_40:
  5213   001DE8                     
  5214                           ;MCAL_Layer/Interrupt/mcal_interrupt_manager.c: 64:         RB5_F = 0;
  5215   001DE8  0E00               	movlw	0
  5216   001DEA  6E7A               	movwf	_RB5_F^0,c	;volatile
  5217   001DEC                     
  5218                           ;MCAL_Layer/Interrupt/mcal_interrupt_manager.c: 65:         RB5_ISR(0);
  5219   001DEC  0E00               	movlw	0
  5220   001DEE  EC2F  F017         	call	_RB5_ISR
  5221   001DF2                     i2l854:
  5222                           
  5223                           ;MCAL_Layer/Interrupt/mcal_interrupt_manager.c: 68:     if((INTCONbits.RBIE == 1) && (IN
      +                          TCONbits.RBIF == 1) && (PORTBbits.RB5 == GPIO_LOW) && (RB5_F == 0)){
  5224   001DF2  A6F2               	btfss	242,3,c	;volatile
  5225   001DF4  EFFE  F00E         	goto	i2u587_41
  5226   001DF8  EF00  F00F         	goto	i2u587_40
  5227   001DFC                     i2u587_41:
  5228   001DFC  EF1B  F00F         	goto	i2l856
  5229   001E00                     i2u587_40:
  5230   001E00  A0F2               	btfss	242,0,c	;volatile
  5231   001E02  EF05  F00F         	goto	i2u588_41
  5232   001E06  EF07  F00F         	goto	i2u588_40
  5233   001E0A                     i2u588_41:
  5234   001E0A  EF1B  F00F         	goto	i2l856
  5235   001E0E                     i2u588_40:
  5236   001E0E  BA81               	btfsc	129,5,c	;volatile
  5237   001E10  EF0C  F00F         	goto	i2u589_41
  5238   001E14  EF0E  F00F         	goto	i2u589_40
  5239   001E18                     i2u589_41:
  5240   001E18  EF1B  F00F         	goto	i2l856
  5241   001E1C                     i2u589_40:
  5242   001E1C  507A               	movf	_RB5_F^0,w,c	;volatile
  5243   001E1E  A4D8               	btfss	status,2,c
  5244   001E20  EF14  F00F         	goto	i2u590_41
  5245   001E24  EF16  F00F         	goto	i2u590_40
  5246   001E28                     i2u590_41:
  5247   001E28  EF1B  F00F         	goto	i2l856
  5248   001E2C                     i2u590_40:
  5249   001E2C                     
  5250                           ;MCAL_Layer/Interrupt/mcal_interrupt_manager.c: 69:         RB5_F = 1;
  5251   001E2C  0E01               	movlw	1
  5252   001E2E  6E7A               	movwf	_RB5_F^0,c	;volatile
  5253   001E30                     
  5254                           ;MCAL_Layer/Interrupt/mcal_interrupt_manager.c: 70:         RB5_ISR(1);
  5255   001E30  0E01               	movlw	1
  5256   001E32  EC2F  F017         	call	_RB5_ISR
  5257   001E36                     i2l856:
  5258                           
  5259                           ;MCAL_Layer/Interrupt/mcal_interrupt_manager.c: 73:     if((INTCONbits.RBIE == 1) && (IN
      +                          TCONbits.RBIF == 1) && (PORTBbits.RB6 == GPIO_HIGH) && (RB6_F == 1)){
  5260   001E36  A6F2               	btfss	242,3,c	;volatile
  5261   001E38  EF20  F00F         	goto	i2u591_41
  5262   001E3C  EF22  F00F         	goto	i2u591_40
  5263   001E40                     i2u591_41:
  5264   001E40  EF3D  F00F         	goto	i2l858
  5265   001E44                     i2u591_40:
  5266   001E44  A0F2               	btfss	242,0,c	;volatile
  5267   001E46  EF27  F00F         	goto	i2u592_41
  5268   001E4A  EF29  F00F         	goto	i2u592_40
  5269   001E4E                     i2u592_41:
  5270   001E4E  EF3D  F00F         	goto	i2l858
  5271   001E52                     i2u592_40:
  5272   001E52  AC81               	btfss	129,6,c	;volatile
  5273   001E54  EF2E  F00F         	goto	i2u593_41
  5274   001E58  EF30  F00F         	goto	i2u593_40
  5275   001E5C                     i2u593_41:
  5276   001E5C  EF3D  F00F         	goto	i2l858
  5277   001E60                     i2u593_40:
  5278   001E60  0479               	decf	_RB6_F^0,w,c	;volatile
  5279   001E62  A4D8               	btfss	status,2,c
  5280   001E64  EF36  F00F         	goto	i2u594_41
  5281   001E68  EF38  F00F         	goto	i2u594_40
  5282   001E6C                     i2u594_41:
  5283   001E6C  EF3D  F00F         	goto	i2l858
  5284   001E70                     i2u594_40:
  5285   001E70                     
  5286                           ;MCAL_Layer/Interrupt/mcal_interrupt_manager.c: 74:         RB6_F = 0;
  5287   001E70  0E00               	movlw	0
  5288   001E72  6E79               	movwf	_RB6_F^0,c	;volatile
  5289   001E74                     
  5290                           ;MCAL_Layer/Interrupt/mcal_interrupt_manager.c: 75:         RB6_ISR(0);
  5291   001E74  0E00               	movlw	0
  5292   001E76  EC22  F017         	call	_RB6_ISR
  5293   001E7A                     i2l858:
  5294                           
  5295                           ;MCAL_Layer/Interrupt/mcal_interrupt_manager.c: 78:     if((INTCONbits.RBIE == 1) && (IN
      +                          TCONbits.RBIF == 1) && (PORTBbits.RB6 == GPIO_LOW) && (RB6_F == 0)){
  5296   001E7A  A6F2               	btfss	242,3,c	;volatile
  5297   001E7C  EF42  F00F         	goto	i2u595_41
  5298   001E80  EF44  F00F         	goto	i2u595_40
  5299   001E84                     i2u595_41:
  5300   001E84  EF5F  F00F         	goto	i2l860
  5301   001E88                     i2u595_40:
  5302   001E88  A0F2               	btfss	242,0,c	;volatile
  5303   001E8A  EF49  F00F         	goto	i2u596_41
  5304   001E8E  EF4B  F00F         	goto	i2u596_40
  5305   001E92                     i2u596_41:
  5306   001E92  EF5F  F00F         	goto	i2l860
  5307   001E96                     i2u596_40:
  5308   001E96  BC81               	btfsc	129,6,c	;volatile
  5309   001E98  EF50  F00F         	goto	i2u597_41
  5310   001E9C  EF52  F00F         	goto	i2u597_40
  5311   001EA0                     i2u597_41:
  5312   001EA0  EF5F  F00F         	goto	i2l860
  5313   001EA4                     i2u597_40:
  5314   001EA4  5079               	movf	_RB6_F^0,w,c	;volatile
  5315   001EA6  A4D8               	btfss	status,2,c
  5316   001EA8  EF58  F00F         	goto	i2u598_41
  5317   001EAC  EF5A  F00F         	goto	i2u598_40
  5318   001EB0                     i2u598_41:
  5319   001EB0  EF5F  F00F         	goto	i2l860
  5320   001EB4                     i2u598_40:
  5321   001EB4                     
  5322                           ;MCAL_Layer/Interrupt/mcal_interrupt_manager.c: 79:         RB6_F = 1;
  5323   001EB4  0E01               	movlw	1
  5324   001EB6  6E79               	movwf	_RB6_F^0,c	;volatile
  5325   001EB8                     
  5326                           ;MCAL_Layer/Interrupt/mcal_interrupt_manager.c: 80:         RB4_ISR(1);
  5327   001EB8  0E01               	movlw	1
  5328   001EBA  EC07  F017         	call	_RB4_ISR
  5329   001EBE                     i2l860:
  5330                           
  5331                           ;MCAL_Layer/Interrupt/mcal_interrupt_manager.c: 83:     if((INTCONbits.RBIE == 1) && (IN
      +                          TCONbits.RBIF == 1) && (PORTBbits.RB7 == GPIO_HIGH) && (RB7_F == 1)){
  5332   001EBE  A6F2               	btfss	242,3,c	;volatile
  5333   001EC0  EF64  F00F         	goto	i2u599_41
  5334   001EC4  EF66  F00F         	goto	i2u599_40
  5335   001EC8                     i2u599_41:
  5336   001EC8  EF81  F00F         	goto	i2l862
  5337   001ECC                     i2u599_40:
  5338   001ECC  A0F2               	btfss	242,0,c	;volatile
  5339   001ECE  EF6B  F00F         	goto	i2u600_41
  5340   001ED2  EF6D  F00F         	goto	i2u600_40
  5341   001ED6                     i2u600_41:
  5342   001ED6  EF81  F00F         	goto	i2l862
  5343   001EDA                     i2u600_40:
  5344   001EDA  AE81               	btfss	129,7,c	;volatile
  5345   001EDC  EF72  F00F         	goto	i2u601_41
  5346   001EE0  EF74  F00F         	goto	i2u601_40
  5347   001EE4                     i2u601_41:
  5348   001EE4  EF81  F00F         	goto	i2l862
  5349   001EE8                     i2u601_40:
  5350   001EE8  0478               	decf	_RB7_F^0,w,c	;volatile
  5351   001EEA  A4D8               	btfss	status,2,c
  5352   001EEC  EF7A  F00F         	goto	i2u602_41
  5353   001EF0  EF7C  F00F         	goto	i2u602_40
  5354   001EF4                     i2u602_41:
  5355   001EF4  EF81  F00F         	goto	i2l862
  5356   001EF8                     i2u602_40:
  5357   001EF8                     
  5358                           ;MCAL_Layer/Interrupt/mcal_interrupt_manager.c: 84:         RB7_F = 0;
  5359   001EF8  0E00               	movlw	0
  5360   001EFA  6E78               	movwf	_RB7_F^0,c	;volatile
  5361   001EFC                     
  5362                           ;MCAL_Layer/Interrupt/mcal_interrupt_manager.c: 85:         RB7_ISR(0);
  5363   001EFC  0E00               	movlw	0
  5364   001EFE  EC15  F017         	call	_RB7_ISR
  5365   001F02                     i2l862:
  5366   001F02  A6F2               	btfss	242,3,c	;volatile
  5367   001F04  EF86  F00F         	goto	i2u603_41
  5368   001F08  EF88  F00F         	goto	i2u603_40
  5369   001F0C                     i2u603_41:
  5370   001F0C  EFA3  F00F         	goto	i2l864
  5371   001F10                     i2u603_40:
  5372   001F10  A0F2               	btfss	242,0,c	;volatile
  5373   001F12  EF8D  F00F         	goto	i2u604_41
  5374   001F16  EF8F  F00F         	goto	i2u604_40
  5375   001F1A                     i2u604_41:
  5376   001F1A  EFA3  F00F         	goto	i2l864
  5377   001F1E                     i2u604_40:
  5378   001F1E  AE81               	btfss	129,7,c	;volatile
  5379   001F20  EF94  F00F         	goto	i2u605_41
  5380   001F24  EF96  F00F         	goto	i2u605_40
  5381   001F28                     i2u605_41:
  5382   001F28  EFA3  F00F         	goto	i2l864
  5383   001F2C                     i2u605_40:
  5384   001F2C  5078               	movf	_RB7_F^0,w,c	;volatile
  5385   001F2E  A4D8               	btfss	status,2,c
  5386   001F30  EF9C  F00F         	goto	i2u606_41
  5387   001F34  EF9E  F00F         	goto	i2u606_40
  5388   001F38                     i2u606_41:
  5389   001F38  EFA3  F00F         	goto	i2l864
  5390   001F3C                     i2u606_40:
  5391   001F3C                     
  5392                           ;MCAL_Layer/Interrupt/mcal_interrupt_manager.c: 88:         RB7_F = 0;
  5393   001F3C  0E00               	movlw	0
  5394   001F3E  6E78               	movwf	_RB7_F^0,c	;volatile
  5395   001F40                     
  5396                           ;MCAL_Layer/Interrupt/mcal_interrupt_manager.c: 89:         RB7_ISR(1);
  5397   001F40  0E01               	movlw	1
  5398   001F42  EC15  F017         	call	_RB7_ISR
  5399   001F46                     i2l864:
  5400                           
  5401                           ;MCAL_Layer/Interrupt/mcal_interrupt_manager.c: 92:     if((INTCONbits.TMR0IE == 1) && (
      +                          INTCONbits.TMR0IF == 1)){
  5402   001F46  AAF2               	btfss	242,5,c	;volatile
  5403   001F48  EFA8  F00F         	goto	i2u607_41
  5404   001F4C  EFAA  F00F         	goto	i2u607_40
  5405   001F50                     i2u607_41:
  5406   001F50  EFB3  F00F         	goto	i2l866
  5407   001F54                     i2u607_40:
  5408   001F54  A4F2               	btfss	242,2,c	;volatile
  5409   001F56  EFAF  F00F         	goto	i2u608_41
  5410   001F5A  EFB1  F00F         	goto	i2u608_40
  5411   001F5E                     i2u608_41:
  5412   001F5E  EFB3  F00F         	goto	i2l866
  5413   001F62                     i2u608_40:
  5414   001F62                     
  5415                           ;MCAL_Layer/Interrupt/mcal_interrupt_manager.c: 93:         TMR0_ISR();
  5416   001F62  EC48  F017         	call	_TMR0_ISR	;wreg free
  5417   001F66                     i2l866:
  5418                           
  5419                           ;MCAL_Layer/Interrupt/mcal_interrupt_manager.c: 96:     if((PIE1bits.TMR1IE == 1) && (PI
      +                          R1bits.TMR1IF == 1)){
  5420   001F66  A09D               	btfss	157,0,c	;volatile
  5421   001F68  EFB8  F00F         	goto	i2u609_41
  5422   001F6C  EFBA  F00F         	goto	i2u609_40
  5423   001F70                     i2u609_41:
  5424   001F70  EFC3  F00F         	goto	i2l868
  5425   001F74                     i2u609_40:
  5426   001F74  A09E               	btfss	158,0,c	;volatile
  5427   001F76  EFBF  F00F         	goto	i2u610_41
  5428   001F7A  EFC1  F00F         	goto	i2u610_40
  5429   001F7E                     i2u610_41:
  5430   001F7E  EFC3  F00F         	goto	i2l868
  5431   001F82                     i2u610_40:
  5432   001F82                     
  5433                           ;MCAL_Layer/Interrupt/mcal_interrupt_manager.c: 97:         TMR1_ISR();
  5434   001F82  EC42  F017         	call	_TMR1_ISR	;wreg free
  5435   001F86                     i2l868:
  5436                           
  5437                           ;MCAL_Layer/Interrupt/mcal_interrupt_manager.c: 101:     if((T2CONbits.TMR2ON == 1) && (
      +                          PIR1bits.TMR2IF == 1)){
  5438   001F86  A4CA               	btfss	202,2,c	;volatile
  5439   001F88  EFC8  F00F         	goto	i2u611_41
  5440   001F8C  EFCA  F00F         	goto	i2u611_40
  5441   001F90                     i2u611_41:
  5442   001F90  EFD3  F00F         	goto	i2l870
  5443   001F94                     i2u611_40:
  5444   001F94  A29E               	btfss	158,1,c	;volatile
  5445   001F96  EFCF  F00F         	goto	i2u612_41
  5446   001F9A  EFD1  F00F         	goto	i2u612_40
  5447   001F9E                     i2u612_41:
  5448   001F9E  EFD3  F00F         	goto	i2l870
  5449   001FA2                     i2u612_40:
  5450   001FA2                     
  5451                           ;MCAL_Layer/Interrupt/mcal_interrupt_manager.c: 102:         TMR2_ISR();
  5452   001FA2  EC58  F017         	call	_TMR2_ISR	;wreg free
  5453   001FA6                     i2l870:
  5454                           
  5455                           ;MCAL_Layer/Interrupt/mcal_interrupt_manager.c: 105:     if((T3CONbits.TMR3ON == 1) && (
      +                          PIR2bits.TMR3IF == 1)){
  5456   001FA6  A0B1               	btfss	177,0,c	;volatile
  5457   001FA8  EFD8  F00F         	goto	i2u613_41
  5458   001FAC  EFDA  F00F         	goto	i2u613_40
  5459   001FB0                     i2u613_41:
  5460   001FB0  EFE3  F00F         	goto	i2l872
  5461   001FB4                     i2u613_40:
  5462   001FB4  A2A1               	btfss	161,1,c	;volatile
  5463   001FB6  EFDF  F00F         	goto	i2u614_41
  5464   001FBA  EFE1  F00F         	goto	i2u614_40
  5465   001FBE                     i2u614_41:
  5466   001FBE  EFE3  F00F         	goto	i2l872
  5467   001FC2                     i2u614_40:
  5468   001FC2                     
  5469                           ;MCAL_Layer/Interrupt/mcal_interrupt_manager.c: 106:         TMR3_ISR();
  5470   001FC2  EC3C  F017         	call	_TMR3_ISR	;wreg free
  5471   001FC6                     i2l872:
  5472                           
  5473                           ;MCAL_Layer/Interrupt/mcal_interrupt_manager.c: 110:     if((PIE1bits.CCP1IE == 1) && (P
      +                          IR1bits.CCP1IF == 1)){
  5474   001FC6  A49D               	btfss	157,2,c	;volatile
  5475   001FC8  EFE8  F00F         	goto	i2u615_41
  5476   001FCC  EFEA  F00F         	goto	i2u615_40
  5477   001FD0                     i2u615_41:
  5478   001FD0  EFF3  F00F         	goto	i2l874
  5479   001FD4                     i2u615_40:
  5480   001FD4  A49E               	btfss	158,2,c	;volatile
  5481   001FD6  EFEF  F00F         	goto	i2u616_41
  5482   001FDA  EFF1  F00F         	goto	i2u616_40
  5483   001FDE                     i2u616_41:
  5484   001FDE  EFF3  F00F         	goto	i2l874
  5485   001FE2                     i2u616_40:
  5486   001FE2                     
  5487                           ;MCAL_Layer/Interrupt/mcal_interrupt_manager.c: 111:         CCP1_ISR();
  5488   001FE2  EC67  F017         	call	_CCP1_ISR	;wreg free
  5489   001FE6                     i2l874:
  5490                           
  5491                           ;MCAL_Layer/Interrupt/mcal_interrupt_manager.c: 115:     if((PIE2bits.CCP2IE == 1) && (P
      +                          IR2bits.CCP2IF == 1)){
  5492   001FE6  A0A0               	btfss	160,0,c	;volatile
  5493   001FE8  EFF8  F00F         	goto	i2u617_41
  5494   001FEC  EFFA  F00F         	goto	i2u617_40
  5495   001FF0                     i2u617_41:
  5496   001FF0  EF03  F010         	goto	i2l877
  5497   001FF4                     i2u617_40:
  5498   001FF4  A0A1               	btfss	161,0,c	;volatile
  5499   001FF6  EFFF  F00F         	goto	i2u618_41
  5500   001FFA  EF01  F010         	goto	i2u618_40
  5501   001FFE                     i2u618_41:
  5502   001FFE  EF03  F010         	goto	i2l877
  5503   002002                     i2u618_40:
  5504   002002                     
  5505                           ;MCAL_Layer/Interrupt/mcal_interrupt_manager.c: 116:         CCP2_ISR();
  5506   002002  EC65  F017         	call	_CCP2_ISR	;wreg free
  5507   002006                     i2l877:
  5508   002006  927E               	bcf	int$flags,1,c	;clear compiler interrupt flag (level 2)
  5509   002008  0011               	retfie		f
  5510   00200A                     __end_of_InterruptMangaer:
  5511                           	callstack 0
  5512                           
  5513 ;; *************** function _TMR3_ISR *****************
  5514 ;; Defined at:
  5515 ;;		line 142 in file "MCAL_Layer/TIMERS/TIMER3/hal_timer3.c"
  5516 ;; Parameters:    Size  Location     Type
  5517 ;;		None
  5518 ;; Auto vars:     Size  Location     Type
  5519 ;;		None
  5520 ;; Return value:  Size  Location     Type
  5521 ;;                  1    wreg      void 
  5522 ;; Registers used:
  5523 ;;		wreg, status,2
  5524 ;; Tracked objects:
  5525 ;;		On entry : 0/0
  5526 ;;		On exit  : 0/0
  5527 ;;		Unchanged: 0/0
  5528 ;; Data sizes:     COMRAM   BANK0   BANK1   BANK2   BANK3   BANK4   BANK5   BANK6   BANK7   BANK8   BANK9  BANK10  BANK1
      +1  BANK12  BANK13  BANK14  BANK15
  5529 ;;      Params:         0       0       0       0       0       0       0       0       0       0       0       0       
      +0       0       0       0       0
  5530 ;;      Locals:         0       0       0       0       0       0       0       0       0       0       0       0       
      +0       0       0       0       0
  5531 ;;      Temps:          0       0       0       0       0       0       0       0       0       0       0       0       
      +0       0       0       0       0
  5532 ;;      Totals:         0       0       0       0       0       0       0       0       0       0       0       0       
      +0       0       0       0       0
  5533 ;;Total ram usage:        0 bytes
  5534 ;; Hardware stack levels used: 1
  5535 ;; This function calls:
  5536 ;;		Nothing
  5537 ;; This function is called by:
  5538 ;;		_InterruptMangaer
  5539 ;; This function uses a non-reentrant model
  5540 ;;
  5541                           
  5542                           	psect	text21
  5543   002E78                     __ptext21:
  5544                           	callstack 0
  5545   002E78                     _TMR3_ISR:
  5546                           	callstack 24
  5547   002E78                     
  5548                           ;MCAL_Layer/TIMERS/TIMER3/hal_timer3.c: 143:     (PIR2bits.TMR3IF = 0);
  5549   002E78  92A1               	bcf	161,1,c	;volatile
  5550   002E7A                     
  5551                           ;MCAL_Layer/TIMERS/TIMER3/hal_timer3.c: 144:     TMR3H = (uint8)(preval >> 8);
  5552   002E7A  506A               	movf	(_preval@hal_timer3$F2573+1)^0,w,c
  5553   002E7C  6EB3               	movwf	179,c	;volatile
  5554   002E7E                     
  5555                           ;MCAL_Layer/TIMERS/TIMER3/hal_timer3.c: 145:     TMR3L = (uint8)preval;
  5556   002E7E  C069  FFB2         	movff	_preval@hal_timer3$F2573,4018	;volatile
  5557   002E82  0012               	return		;funcret
  5558   002E84                     __end_of_TMR3_ISR:
  5559                           	callstack 0
  5560                           
  5561 ;; *************** function _TMR2_ISR *****************
  5562 ;; Defined at:
  5563 ;;		line 82 in file "MCAL_Layer/TIMERS/TIMER2/hal_timer2.c"
  5564 ;; Parameters:    Size  Location     Type
  5565 ;;		None
  5566 ;; Auto vars:     Size  Location     Type
  5567 ;;		None
  5568 ;; Return value:  Size  Location     Type
  5569 ;;                  1    wreg      void 
  5570 ;; Registers used:
  5571 ;;		None
  5572 ;; Tracked objects:
  5573 ;;		On entry : 0/0
  5574 ;;		On exit  : 0/0
  5575 ;;		Unchanged: 0/0
  5576 ;; Data sizes:     COMRAM   BANK0   BANK1   BANK2   BANK3   BANK4   BANK5   BANK6   BANK7   BANK8   BANK9  BANK10  BANK1
      +1  BANK12  BANK13  BANK14  BANK15
  5577 ;;      Params:         0       0       0       0       0       0       0       0       0       0       0       0       
      +0       0       0       0       0
  5578 ;;      Locals:         0       0       0       0       0       0       0       0       0       0       0       0       
      +0       0       0       0       0
  5579 ;;      Temps:          0       0       0       0       0       0       0       0       0       0       0       0       
      +0       0       0       0       0
  5580 ;;      Totals:         0       0       0       0       0       0       0       0       0       0       0       0       
      +0       0       0       0       0
  5581 ;;Total ram usage:        0 bytes
  5582 ;; Hardware stack levels used: 1
  5583 ;; This function calls:
  5584 ;;		Nothing
  5585 ;; This function is called by:
  5586 ;;		_InterruptMangaer
  5587 ;; This function uses a non-reentrant model
  5588 ;;
  5589                           
  5590                           	psect	text22
  5591   002EB0                     __ptext22:
  5592                           	callstack 0
  5593   002EB0                     _TMR2_ISR:
  5594                           	callstack 24
  5595   002EB0                     
  5596                           ;MCAL_Layer/TIMERS/TIMER2/hal_timer2.c: 83:     (PIR1bits.TMR2IF = 0);
  5597   002EB0  929E               	bcf	158,1,c	;volatile
  5598                           
  5599                           ;MCAL_Layer/TIMERS/TIMER2/hal_timer2.c: 84:     TMR2 = preval;
  5600   002EB2  C070  FFCC         	movff	_preval@hal_timer2$F2436,4044	;volatile
  5601   002EB6  0012               	return		;funcret
  5602   002EB8                     __end_of_TMR2_ISR:
  5603                           	callstack 0
  5604                           
  5605 ;; *************** function _TMR1_ISR *****************
  5606 ;; Defined at:
  5607 ;;		line 141 in file "MCAL_Layer/TIMERS/TIMER1/hal_timer1.c"
  5608 ;; Parameters:    Size  Location     Type
  5609 ;;		None
  5610 ;; Auto vars:     Size  Location     Type
  5611 ;;		None
  5612 ;; Return value:  Size  Location     Type
  5613 ;;                  1    wreg      void 
  5614 ;; Registers used:
  5615 ;;		wreg, status,2
  5616 ;; Tracked objects:
  5617 ;;		On entry : 0/0
  5618 ;;		On exit  : 0/0
  5619 ;;		Unchanged: 0/0
  5620 ;; Data sizes:     COMRAM   BANK0   BANK1   BANK2   BANK3   BANK4   BANK5   BANK6   BANK7   BANK8   BANK9  BANK10  BANK1
      +1  BANK12  BANK13  BANK14  BANK15
  5621 ;;      Params:         0       0       0       0       0       0       0       0       0       0       0       0       
      +0       0       0       0       0
  5622 ;;      Locals:         0       0       0       0       0       0       0       0       0       0       0       0       
      +0       0       0       0       0
  5623 ;;      Temps:          0       0       0       0       0       0       0       0       0       0       0       0       
      +0       0       0       0       0
  5624 ;;      Totals:         0       0       0       0       0       0       0       0       0       0       0       0       
      +0       0       0       0       0
  5625 ;;Total ram usage:        0 bytes
  5626 ;; Hardware stack levels used: 1
  5627 ;; This function calls:
  5628 ;;		Nothing
  5629 ;; This function is called by:
  5630 ;;		_InterruptMangaer
  5631 ;; This function uses a non-reentrant model
  5632 ;;
  5633                           
  5634                           	psect	text23
  5635   002E84                     __ptext23:
  5636                           	callstack 0
  5637   002E84                     _TMR1_ISR:
  5638                           	callstack 24
  5639   002E84                     
  5640                           ;MCAL_Layer/TIMERS/TIMER1/hal_timer1.c: 142:     (PIR1bits.TMR1IF = 0);
  5641   002E84  909E               	bcf	158,0,c	;volatile
  5642   002E86                     
  5643                           ;MCAL_Layer/TIMERS/TIMER1/hal_timer1.c: 143:     TMR1H = (uint8)(preval >> 8);
  5644   002E86  506C               	movf	(_preval+1)^0,w,c
  5645   002E88  6ECF               	movwf	207,c	;volatile
  5646   002E8A                     
  5647                           ;MCAL_Layer/TIMERS/TIMER1/hal_timer1.c: 144:     TMR1L = (uint8)preval;
  5648   002E8A  C06B  FFCE         	movff	_preval,4046	;volatile
  5649   002E8E  0012               	return		;funcret
  5650   002E90                     __end_of_TMR1_ISR:
  5651                           	callstack 0
  5652                           
  5653 ;; *************** function _TMR0_ISR *****************
  5654 ;; Defined at:
  5655 ;;		line 153 in file "MCAL_Layer/TIMERS/TIMER0/hal_timer0.c"
  5656 ;; Parameters:    Size  Location     Type
  5657 ;;		None
  5658 ;; Auto vars:     Size  Location     Type
  5659 ;;		None
  5660 ;; Return value:  Size  Location     Type
  5661 ;;                  1    wreg      void 
  5662 ;; Registers used:
  5663 ;;		wreg, status,2
  5664 ;; Tracked objects:
  5665 ;;		On entry : 0/0
  5666 ;;		On exit  : 0/0
  5667 ;;		Unchanged: 0/0
  5668 ;; Data sizes:     COMRAM   BANK0   BANK1   BANK2   BANK3   BANK4   BANK5   BANK6   BANK7   BANK8   BANK9  BANK10  BANK1
      +1  BANK12  BANK13  BANK14  BANK15
  5669 ;;      Params:         0       0       0       0       0       0       0       0       0       0       0       0       
      +0       0       0       0       0
  5670 ;;      Locals:         0       0       0       0       0       0       0       0       0       0       0       0       
      +0       0       0       0       0
  5671 ;;      Temps:          0       0       0       0       0       0       0       0       0       0       0       0       
      +0       0       0       0       0
  5672 ;;      Totals:         0       0       0       0       0       0       0       0       0       0       0       0       
      +0       0       0       0       0
  5673 ;;Total ram usage:        0 bytes
  5674 ;; Hardware stack levels used: 1
  5675 ;; This function calls:
  5676 ;;		Nothing
  5677 ;; This function is called by:
  5678 ;;		_InterruptMangaer
  5679 ;; This function uses a non-reentrant model
  5680 ;;
  5681                           
  5682                           	psect	text24
  5683   002E90                     __ptext24:
  5684                           	callstack 0
  5685   002E90                     _TMR0_ISR:
  5686                           	callstack 24
  5687   002E90                     
  5688                           ;MCAL_Layer/TIMERS/TIMER0/hal_timer0.c: 154:     (INTCONbits.TMR0IF = 0);
  5689   002E90  94F2               	bcf	242,2,c	;volatile
  5690   002E92                     
  5691                           ;MCAL_Layer/TIMERS/TIMER0/hal_timer0.c: 155:     TMR0H = (preload >> 8);
  5692   002E92  506E               	movf	(_preload+1)^0,w,c
  5693   002E94  6ED7               	movwf	215,c	;volatile
  5694   002E96                     
  5695                           ;MCAL_Layer/TIMERS/TIMER0/hal_timer0.c: 156:     TMR0L = (uint8)(preload);
  5696   002E96  C06D  FFD6         	movff	_preload,4054	;volatile
  5697   002E9A  0012               	return		;funcret
  5698   002E9C                     __end_of_TMR0_ISR:
  5699                           	callstack 0
  5700                           
  5701 ;; *************** function _RB7_ISR *****************
  5702 ;; Defined at:
  5703 ;;		line 170 in file "MCAL_Layer/Interrupt/mcal_external_interrupt.c"
  5704 ;; Parameters:    Size  Location     Type
  5705 ;;  n               1    wreg     unsigned char 
  5706 ;; Auto vars:     Size  Location     Type
  5707 ;;  n               1    0[COMRAM] unsigned char 
  5708 ;; Return value:  Size  Location     Type
  5709 ;;                  1    wreg      void 
  5710 ;; Registers used:
  5711 ;;		wreg, status,2
  5712 ;; Tracked objects:
  5713 ;;		On entry : 0/0
  5714 ;;		On exit  : 0/0
  5715 ;;		Unchanged: 0/0
  5716 ;; Data sizes:     COMRAM   BANK0   BANK1   BANK2   BANK3   BANK4   BANK5   BANK6   BANK7   BANK8   BANK9  BANK10  BANK1
      +1  BANK12  BANK13  BANK14  BANK15
  5717 ;;      Params:         0       0       0       0       0       0       0       0       0       0       0       0       
      +0       0       0       0       0
  5718 ;;      Locals:         1       0       0       0       0       0       0       0       0       0       0       0       
      +0       0       0       0       0
  5719 ;;      Temps:          0       0       0       0       0       0       0       0       0       0       0       0       
      +0       0       0       0       0
  5720 ;;      Totals:         1       0       0       0       0       0       0       0       0       0       0       0       
      +0       0       0       0       0
  5721 ;;Total ram usage:        1 bytes
  5722 ;; Hardware stack levels used: 1
  5723 ;; This function calls:
  5724 ;;		Nothing
  5725 ;; This function is called by:
  5726 ;;		_InterruptMangaer
  5727 ;; This function uses a non-reentrant model
  5728 ;;
  5729                           
  5730                           	psect	text25
  5731   002E2A                     __ptext25:
  5732                           	callstack 0
  5733   002E2A                     _RB7_ISR:
  5734                           	callstack 24
  5735                           
  5736                           ;incstack = 0
  5737                           ;RB7_ISR@n stored from wreg
  5738   002E2A  6E01               	movwf	RB7_ISR@n^0,c
  5739   002E2C                     
  5740                           ;MCAL_Layer/Interrupt/mcal_external_interrupt.c: 172:     (INTCONbits.RBIF = 0);
  5741   002E2C  90F2               	bcf	242,0,c	;volatile
  5742   002E2E                     
  5743                           ;MCAL_Layer/Interrupt/mcal_external_interrupt.c: 176:    if(!n){
  5744   002E2E  5001               	movf	RB7_ISR@n^0,w,c
  5745   002E30  A4D8               	btfss	status,2,c
  5746   002E32  EF1D  F017         	goto	i2u490_41
  5747   002E36  EF1F  F017         	goto	i2u490_40
  5748   002E3A                     i2u490_41:
  5749   002E3A  EF21  F017         	goto	i2l5669
  5750   002E3E                     i2u490_40:
  5751   002E3E  EF21  F017         	goto	i2l683
  5752   002E42                     i2l5669:
  5753   002E42                     i2l683:
  5754   002E42  0012               	return		;funcret
  5755   002E44                     __end_of_RB7_ISR:
  5756                           	callstack 0
  5757                           
  5758 ;; *************** function _RB6_ISR *****************
  5759 ;; Defined at:
  5760 ;;		line 145 in file "MCAL_Layer/Interrupt/mcal_external_interrupt.c"
  5761 ;; Parameters:    Size  Location     Type
  5762 ;;  n               1    wreg     unsigned char 
  5763 ;; Auto vars:     Size  Location     Type
  5764 ;;  n               1    0[COMRAM] unsigned char 
  5765 ;; Return value:  Size  Location     Type
  5766 ;;                  1    wreg      void 
  5767 ;; Registers used:
  5768 ;;		wreg, status,2
  5769 ;; Tracked objects:
  5770 ;;		On entry : 0/0
  5771 ;;		On exit  : 0/0
  5772 ;;		Unchanged: 0/0
  5773 ;; Data sizes:     COMRAM   BANK0   BANK1   BANK2   BANK3   BANK4   BANK5   BANK6   BANK7   BANK8   BANK9  BANK10  BANK1
      +1  BANK12  BANK13  BANK14  BANK15
  5774 ;;      Params:         0       0       0       0       0       0       0       0       0       0       0       0       
      +0       0       0       0       0
  5775 ;;      Locals:         1       0       0       0       0       0       0       0       0       0       0       0       
      +0       0       0       0       0
  5776 ;;      Temps:          0       0       0       0       0       0       0       0       0       0       0       0       
      +0       0       0       0       0
  5777 ;;      Totals:         1       0       0       0       0       0       0       0       0       0       0       0       
      +0       0       0       0       0
  5778 ;;Total ram usage:        1 bytes
  5779 ;; Hardware stack levels used: 1
  5780 ;; This function calls:
  5781 ;;		Nothing
  5782 ;; This function is called by:
  5783 ;;		_InterruptMangaer
  5784 ;; This function uses a non-reentrant model
  5785 ;;
  5786                           
  5787                           	psect	text26
  5788   002E44                     __ptext26:
  5789                           	callstack 0
  5790   002E44                     _RB6_ISR:
  5791                           	callstack 24
  5792                           
  5793                           ;incstack = 0
  5794                           ;RB6_ISR@n stored from wreg
  5795   002E44  6E01               	movwf	RB6_ISR@n^0,c
  5796   002E46                     
  5797                           ;MCAL_Layer/Interrupt/mcal_external_interrupt.c: 147:     (INTCONbits.RBIF = 0);
  5798   002E46  90F2               	bcf	242,0,c	;volatile
  5799   002E48                     
  5800                           ;MCAL_Layer/Interrupt/mcal_external_interrupt.c: 151:     if(!n){
  5801   002E48  5001               	movf	RB6_ISR@n^0,w,c
  5802   002E4A  A4D8               	btfss	status,2,c
  5803   002E4C  EF2A  F017         	goto	i2u489_41
  5804   002E50  EF2C  F017         	goto	i2u489_40
  5805   002E54                     i2u489_41:
  5806   002E54  EF2E  F017         	goto	i2l5655
  5807   002E58                     i2u489_40:
  5808   002E58  EF2E  F017         	goto	i2l672
  5809   002E5C                     i2l5655:
  5810   002E5C                     i2l672:
  5811   002E5C  0012               	return		;funcret
  5812   002E5E                     __end_of_RB6_ISR:
  5813                           	callstack 0
  5814                           
  5815 ;; *************** function _RB5_ISR *****************
  5816 ;; Defined at:
  5817 ;;		line 121 in file "MCAL_Layer/Interrupt/mcal_external_interrupt.c"
  5818 ;; Parameters:    Size  Location     Type
  5819 ;;  n               1    wreg     unsigned char 
  5820 ;; Auto vars:     Size  Location     Type
  5821 ;;  n               1    0[COMRAM] unsigned char 
  5822 ;; Return value:  Size  Location     Type
  5823 ;;                  1    wreg      void 
  5824 ;; Registers used:
  5825 ;;		wreg, status,2
  5826 ;; Tracked objects:
  5827 ;;		On entry : 0/0
  5828 ;;		On exit  : 0/0
  5829 ;;		Unchanged: 0/0
  5830 ;; Data sizes:     COMRAM   BANK0   BANK1   BANK2   BANK3   BANK4   BANK5   BANK6   BANK7   BANK8   BANK9  BANK10  BANK1
      +1  BANK12  BANK13  BANK14  BANK15
  5831 ;;      Params:         0       0       0       0       0       0       0       0       0       0       0       0       
      +0       0       0       0       0
  5832 ;;      Locals:         1       0       0       0       0       0       0       0       0       0       0       0       
      +0       0       0       0       0
  5833 ;;      Temps:          0       0       0       0       0       0       0       0       0       0       0       0       
      +0       0       0       0       0
  5834 ;;      Totals:         1       0       0       0       0       0       0       0       0       0       0       0       
      +0       0       0       0       0
  5835 ;;Total ram usage:        1 bytes
  5836 ;; Hardware stack levels used: 1
  5837 ;; This function calls:
  5838 ;;		Nothing
  5839 ;; This function is called by:
  5840 ;;		_InterruptMangaer
  5841 ;; This function uses a non-reentrant model
  5842 ;;
  5843                           
  5844                           	psect	text27
  5845   002E5E                     __ptext27:
  5846                           	callstack 0
  5847   002E5E                     _RB5_ISR:
  5848                           	callstack 24
  5849                           
  5850                           ;incstack = 0
  5851                           ;RB5_ISR@n stored from wreg
  5852   002E5E  6E01               	movwf	RB5_ISR@n^0,c
  5853   002E60                     
  5854                           ;MCAL_Layer/Interrupt/mcal_external_interrupt.c: 123:     (INTCONbits.RBIF = 0);
  5855   002E60  90F2               	bcf	242,0,c	;volatile
  5856   002E62                     
  5857                           ;MCAL_Layer/Interrupt/mcal_external_interrupt.c: 127:     if(!n){
  5858   002E62  5001               	movf	RB5_ISR@n^0,w,c
  5859   002E64  A4D8               	btfss	status,2,c
  5860   002E66  EF37  F017         	goto	i2u488_41
  5861   002E6A  EF39  F017         	goto	i2u488_40
  5862   002E6E                     i2u488_41:
  5863   002E6E  EF3B  F017         	goto	i2l5641
  5864   002E72                     i2u488_40:
  5865   002E72  EF3B  F017         	goto	i2l661
  5866   002E76                     i2l5641:
  5867   002E76                     i2l661:
  5868   002E76  0012               	return		;funcret
  5869   002E78                     __end_of_RB5_ISR:
  5870                           	callstack 0
  5871                           
  5872 ;; *************** function _RB4_ISR *****************
  5873 ;; Defined at:
  5874 ;;		line 95 in file "MCAL_Layer/Interrupt/mcal_external_interrupt.c"
  5875 ;; Parameters:    Size  Location     Type
  5876 ;;  n               1    wreg     unsigned char 
  5877 ;; Auto vars:     Size  Location     Type
  5878 ;;  n               1    0[COMRAM] unsigned char 
  5879 ;; Return value:  Size  Location     Type
  5880 ;;                  1    wreg      void 
  5881 ;; Registers used:
  5882 ;;		wreg, status,2
  5883 ;; Tracked objects:
  5884 ;;		On entry : 0/0
  5885 ;;		On exit  : 0/0
  5886 ;;		Unchanged: 0/0
  5887 ;; Data sizes:     COMRAM   BANK0   BANK1   BANK2   BANK3   BANK4   BANK5   BANK6   BANK7   BANK8   BANK9  BANK10  BANK1
      +1  BANK12  BANK13  BANK14  BANK15
  5888 ;;      Params:         0       0       0       0       0       0       0       0       0       0       0       0       
      +0       0       0       0       0
  5889 ;;      Locals:         1       0       0       0       0       0       0       0       0       0       0       0       
      +0       0       0       0       0
  5890 ;;      Temps:          0       0       0       0       0       0       0       0       0       0       0       0       
      +0       0       0       0       0
  5891 ;;      Totals:         1       0       0       0       0       0       0       0       0       0       0       0       
      +0       0       0       0       0
  5892 ;;Total ram usage:        1 bytes
  5893 ;; Hardware stack levels used: 1
  5894 ;; This function calls:
  5895 ;;		Nothing
  5896 ;; This function is called by:
  5897 ;;		_InterruptMangaer
  5898 ;; This function uses a non-reentrant model
  5899 ;;
  5900                           
  5901                           	psect	text28
  5902   002E0E                     __ptext28:
  5903                           	callstack 0
  5904   002E0E                     _RB4_ISR:
  5905                           	callstack 24
  5906                           
  5907                           ;incstack = 0
  5908                           ;RB4_ISR@n stored from wreg
  5909   002E0E  6E01               	movwf	RB4_ISR@n^0,c
  5910   002E10                     
  5911                           ;MCAL_Layer/Interrupt/mcal_external_interrupt.c: 97:     (INTCONbits.RBIF = 0);
  5912   002E10  90F2               	bcf	242,0,c	;volatile
  5913   002E12                     
  5914                           ;MCAL_Layer/Interrupt/mcal_external_interrupt.c: 101:     if(!n){
  5915   002E12  5001               	movf	RB4_ISR@n^0,w,c
  5916   002E14  A4D8               	btfss	status,2,c
  5917   002E16  EF0F  F017         	goto	i2u487_41
  5918   002E1A  EF11  F017         	goto	i2u487_40
  5919   002E1E                     i2u487_41:
  5920   002E1E  EF13  F017         	goto	i2l5627
  5921   002E22                     i2u487_40:
  5922   002E22  EF13  F017         	goto	i2l645
  5923   002E26                     i2l5627:
  5924   002E26                     i2l645:
  5925                           
  5926                           ;MCAL_Layer/Interrupt/mcal_external_interrupt.c: 118:         (INTCONbits.RBIF = 0);
  5927   002E26  90F2               	bcf	242,0,c	;volatile
  5928   002E28  0012               	return		;funcret
  5929   002E2A                     __end_of_RB4_ISR:
  5930                           	callstack 0
  5931                           
  5932 ;; *************** function _INT2_ISR *****************
  5933 ;; Defined at:
  5934 ;;		line 81 in file "MCAL_Layer/Interrupt/mcal_external_interrupt.c"
  5935 ;; Parameters:    Size  Location     Type
  5936 ;;		None
  5937 ;; Auto vars:     Size  Location     Type
  5938 ;;		None
  5939 ;; Return value:  Size  Location     Type
  5940 ;;                  1    wreg      void 
  5941 ;; Registers used:
  5942 ;;		None
  5943 ;; Tracked objects:
  5944 ;;		On entry : 0/0
  5945 ;;		On exit  : 0/0
  5946 ;;		Unchanged: 0/0
  5947 ;; Data sizes:     COMRAM   BANK0   BANK1   BANK2   BANK3   BANK4   BANK5   BANK6   BANK7   BANK8   BANK9  BANK10  BANK1
      +1  BANK12  BANK13  BANK14  BANK15
  5948 ;;      Params:         0       0       0       0       0       0       0       0       0       0       0       0       
      +0       0       0       0       0
  5949 ;;      Locals:         0       0       0       0       0       0       0       0       0       0       0       0       
      +0       0       0       0       0
  5950 ;;      Temps:          0       0       0       0       0       0       0       0       0       0       0       0       
      +0       0       0       0       0
  5951 ;;      Totals:         0       0       0       0       0       0       0       0       0       0       0       0       
      +0       0       0       0       0
  5952 ;;Total ram usage:        0 bytes
  5953 ;; Hardware stack levels used: 1
  5954 ;; This function calls:
  5955 ;;		Nothing
  5956 ;; This function is called by:
  5957 ;;		_InterruptMangaer
  5958 ;; This function uses a non-reentrant model
  5959 ;;
  5960                           
  5961                           	psect	text29
  5962   002EBE                     __ptext29:
  5963                           	callstack 0
  5964   002EBE                     _INT2_ISR:
  5965                           	callstack 24
  5966   002EBE                     
  5967                           ;MCAL_Layer/Interrupt/mcal_external_interrupt.c: 83:     (INTCON3bits.INT2IF = 0);
  5968   002EBE  92F0               	bcf	240,1,c	;volatile
  5969   002EC0  0012               	return		;funcret
  5970   002EC2                     __end_of_INT2_ISR:
  5971                           	callstack 0
  5972                           
  5973 ;; *************** function _INT1_ISR *****************
  5974 ;; Defined at:
  5975 ;;		line 67 in file "MCAL_Layer/Interrupt/mcal_external_interrupt.c"
  5976 ;; Parameters:    Size  Location     Type
  5977 ;;		None
  5978 ;; Auto vars:     Size  Location     Type
  5979 ;;		None
  5980 ;; Return value:  Size  Location     Type
  5981 ;;                  1    wreg      void 
  5982 ;; Registers used:
  5983 ;;		None
  5984 ;; Tracked objects:
  5985 ;;		On entry : 0/0
  5986 ;;		On exit  : 0/0
  5987 ;;		Unchanged: 0/0
  5988 ;; Data sizes:     COMRAM   BANK0   BANK1   BANK2   BANK3   BANK4   BANK5   BANK6   BANK7   BANK8   BANK9  BANK10  BANK1
      +1  BANK12  BANK13  BANK14  BANK15
  5989 ;;      Params:         0       0       0       0       0       0       0       0       0       0       0       0       
      +0       0       0       0       0
  5990 ;;      Locals:         0       0       0       0       0       0       0       0       0       0       0       0       
      +0       0       0       0       0
  5991 ;;      Temps:          0       0       0       0       0       0       0       0       0       0       0       0       
      +0       0       0       0       0
  5992 ;;      Totals:         0       0       0       0       0       0       0       0       0       0       0       0       
      +0       0       0       0       0
  5993 ;;Total ram usage:        0 bytes
  5994 ;; Hardware stack levels used: 1
  5995 ;; This function calls:
  5996 ;;		Nothing
  5997 ;; This function is called by:
  5998 ;;		_InterruptMangaer
  5999 ;; This function uses a non-reentrant model
  6000 ;;
  6001                           
  6002                           	psect	text30
  6003   002EC2                     __ptext30:
  6004                           	callstack 0
  6005   002EC2                     _INT1_ISR:
  6006                           	callstack 24
  6007   002EC2                     
  6008                           ;MCAL_Layer/Interrupt/mcal_external_interrupt.c: 69:     (INTCON3bits.INT1IF = 0);
  6009   002EC2  90F0               	bcf	240,0,c	;volatile
  6010   002EC4  0012               	return		;funcret
  6011   002EC6                     __end_of_INT1_ISR:
  6012                           	callstack 0
  6013                           
  6014 ;; *************** function _INT0_ISR *****************
  6015 ;; Defined at:
  6016 ;;		line 53 in file "MCAL_Layer/Interrupt/mcal_external_interrupt.c"
  6017 ;; Parameters:    Size  Location     Type
  6018 ;;		None
  6019 ;; Auto vars:     Size  Location     Type
  6020 ;;		None
  6021 ;; Return value:  Size  Location     Type
  6022 ;;                  1    wreg      void 
  6023 ;; Registers used:
  6024 ;;		None
  6025 ;; Tracked objects:
  6026 ;;		On entry : 0/0
  6027 ;;		On exit  : 0/0
  6028 ;;		Unchanged: 0/0
  6029 ;; Data sizes:     COMRAM   BANK0   BANK1   BANK2   BANK3   BANK4   BANK5   BANK6   BANK7   BANK8   BANK9  BANK10  BANK1
      +1  BANK12  BANK13  BANK14  BANK15
  6030 ;;      Params:         0       0       0       0       0       0       0       0       0       0       0       0       
      +0       0       0       0       0
  6031 ;;      Locals:         0       0       0       0       0       0       0       0       0       0       0       0       
      +0       0       0       0       0
  6032 ;;      Temps:          0       0       0       0       0       0       0       0       0       0       0       0       
      +0       0       0       0       0
  6033 ;;      Totals:         0       0       0       0       0       0       0       0       0       0       0       0       
      +0       0       0       0       0
  6034 ;;Total ram usage:        0 bytes
  6035 ;; Hardware stack levels used: 1
  6036 ;; This function calls:
  6037 ;;		Nothing
  6038 ;; This function is called by:
  6039 ;;		_InterruptMangaer
  6040 ;; This function uses a non-reentrant model
  6041 ;;
  6042                           
  6043                           	psect	text31
  6044   002EC6                     __ptext31:
  6045                           	callstack 0
  6046   002EC6                     _INT0_ISR:
  6047                           	callstack 24
  6048   002EC6                     
  6049                           ;MCAL_Layer/Interrupt/mcal_external_interrupt.c: 55:     (INTCONbits.INT0IF = 0);
  6050   002EC6  92F2               	bcf	242,1,c	;volatile
  6051   002EC8  0012               	return		;funcret
  6052   002ECA                     __end_of_INT0_ISR:
  6053                           	callstack 0
  6054                           
  6055 ;; *************** function _CCP2_ISR *****************
  6056 ;; Defined at:
  6057 ;;		line 346 in file "MCAL_Layer/CCP/hal_cpp.c"
  6058 ;; Parameters:    Size  Location     Type
  6059 ;;		None
  6060 ;; Auto vars:     Size  Location     Type
  6061 ;;		None
  6062 ;; Return value:  Size  Location     Type
  6063 ;;                  1    wreg      void 
  6064 ;; Registers used:
  6065 ;;		None
  6066 ;; Tracked objects:
  6067 ;;		On entry : 0/0
  6068 ;;		On exit  : 0/0
  6069 ;;		Unchanged: 0/0
  6070 ;; Data sizes:     COMRAM   BANK0   BANK1   BANK2   BANK3   BANK4   BANK5   BANK6   BANK7   BANK8   BANK9  BANK10  BANK1
      +1  BANK12  BANK13  BANK14  BANK15
  6071 ;;      Params:         0       0       0       0       0       0       0       0       0       0       0       0       
      +0       0       0       0       0
  6072 ;;      Locals:         0       0       0       0       0       0       0       0       0       0       0       0       
      +0       0       0       0       0
  6073 ;;      Temps:          0       0       0       0       0       0       0       0       0       0       0       0       
      +0       0       0       0       0
  6074 ;;      Totals:         0       0       0       0       0       0       0       0       0       0       0       0       
      +0       0       0       0       0
  6075 ;;Total ram usage:        0 bytes
  6076 ;; Hardware stack levels used: 1
  6077 ;; This function calls:
  6078 ;;		Nothing
  6079 ;; This function is called by:
  6080 ;;		_InterruptMangaer
  6081 ;; This function uses a non-reentrant model
  6082 ;;
  6083                           
  6084                           	psect	text32
  6085   002ECA                     __ptext32:
  6086                           	callstack 0
  6087   002ECA                     _CCP2_ISR:
  6088                           	callstack 24
  6089   002ECA                     
  6090                           ;MCAL_Layer/CCP/hal_cpp.c: 347:     (PIR2bits.CCP2IF = 0);
  6091   002ECA  90A1               	bcf	161,0,c	;volatile
  6092   002ECC  0012               	return		;funcret
  6093   002ECE                     __end_of_CCP2_ISR:
  6094                           	callstack 0
  6095                           
  6096 ;; *************** function _CCP1_ISR *****************
  6097 ;; Defined at:
  6098 ;;		line 338 in file "MCAL_Layer/CCP/hal_cpp.c"
  6099 ;; Parameters:    Size  Location     Type
  6100 ;;		None
  6101 ;; Auto vars:     Size  Location     Type
  6102 ;;		None
  6103 ;; Return value:  Size  Location     Type
  6104 ;;                  1    wreg      void 
  6105 ;; Registers used:
  6106 ;;		None
  6107 ;; Tracked objects:
  6108 ;;		On entry : 0/0
  6109 ;;		On exit  : 0/0
  6110 ;;		Unchanged: 0/0
  6111 ;; Data sizes:     COMRAM   BANK0   BANK1   BANK2   BANK3   BANK4   BANK5   BANK6   BANK7   BANK8   BANK9  BANK10  BANK1
      +1  BANK12  BANK13  BANK14  BANK15
  6112 ;;      Params:         0       0       0       0       0       0       0       0       0       0       0       0       
      +0       0       0       0       0
  6113 ;;      Locals:         0       0       0       0       0       0       0       0       0       0       0       0       
      +0       0       0       0       0
  6114 ;;      Temps:          0       0       0       0       0       0       0       0       0       0       0       0       
      +0       0       0       0       0
  6115 ;;      Totals:         0       0       0       0       0       0       0       0       0       0       0       0       
      +0       0       0       0       0
  6116 ;;Total ram usage:        0 bytes
  6117 ;; Hardware stack levels used: 1
  6118 ;; This function calls:
  6119 ;;		Nothing
  6120 ;; This function is called by:
  6121 ;;		_InterruptMangaer
  6122 ;; This function uses a non-reentrant model
  6123 ;;
  6124                           
  6125                           	psect	text33
  6126   002ECE                     __ptext33:
  6127                           	callstack 0
  6128   002ECE                     _CCP1_ISR:
  6129                           	callstack 24
  6130   002ECE                     
  6131                           ;MCAL_Layer/CCP/hal_cpp.c: 339:     (PIR1bits.CCP1IF = 0);
  6132   002ECE  949E               	bcf	158,2,c	;volatile
  6133   002ED0  0012               	return		;funcret
  6134   002ED2                     __end_of_CCP1_ISR:
  6135                           	callstack 0
  6136                           
  6137                           	psect	rparam
  6138   000000                     
  6139                           	psect	temp
  6140   00007E                     btemp:
  6141                           	callstack 0
  6142   00007E                     	ds	1
  6143   000000                     int$flags	set	btemp
  6144   000000                     wtemp8	set	btemp+1
  6145   000000                     ttemp5	set	btemp+1
  6146   000000                     ttemp6	set	btemp+4
  6147   000000                     ttemp7	set	btemp+8
  6148                           
  6149                           	psect	config
  6150                           
  6151                           ; Padding undefined space
  6152   300000                     	org	3145728
  6153   300000  FF                 	db	255
  6154                           
  6155                           ;Config register CONFIG1H @ 0x300001
  6156                           ;	Oscillator Selection bits
  6157                           ;	OSC = HS, HS oscillator
  6158                           ;	Fail-Safe Clock Monitor Enable bit
  6159                           ;	FCMEN = OFF, Fail-Safe Clock Monitor disabled
  6160                           ;	Internal/External Oscillator Switchover bit
  6161                           ;	IESO = OFF, Oscillator Switchover mode disabled
  6162   300001                     	org	3145729
  6163   300001  02                 	db	2
  6164                           
  6165                           ;Config register CONFIG2L @ 0x300002
  6166                           ;	Power-up Timer Enable bit
  6167                           ;	PWRT = OFF, PWRT disabled
  6168                           ;	Brown-out Reset Enable bits
  6169                           ;	BOREN = OFF, Brown-out Reset disabled in hardware and software
  6170                           ;	Brown Out Reset Voltage bits
  6171                           ;	BORV = 1, 
  6172   300002                     	org	3145730
  6173   300002  09                 	db	9
  6174                           
  6175                           ;Config register CONFIG2H @ 0x300003
  6176                           ;	Watchdog Timer Enable bit
  6177                           ;	WDT = OFF, WDT disabled (control is placed on the SWDTEN bit)
  6178                           ;	Watchdog Timer Postscale Select bits
  6179                           ;	WDTPS = 32768, 1:32768
  6180   300003                     	org	3145731
  6181   300003  1E                 	db	30
  6182                           
  6183                           ; Padding undefined space
  6184   300004                     	org	3145732
  6185   300004  FF                 	db	255
  6186                           
  6187                           ;Config register CONFIG3H @ 0x300005
  6188                           ;	CCP2 MUX bit
  6189                           ;	CCP2MX = PORTC, CCP2 input/output is multiplexed with RC1
  6190                           ;	PORTB A/D Enable bit
  6191                           ;	PBADEN = OFF, PORTB<4:0> pins are configured as digital I/O on Reset
  6192                           ;	Low-Power Timer1 Oscillator Enable bit
  6193                           ;	LPT1OSC = OFF, Timer1 configured for higher power operation
  6194                           ;	MCLR Pin Enable bit
  6195                           ;	MCLRE = ON, MCLR pin enabled; RE3 input pin disabled
  6196   300005                     	org	3145733
  6197   300005  81                 	db	129
  6198                           
  6199                           ;Config register CONFIG4L @ 0x300006
  6200                           ;	Stack Full/Underflow Reset Enable bit
  6201                           ;	STVREN = ON, Stack full/underflow will cause Reset
  6202                           ;	Single-Supply ICSP Enable bit
  6203                           ;	LVP = OFF, Single-Supply ICSP disabled
  6204                           ;	Extended Instruction Set Enable bit
  6205                           ;	XINST = OFF, Instruction set extension and Indexed Addressing mode disabled (Legacy mo
      +                          de)
  6206                           ;	Background Debugger Enable bit
  6207                           ;	DEBUG = 0x1, unprogrammed default
  6208   300006                     	org	3145734
  6209   300006  81                 	db	129
  6210                           
  6211                           ; Padding undefined space
  6212   300007                     	org	3145735
  6213   300007  FF                 	db	255
  6214                           
  6215                           ;Config register CONFIG5L @ 0x300008
  6216                           ;	Code Protection bit
  6217                           ;	CP0 = OFF, Block 0 (000800-003FFFh) not code-protected
  6218                           ;	Code Protection bit
  6219                           ;	CP1 = OFF, Block 1 (004000-007FFFh) not code-protected
  6220                           ;	Code Protection bit
  6221                           ;	CP2 = OFF, Block 2 (008000-00BFFFh) not code-protected
  6222                           ;	Code Protection bit
  6223                           ;	CP3 = OFF, Block 3 (00C000-00FFFFh) not code-protected
  6224   300008                     	org	3145736
  6225   300008  0F                 	db	15
  6226                           
  6227                           ;Config register CONFIG5H @ 0x300009
  6228                           ;	Boot Block Code Protection bit
  6229                           ;	CPB = OFF, Boot block (000000-0007FFh) not code-protected
  6230                           ;	Data EEPROM Code Protection bit
  6231                           ;	CPD = OFF, Data EEPROM not code-protected
  6232   300009                     	org	3145737
  6233   300009  C0                 	db	192
  6234                           
  6235                           ;Config register CONFIG6L @ 0x30000A
  6236                           ;	Write Protection bit
  6237                           ;	WRT0 = OFF, Block 0 (000800-003FFFh) not write-protected
  6238                           ;	Write Protection bit
  6239                           ;	WRT1 = OFF, Block 1 (004000-007FFFh) not write-protected
  6240                           ;	Write Protection bit
  6241                           ;	WRT2 = OFF, Block 2 (008000-00BFFFh) not write-protected
  6242                           ;	Write Protection bit
  6243                           ;	WRT3 = OFF, Block 3 (00C000-00FFFFh) not write-protected
  6244   30000A                     	org	3145738
  6245   30000A  0F                 	db	15
  6246                           
  6247                           ;Config register CONFIG6H @ 0x30000B
  6248                           ;	Configuration Register Write Protection bit
  6249                           ;	WRTC = OFF, Configuration registers (300000-3000FFh) not write-protected
  6250                           ;	Boot Block Write Protection bit
  6251                           ;	WRTB = OFF, Boot Block (000000-0007FFh) not write-protected
  6252                           ;	Data EEPROM Write Protection bit
  6253                           ;	WRTD = OFF, Data EEPROM not write-protected
  6254   30000B                     	org	3145739
  6255   30000B  E0                 	db	224
  6256                           
  6257                           ;Config register CONFIG7L @ 0x30000C
  6258                           ;	Table Read Protection bit
  6259                           ;	EBTR0 = OFF, Block 0 (000800-003FFFh) not protected from table reads executed in other
      +                           blocks
  6260                           ;	Table Read Protection bit
  6261                           ;	EBTR1 = OFF, Block 1 (004000-007FFFh) not protected from table reads executed in other
      +                           blocks
  6262                           ;	Table Read Protection bit
  6263                           ;	EBTR2 = OFF, Block 2 (008000-00BFFFh) not protected from table reads executed in other
      +                           blocks
  6264                           ;	Table Read Protection bit
  6265                           ;	EBTR3 = OFF, Block 3 (00C000-00FFFFh) not protected from table reads executed in other
      +                           blocks
  6266   30000C                     	org	3145740
  6267   30000C  0F                 	db	15
  6268                           
  6269                           ;Config register CONFIG7H @ 0x30000D
  6270                           ;	Boot Block Table Read Protection bit
  6271                           ;	EBTRB = OFF, Boot Block (000000-0007FFh) not protected from table reads executed in ot
      +                          her blocks
  6272   30000D                     	org	3145741
  6273   30000D  40                 	db	64
  6274                           tosu	equ	0xFFF
  6275                           tosh	equ	0xFFE
  6276                           tosl	equ	0xFFD
  6277                           stkptr	equ	0xFFC
  6278                           pclatu	equ	0xFFB
  6279                           pclath	equ	0xFFA
  6280                           pcl	equ	0xFF9
  6281                           tblptru	equ	0xFF8
  6282                           tblptrh	equ	0xFF7
  6283                           tblptrl	equ	0xFF6
  6284                           tablat	equ	0xFF5
  6285                           prodh	equ	0xFF4
  6286                           prodl	equ	0xFF3
  6287                           indf0	equ	0xFEF
  6288                           postinc0	equ	0xFEE
  6289                           postdec0	equ	0xFED
  6290                           preinc0	equ	0xFEC
  6291                           plusw0	equ	0xFEB
  6292                           fsr0h	equ	0xFEA
  6293                           fsr0l	equ	0xFE9
  6294                           wreg	equ	0xFE8
  6295                           indf1	equ	0xFE7
  6296                           postinc1	equ	0xFE6
  6297                           postdec1	equ	0xFE5
  6298                           preinc1	equ	0xFE4
  6299                           plusw1	equ	0xFE3
  6300                           fsr1h	equ	0xFE2
  6301                           fsr1l	equ	0xFE1
  6302                           bsr	equ	0xFE0
  6303                           indf2	equ	0xFDF
  6304                           postinc2	equ	0xFDE
  6305                           postdec2	equ	0xFDD
  6306                           preinc2	equ	0xFDC
  6307                           plusw2	equ	0xFDB
  6308                           fsr2h	equ	0xFDA
  6309                           fsr2l	equ	0xFD9
  6310                           status	equ	0xFD8

Data Sizes:
    Strings     6
    Constant    56
    Data        72
    BSS         49
    Persistent  1
    Stack       0

Auto Spaces:
    Space          Size  Autos    Used
    COMRAM          126    104     125
    BANK0           128      1     102
    BANK1           256      0       0
    BANK2           256      0       0
    BANK3           256      0       0
    BANK4           256      0       0
    BANK5           256      0       0
    BANK6           256      0       0
    BANK7           256      0       0
    BANK8           256      0       0
    BANK9           256      0       0
    BANK10          256      0       0
    BANK11          256      0       0
    BANK12          256      0       0
    BANK13          256      0       0
    BANK14          256      0       0
    BANK15          128      0       0

Pointer List with Targets:

    ADC_Get_Conversion_Result@adc$adc_isr	PTR FTN()void  size(2) Largest target is 0

    ADC_Init@adc$adc_isr	PTR FTN()void  size(2) Largest target is 0

    ADC_Select_Channel@adc$adc_isr	PTR FTN()void  size(2) Largest target is 0

    ccp$Interrupt_CCP1_Handler	PTR FTN()void  size(2) Largest target is 1
		 -> NULL(), 

    ccp$Interrupt_CCP2_Handler	PTR FTN()void  size(2) Largest target is 1
		 -> NULL(), 

    CCP_Capture_Config@ccp	PTR const struct . size(1) Largest target is 15
		 -> ccp(BANK0[15]), 

    CCP_Capture_Config@ccp$Interrupt_CCP1_Handler	PTR FTN()void  size(2) Largest target is 1
		 -> NULL(), 

    CCP_Capture_Config@ccp$Interrupt_CCP2_Handler	PTR FTN()void  size(2) Largest target is 1
		 -> NULL(), 

    CCP_Compare_Config@ccp	PTR const struct . size(1) Largest target is 15
		 -> ccp(BANK0[15]), 

    CCP_Compare_Config@ccp$Interrupt_CCP1_Handler	PTR FTN()void  size(2) Largest target is 1
		 -> NULL(), 

    CCP_Compare_Config@ccp$Interrupt_CCP2_Handler	PTR FTN()void  size(2) Largest target is 1
		 -> NULL(), 

    CCP_DeInit@ccp$Interrupt_CCP1_Handler	PTR FTN()void  size(2) Largest target is 1
		 -> NULL(), 

    CCP_DeInit@ccp$Interrupt_CCP2_Handler	PTR FTN()void  size(2) Largest target is 1
		 -> NULL(), 

    CCP_Init@ccp	PTR const struct . size(1) Largest target is 15
		 -> ccp(BANK0[15]), 

    CCP_Init@ccp$Interrupt_CCP1_Handler	PTR FTN()void  size(2) Largest target is 1
		 -> NULL(), 

    CCP_Init@ccp$Interrupt_CCP2_Handler	PTR FTN()void  size(2) Largest target is 1
		 -> NULL(), 

    CCP_Interrupt_Config@ccp	PTR const struct . size(1) Largest target is 15
		 -> ccp(BANK0[15]), 

    CCP_Interrupt_Config@ccp$Interrupt_CCP1_Handler	PTR FTN()void  size(2) Largest target is 1
		 -> NULL(), 

    CCP_Interrupt_Config@ccp$Interrupt_CCP2_Handler	PTR FTN()void  size(2) Largest target is 1
		 -> NULL(), 

    CCP_PWM_Config@ccp	PTR const struct . size(1) Largest target is 15
		 -> ccp(BANK0[15]), 

    CCP_PWM_Config@ccp$Interrupt_CCP1_Handler	PTR FTN()void  size(2) Largest target is 1
		 -> NULL(), 

    CCP_PWM_Config@ccp$Interrupt_CCP2_Handler	PTR FTN()void  size(2) Largest target is 1
		 -> NULL(), 

    CCP_PWM_Set_Duty@ccp	PTR const struct . size(1) Largest target is 15
		 -> ccp(BANK0[15]), 

    CCP_PWM_Set_Duty@ccp$Interrupt_CCP1_Handler	PTR FTN()void  size(2) Largest target is 1
		 -> NULL(), 

    CCP_PWM_Set_Duty@ccp$Interrupt_CCP2_Handler	PTR FTN()void  size(2) Largest target is 1
		 -> NULL(), 

    CCP_PWM_Start@ccp	PTR const struct . size(1) Largest target is 15
		 -> ccp(BANK0[15]), 

    CCP_PWM_Start@ccp$Interrupt_CCP1_Handler	PTR FTN()void  size(2) Largest target is 1
		 -> NULL(), 

    CCP_PWM_Start@ccp$Interrupt_CCP2_Handler	PTR FTN()void  size(2) Largest target is 1
		 -> NULL(), 

    CCP_PWM_Stop@ccp$Interrupt_CCP1_Handler	PTR FTN()void  size(2) Largest target is 1
		 -> NULL(), 

    CCP_PWM_Stop@ccp$Interrupt_CCP2_Handler	PTR FTN()void  size(2) Largest target is 1
		 -> NULL(), 

    f$.$buffer	PTR unsigned char  size(2) Largest target is 0

    f$.$source	PTR const unsigned char  size(2) Largest target is 0

    gpio_pin_direction_intialize@_pin_config	PTR const struct . size(1) Largest target is 15
		 -> ccp(BANK0[15]), led_initialize@pin_obj(COMRAM[1]), relay_initialization@pin_obj(COMRAM[1]), 

    gpio_pin_initialize@_pin_config	PTR const struct . size(1) Largest target is 15
		 -> ccp(BANK0[15]), led_initialize@pin_obj(COMRAM[1]), relay_initialization@pin_obj(COMRAM[1]), 

    gpio_pin_write_logic@_pin_config	PTR const struct . size(1) Largest target is 15
		 -> ccp(BANK0[15]), led_initialize@pin_obj(COMRAM[1]), led_turn_off@pin_obj(COMRAM[1]), led_turn_on@pin_obj(COMRAM[1]), 
		 -> relay_initialization@pin_obj(COMRAM[1]), relay_turn_off@pin_obj(COMRAM[1]), relay_turn_on@pin_obj(COMRAM[1]), 

    INT0_INTERRUPTHANDLER	PTR FTN()void  size(2) Largest target is 1
		 -> NULL(), 

    INT1_INTERRUPTHANDLER	PTR FTN()void  size(2) Largest target is 1
		 -> NULL(), 

    INT2_INTERRUPTHANDLER	PTR FTN()void  size(2) Largest target is 1
		 -> NULL(), 

    Interrupt_Handler_CCP1	PTR FTN()void  size(2) Largest target is 1
		 -> NULL(), 

    Interrupt_Handler_CCP2	PTR FTN()void  size(2) Largest target is 1
		 -> NULL(), 

    Interrupt_INTx_Clear_Flag@int_obj$EXT_INTERRUPT_HANDLER	PTR FTN()void  size(2) Largest target is 0

    Interrupt_INTx_Disable@int_obj$EXT_INTERRUPT_HANDLER	PTR FTN()void  size(2) Largest target is 0

    Interrupt_INTx_Edge_Src@int_obj$EXT_INTERRUPT_HANDLER	PTR FTN()void  size(2) Largest target is 0

    Interrupt_INTx_Enable@int_obj$EXT_INTERRUPT_HANDLER	PTR FTN()void  size(2) Largest target is 0

    Interrupt_INTx_Pin_Init@int_obj$EXT_INTERRUPT_HANDLER	PTR FTN()void  size(2) Largest target is 0

    Interrupt_RBx_Init@int_obj$EXT_INTERRUPT_HANDLER_HIGH	PTR FTN()void  size(2) Largest target is 0

    Interrupt_RBx_Init@int_obj$EXT_INTERRUPT_HANDLER_LOW	PTR FTN()void  size(2) Largest target is 0

    ISR_TIMER0	PTR FTN()void  size(2) Largest target is 1
		 -> NULL(), 

    lat_registers	PTR volatile unsigned char [5] size(2) Largest target is 1
		 -> LATA(BITBIGSFRllll[1]), LATB(BITBIGSFRlllh[1]), LATC(BITBIGSFRlllh[1]), LATD(BITBIGSFRlllh[1]), 
		 -> LATE(BITBIGSFRlllh[1]), 

    led_initialize@led	PTR const struct . size(1) Largest target is 1
		 -> led1(COMRAM[1]), 

    port_registers	PTR volatile unsigned char [5] size(2) Largest target is 1
		 -> PORTA(BITBIGSFRllll[1]), PORTB(BITBIGSFRllll[1]), PORTC(BITBIGSFRllll[1]), PORTD(BITBIGSFRllll[1]), 
		 -> PORTE(BITBIGSFRllll[1]), 

    RB4_INTERRUPTHANDLERHIGH	PTR FTN()void  size(2) Largest target is 1
		 -> NULL(), 

    RB4_INTERRUPTHANDLERLOW	PTR FTN()void  size(2) Largest target is 1
		 -> NULL(), 

    RB5_INTERRUPTHANDLERHIGH	PTR FTN()void  size(2) Largest target is 1
		 -> NULL(), 

    RB5_INTERRUPTHANDLERLOW	PTR FTN()void  size(2) Largest target is 1
		 -> NULL(), 

    RB6_INTERRUPTHANDLERHIGH	PTR FTN()void  size(2) Largest target is 1
		 -> NULL(), 

    RB6_INTERRUPTHANDLERLOW	PTR FTN()void  size(2) Largest target is 1
		 -> NULL(), 

    RB7_INTERRUPTHANDLERHIGH	PTR FTN()void  size(2) Largest target is 1
		 -> NULL(), 

    RB7_INTERRUPTHANDLERLOW	PTR FTN()void  size(2) Largest target is 1
		 -> NULL(), 

    S1268$EXT_INTERRUPT_HANDLER	PTR FTN()void  size(2) Largest target is 0

    S1384$EXT_INTERRUPT_HANDLER_HIGH	PTR FTN()void  size(2) Largest target is 0

    S1384$EXT_INTERRUPT_HANDLER_LOW	PTR FTN()void  size(2) Largest target is 0

    S2022$TIMER0_HANDLER	PTR FTN()void  size(2) Largest target is 0

    S2170$TIMER1_HANDLER	PTR FTN()void  size(2) Largest target is 0

    S2351$TIMER2_HANDLER	PTR FTN()void  size(2) Largest target is 1
		 -> NULL(), 

    S2463$TIMER3_HANDLER	PTR FTN()void  size(2) Largest target is 0

    S2655$Interrupt_CCP1_Handler	PTR FTN()void  size(2) Largest target is 1
		 -> NULL(), 

    S2655$Interrupt_CCP2_Handler	PTR FTN()void  size(2) Largest target is 1
		 -> NULL(), 

    S3638$buffer	PTR unsigned char  size(2) Largest target is 0

    S3638$source	PTR const unsigned char  size(2) Largest target is 0

    S709$adc_isr	PTR FTN()void  size(2) Largest target is 0

    Set_Interrupt_Handler@int_obj$EXT_INTERRUPT_HANDLER	PTR FTN()void  size(2) Largest target is 0

    sp__memset	PTR void  size(2) Largest target is 0

    timer$TIMER2_HANDLER	PTR FTN()void  size(2) Largest target is 1
		 -> NULL(), 

    TIMER0_INIT@timer$TIMER0_HANDLER	PTR FTN()void  size(2) Largest target is 0

    TIMER0_MODE_SELECT@timer$TIMER0_HANDLER	PTR FTN()void  size(2) Largest target is 0

    TIMER0_PRESCALER_CFG@timer$TIMER0_HANDLER	PTR FTN()void  size(2) Largest target is 0

    TIMER0_Size_SELECT@timer$TIMER0_HANDLER	PTR FTN()void  size(2) Largest target is 0

    TIMER1_INIT@timer$TIMER1_HANDLER	PTR FTN()void  size(2) Largest target is 0

    TIMER1_MODE_SELECT@timer$TIMER1_HANDLER	PTR FTN()void  size(2) Largest target is 0

    TIMER1_SIZE_SELECT@timer$TIMER1_HANDLER	PTR FTN()void  size(2) Largest target is 0

    TIMER2_INIT@timer	PTR const struct . size(1) Largest target is 5
		 -> timer(BANK0[5]), 

    TIMER2_INIT@timer$TIMER2_HANDLER	PTR FTN()void  size(2) Largest target is 1
		 -> NULL(), 

    TIMER2_Write_Value@timer$TIMER2_HANDLER	PTR FTN()void  size(2) Largest target is 1
		 -> NULL(), 

    TIMER3_INIT@timer$TIMER3_HANDLER	PTR FTN()void  size(2) Largest target is 0

    TIMER3_MODE_SELECT@timer$TIMER3_HANDLER	PTR FTN()void  size(2) Largest target is 0

    TIMER3_SIZE_SELECT@timer$TIMER3_HANDLER	PTR FTN()void  size(2) Largest target is 0

    TMR1_HANDLER	PTR FTN()void  size(2) Largest target is 1
		 -> NULL(), 

    TMR2_HANDLER	PTR FTN()void  size(2) Largest target is 1
		 -> NULL(), 

    TMR3_HANDLER	PTR FTN()void  size(2) Largest target is 1
		 -> NULL(), 

    tris_registers	PTR volatile unsigned char [5] size(2) Largest target is 1
		 -> TRISA(BITBIGSFRllll[1]), TRISB(ABS[1]), TRISC(ABS[1]), TRISD(ABS[1]), 
		 -> TRISE(ABS[1]), 

    vfprintf$0	PTR struct _IO_FILE size(1) Largest target is 12
		 -> sprintf@f(COMRAM[12]), 

    vfprintf$1	PTR const unsigned char  size(1) Largest target is 3
		 -> STR_1(CODE[3]), STR_2(CODE[3]), STR_3(CODE[3]), 

    vfprintf$2	PTR PTR void  size(1) Largest target is 1
		 -> sprintf@ap(COMRAM[1]), 


Critical Paths under _main in COMRAM

    _main->_CCP_Init
    _Ecu_initialize->_led_initialize
    _led_initialize->_gpio_pin_initialize
    _CCP_PWM_Set_Duty->___fltol
    _CCP_Init->_CCP_PWM_Config
    _gpio_pin_initialize->_gpio_pin_write_logic
    _CCP_PWM_Config->___fltol
    ___fltol->___flmul
    ___flmul->___fladd
    ___fldiv->___xxtofl
    ___fladd->___fldiv

Critical Paths under _InterruptMangaer in COMRAM

    _InterruptMangaer->_RB4_ISR
    _InterruptMangaer->_RB5_ISR
    _InterruptMangaer->_RB6_ISR
    _InterruptMangaer->_RB7_ISR

Critical Paths under _main in BANK0

    _main->_CCP_Init

Critical Paths under _InterruptMangaer in BANK0

    None.

Critical Paths under _main in BANK1

    None.

Critical Paths under _InterruptMangaer in BANK1

    None.

Critical Paths under _main in BANK2

    None.

Critical Paths under _InterruptMangaer in BANK2

    None.

Critical Paths under _main in BANK3

    None.

Critical Paths under _InterruptMangaer in BANK3

    None.

Critical Paths under _main in BANK4

    None.

Critical Paths under _InterruptMangaer in BANK4

    None.

Critical Paths under _main in BANK5

    None.

Critical Paths under _InterruptMangaer in BANK5

    None.

Critical Paths under _main in BANK6

    None.

Critical Paths under _InterruptMangaer in BANK6

    None.

Critical Paths under _main in BANK7

    None.

Critical Paths under _InterruptMangaer in BANK7

    None.

Critical Paths under _main in BANK8

    None.

Critical Paths under _InterruptMangaer in BANK8

    None.

Critical Paths under _main in BANK9

    None.

Critical Paths under _InterruptMangaer in BANK9

    None.

Critical Paths under _main in BANK10

    None.

Critical Paths under _InterruptMangaer in BANK10

    None.

Critical Paths under _main in BANK11

    None.

Critical Paths under _InterruptMangaer in BANK11

    None.

Critical Paths under _main in BANK12

    None.

Critical Paths under _InterruptMangaer in BANK12

    None.

Critical Paths under _main in BANK13

    None.

Critical Paths under _InterruptMangaer in BANK13

    None.

Critical Paths under _main in BANK14

    None.

Critical Paths under _InterruptMangaer in BANK14

    None.

Critical Paths under _main in BANK15

    None.

Critical Paths under _InterruptMangaer in BANK15

    None.

Call Graph Tables:

 ---------------------------------------------------------------------------------
 (Depth) Function   	        Calls       Base Space   Used Autos Params    Refs
 ---------------------------------------------------------------------------------
 (0) _main                                                 0     0      0   30390
                           _CCP_Init
                   _CCP_PWM_Set_Duty
                      _CCP_PWM_Start
                        _TIMER2_INIT
             _application_initialize
 ---------------------------------------------------------------------------------
 (1) _application_initialize                               0     0      0    7117
                     _Ecu_initialize
 ---------------------------------------------------------------------------------
 (2) _Ecu_initialize                                       0     0      0    7117
                     _led_initialize
 ---------------------------------------------------------------------------------
 (3) _led_initialize                                       4     3      1    7117
                                             11 COMRAM     3     2      1
                _gpio_pin_initialize
 ---------------------------------------------------------------------------------
 (1) _TIMER2_INIT                                          3     2      1     216
                                              1 COMRAM     2     1      1
 ---------------------------------------------------------------------------------
 (1) _CCP_PWM_Start                                        3     2      1     150
                                              1 COMRAM     2     1      1
 ---------------------------------------------------------------------------------
 (1) _CCP_PWM_Set_Duty                                    11     9      2    7508
                                             91 COMRAM    10     8      2
                            ___fladd
                            ___fldiv
                            ___flmul
                            ___fltol
                           ___xxtofl
 ---------------------------------------------------------------------------------
 (1) _CCP_Init                                             3     2      1   15399
                                            103 COMRAM     1     0      1
                                              0 BANK0      1     1      0
                 _CCP_Capture_Config
                 _CCP_Compare_Config
               _CCP_Interrupt_Config
                     _CCP_PWM_Config
                _gpio_pin_initialize
 ---------------------------------------------------------------------------------
 (4) _gpio_pin_initialize                                  2     1      1    6907
                                              9 COMRAM     2     1      1
       _gpio_pin_direction_intialize
               _gpio_pin_write_logic
 ---------------------------------------------------------------------------------
 (5) _gpio_pin_write_logic                                 8     6      2    5020
                                              1 COMRAM     8     6      2
 ---------------------------------------------------------------------------------
 (5) _gpio_pin_direction_intialize                         7     6      1     483
                                              1 COMRAM     7     6      1
 ---------------------------------------------------------------------------------
 (2) _CCP_PWM_Config                                      12    11      1    7426
                                             91 COMRAM    12    11      1
                            ___fladd
                            ___fldiv
                            ___flmul
                            ___fltol
                           ___xxtofl
 ---------------------------------------------------------------------------------
 (2) ___xxtofl                                            14    10      4     621
                                              1 COMRAM    14    10      4
 ---------------------------------------------------------------------------------
 (2) ___fltol                                             10     6      4     354
                                             81 COMRAM    10     6      4
                            ___fladd (ARG)
                            ___fldiv (ARG)
                            ___flmul (ARG)
                           ___xxtofl (ARG)
 ---------------------------------------------------------------------------------
 (2) ___flmul                                             25    17      8    2190
                                             56 COMRAM    25    17      8
                            ___fladd (ARG)
                            ___fldiv (ARG)
                           ___xxtofl (ARG)
 ---------------------------------------------------------------------------------
 (2) ___fldiv                                             25    17      8    1497
                                             15 COMRAM    25    17      8
                           ___xxtofl (ARG)
 ---------------------------------------------------------------------------------
 (2) ___fladd                                             16     8      8    2486
                                             40 COMRAM    16     8      8
                            ___fldiv (ARG)
                           ___xxtofl (ARG)
 ---------------------------------------------------------------------------------
 (2) _CCP_Interrupt_Config                                 1     0      1     120
                                              1 COMRAM     1     0      1
 ---------------------------------------------------------------------------------
 (2) _CCP_Compare_Config                                   3     2      1     212
                                              1 COMRAM     3     2      1
 ---------------------------------------------------------------------------------
 (2) _CCP_Capture_Config                                   3     2      1     278
                                              1 COMRAM     3     2      1
 ---------------------------------------------------------------------------------
 Estimated maximum stack depth 5
 ---------------------------------------------------------------------------------
 (Depth) Function   	        Calls       Base Space   Used Autos Params    Refs
 ---------------------------------------------------------------------------------
 (6) _InterruptMangaer                                     0     0      0     176
                           _CCP1_ISR
                           _CCP2_ISR
                           _INT0_ISR
                           _INT1_ISR
                           _INT2_ISR
                            _RB4_ISR
                            _RB5_ISR
                            _RB6_ISR
                            _RB7_ISR
                           _TMR0_ISR
                           _TMR1_ISR
                           _TMR2_ISR
                           _TMR3_ISR
 ---------------------------------------------------------------------------------
 (7) _TMR3_ISR                                             0     0      0       0
 ---------------------------------------------------------------------------------
 (7) _TMR2_ISR                                             0     0      0       0
 ---------------------------------------------------------------------------------
 (7) _TMR1_ISR                                             0     0      0       0
 ---------------------------------------------------------------------------------
 (7) _TMR0_ISR                                             0     0      0       0
 ---------------------------------------------------------------------------------
 (7) _RB7_ISR                                              1     1      0      44
                                              0 COMRAM     1     1      0
 ---------------------------------------------------------------------------------
 (7) _RB6_ISR                                              1     1      0      44
                                              0 COMRAM     1     1      0
 ---------------------------------------------------------------------------------
 (7) _RB5_ISR                                              1     1      0      44
                                              0 COMRAM     1     1      0
 ---------------------------------------------------------------------------------
 (7) _RB4_ISR                                              1     1      0      44
                                              0 COMRAM     1     1      0
 ---------------------------------------------------------------------------------
 (7) _INT2_ISR                                             0     0      0       0
 ---------------------------------------------------------------------------------
 (7) _INT1_ISR                                             0     0      0       0
 ---------------------------------------------------------------------------------
 (7) _INT0_ISR                                             0     0      0       0
 ---------------------------------------------------------------------------------
 (7) _CCP2_ISR                                             0     0      0       0
 ---------------------------------------------------------------------------------
 (7) _CCP1_ISR                                             0     0      0       0
 ---------------------------------------------------------------------------------
 Estimated maximum stack depth 7
 ---------------------------------------------------------------------------------

 Call Graph Graphs:

 _main (ROOT)
   _CCP_Init
     _CCP_Capture_Config
     _CCP_Compare_Config
     _CCP_Interrupt_Config
     _CCP_PWM_Config
       ___fladd
         ___fldiv (ARG)
           ___xxtofl (ARG)
         ___xxtofl (ARG)
       ___fldiv
       ___flmul
         ___fladd (ARG)
         ___fldiv (ARG)
         ___xxtofl (ARG)
       ___fltol
         ___fladd (ARG)
         ___fldiv (ARG)
         ___flmul (ARG)
         ___xxtofl (ARG)
       ___xxtofl
     _gpio_pin_initialize
       _gpio_pin_direction_intialize
       _gpio_pin_write_logic
   _CCP_PWM_Set_Duty
     ___fladd
     ___fldiv
     ___flmul
     ___fltol
     ___xxtofl
   _CCP_PWM_Start
   _TIMER2_INIT
   _application_initialize
     _Ecu_initialize
       _led_initialize
         _gpio_pin_initialize

 _InterruptMangaer (ROOT)
   _CCP1_ISR
   _CCP2_ISR
   _INT0_ISR
   _INT1_ISR
   _INT2_ISR
   _RB4_ISR
   _RB5_ISR
   _RB6_ISR
   _RB7_ISR
   _TMR0_ISR
   _TMR1_ISR
   _TMR2_ISR
   _TMR3_ISR

 Address spaces:
Name               Size   Autos  Total    Cost      Usage
BIGRAM             F7F      0       0      50        0.0%
EEDATA             400      0       0       0        0.0%
BITBANK14          100      0       0      32        0.0%
BANK14             100      0       0      33        0.0%
BITBANK13          100      0       0      30        0.0%
BANK13             100      0       0      31        0.0%
BITBANK12          100      0       0      28        0.0%
BANK12             100      0       0      29        0.0%
BITBANK11          100      0       0      26        0.0%
BANK11             100      0       0      27        0.0%
BITBANK10          100      0       0      24        0.0%
BANK10             100      0       0      25        0.0%
BITBANK9           100      0       0      22        0.0%
BANK9              100      0       0      23        0.0%
BITBANK8           100      0       0      20        0.0%
BANK8              100      0       0      21        0.0%
BITBANK7           100      0       0      18        0.0%
BANK7              100      0       0      19        0.0%
BITBANK6           100      0       0      16        0.0%
BANK6              100      0       0      17        0.0%
BITBANK5           100      0       0      14        0.0%
BANK5              100      0       0      15        0.0%
BITBANK4           100      0       0      12        0.0%
BANK4              100      0       0      13        0.0%
BITBANK3           100      0       0      10        0.0%
BANK3              100      0       0      11        0.0%
BITBANK2           100      0       0       8        0.0%
BANK2              100      0       0       9        0.0%
BITBANK1           100      0       0       6        0.0%
BANK1              100      0       0       7        0.0%
BITBANK15           80      0       0      34        0.0%
BANK15              80      0       0      35        0.0%
BITBANK0            80      0       0       4        0.0%
BANK0               80      1      66       5       79.7%
BITCOMRAM           7E      0       0       0        0.0%
COMRAM              7E     68      7D       1       99.2%
BITBIGSFRhllhhh     18      0       0      37        0.0%
BITBIGSFRhh          D      0       0      36        0.0%
BITBIGSFRlhhhhl      6      0       0      42        0.0%
BITBIGSFRlhhl        6      0       0      43        0.0%
BITBIGSFRllhh        6      0       0      46        0.0%
BITBIGSFRhllhlh      5      0       0      38        0.0%
BITBIGSFRhlll        5      0       0      39        0.0%
BITBIGSFRlhllh       4      0       0      44        0.0%
BITBIGSFRlllh        4      0       0      47        0.0%
BITBIGSFRllll        4      0       0      48        0.0%
BITBIGSFRlhhhhl      1      0       0      41        0.0%
BITBIGSFRlhhhhh      1      0       0      40        0.0%
BITBIGSFRlhlll       1      0       0      45        0.0%
BIGSFR               0      0       0     200        0.0%
BITSFR               0      0       0     200        0.0%
SFR                  0      0       0     200        0.0%
STACK                0      0       0       2        0.0%
NULL                 0      0       0       0        0.0%
ABS                  0      0      E3      49        0.0%
DATA                 0      0      E3       3        0.0%
CODE                 0      0       0       0        0.0%


Microchip Technology PIC18 Macro Assembler V2.46 build 20240104201356 
Symbol Table                                                                                   Sat Aug 24 09:47:33 2024

                     ??_InterruptMangaer 0002                             ___fldiv@aexp 0028  
                           ___fldiv@bexp 0027                             ___fldiv@sign 0020  
                  _INT0_INTERRUPTHANDLER 00E2                                      l245 2C16  
                                    l328 2EAE                                      l249 2C6A  
                                    l514 28B4                                      l531 2AAA  
                                    l548 2DA6                                      _PR2 0FCB  
                                    _ccp 00AE                                      _ret 00E4  
                    led_initialize@F3062 0077                                      wreg 0FE8  
                           ___flmul@aexp 004A                             ___flmul@bexp 004B  
                           ___flmul@sign 0045                             ___flmul@temp 0050  
                           ___flmul@prod 004C                          __end_of_RB4_ISR 2E2A  
                        __end_of_RB5_ISR 2E78                          __end_of_RB6_ISR 2E5E  
                        __end_of_RB7_ISR 2E44                             ___fltol@exp1 005B  
                                   l1033 2B94                                     l1035 2C00  
                                   l2006 2154                                     l1222 2B7E  
                                   l1304 27A0                                     l1240 24EA  
                                   l1321 236A                                     l1315 27A2  
                                   l1219 2B6C                                     l1171 2EA4  
                                   l1324 236C                                     l1261 2DDC  
                                   l1237 24EA                                     l1165 2E06  
                                   l1246 2D26                                     l1166 2E06  
                                   l1280 2664                                     l1249 2D26  
                                   l1290 2666                                     l1269 2570  
                                   l5001 1B32                                     l1634 29BA  
                                   l5003 1B48                                     l5011 1B78  
                                   l5013 1B86                                     l5005 1B4E  
                                   l5101 1624                                     l5023 1BF0  
                                   l5031 1C38                                     l5015 1B8A  
                                   l5007 1B58                                     l5111 166E  
                                   l5103 1630                                     l5041 1CA2  
                                   l5033 1C52                                     l5025 1BFC  
                                   l5017 1B98                                     l5009 1B66  
                                   l1921 1B22                                     l5121 16C0  
                                   l5113 167A                                     l5105 1648  
                                   l5201 292E                                     l1930 1B68  
                                   l5043 1CB0                                     l5035 1C68  
                                   l5027 1C0A                                     l5019 1BC6  
                                   l5131 173E                                     l5123 16D0  
                                   l5115 168A                                     l5107 1654  
                                   l5211 295A                                     l1932 1BE0  
                                   l1924 1AE6                                     l5045 1CB6  
                                   l5037 1C82                                     l5029 1C34  
                                   l1933 1BCE                                     l5141 17B8  
                                   l5133 1774                                     l5125 16EC  
                                   l5117 1696                                     l5109 1660  
                                   l5061 151C                                     l5221 298A  
                                   l5047 1CB8                                     l5039 1C9E  
                                   l1919 1CC2                                     l5151 1818  
                                   l5143 17CA                                     l5135 1782  
                                   l5127 16F8                                     l5119 16A6  
                                   l1951 15C4                                     l5071 1562  
                                   l5063 152C                                     l5055 1500  
                                   l5223 299A                                     l5207 2946  
                                   l5231 201C                                     l1960 1832  
                                   l5401 2628                                     l1865 122E  
                                   l5161 1886                                     l1961 1820  
                                   l5145 17D8                                     l5137 17A0  
                                   l5129 1714                                     l5081 158E  
                                   l5073 1568                                     l5065 153C  
                                   l5057 150C                                     l5225 29AA  
                                   l5217 296E                                     l5209 2950  
                                   l5241 209A                                     l5233 202A  
                                   l1882 1348                                     l1874 14FE  
                                   l1866 121C                                     l5411 2668  
                                   l1891 1418                                     l1867 11E2  
                                   l5171 18EE                                     l5155 1842  
                                   l5163 188A                                     l5147 17DC  
                                   l5139 17AA                                     l1955 1928  
                                   l5091 15E4                                     l5083 159E  
                                   l5075 156E                                     l5067 154C  
                                   l5059 151A                                     l5219 297A  
                                   l5251 20EE                                     l5243 20A2  
                                   l5235 2070                                     l1892 1406  
                                   l5405 2634                                     l5421 26AA  
                                   l5413 267C                                     l5181 1918  
                                   l5173 18FE                                     l5165 18A4  
                                   l5157 184E                                     l5149 17EA  
                                   l5085 15AE                                     l5077 157C  
                                   l5069 1552                                     l5261 2164  
                                   l5253 212A                                     l5245 20AE  
                                   l5237 2086                                     l5229 200C  
                                   l4701 2C02                                     l1958 17BA  
                                   l5407 2664                                     l5423 26B6  
                                   l5431 26DA                                     l5415 2684  
                                   l5175 190C                                     l5167 18B8  
                                   l5159 185C                                     l5095 15F8  
                                   l5087 15B4                                     l5079 157E  
                                   l5191 28E0                                     l5271 21AC  
                                   l5263 2168                                     l5255 2136  
                                   l5247 20E0                                     l4711 2C62  
                                   l4703 2C12                                     l1968 18EA  
                                   l1992 2060                                     l5361 2500  
                                   l5441 2744                                     l5425 26C2  
                                   l5433 2712                                     l4801 11DA  
                                   l4721 105C                                     l5177 190E  
                                   l5169 18D2                                     l5097 1604  
                                   l5089 15D4                                     l5193 290A  
                                   l5185 28B6                                     l5265 218C  
                                   l5257 2144                                     l5249 20E2  
                                   l4705 2C1A                                     l5371 254C  
                                   l5363 2508                                     l5443 2750  
                                   l5427 26CE                                     l5419 269E  
                                   l5451 27A0                                     l4811 1210  
                                   l4803 11F0                                     l4723 106C  
                                   l4731 1096                                     l4715 1040  
                                   l5179 1914                                     l5099 160E  
                                   l5195 290C                                     l5187 28CC  
                                   l5267 219C                                     l5259 2162  
                                   l1995 21BC                                     l4707 2C50  
                                   l5381 2596                                     l5373 2568  
                                   l5365 2522                                     l5445 275C  
                                   l5437 272C                                     l4901 14C2  
                                   l4821 1260                                     l4813 121A  
                                   l4805 11FC                                     l4741 10C6  
                                   l4733 10A6                                     l4725 107C  
                                   l4717 104C                                     l5197 291C  
                                   l5269 21AA                                     l5461 224A  
                                   l4653 29BC                                     l4709 2C52  
                                   l5357 2EA6                                     l5383 25A2  
                                   l5391 25EA                                     l5375 2570  
                                   l5367 252A                                     l5359 24EC  
                                   l5439 2738                                     l4911 14EC  
                                   l4903 14D0                                     l4831 129C  
                                   l4823 1270                                     l4815 123C  
                                   l4807 1200                                     l4751 1106  
                                   l4743 10D4                                     l4735 10AC  
                                   l4727 108C                                     l4719 105A  
                                   l5199 2920                                     l1999 20F8  
                                   l5471 235E                                     l5463 227E  
                                   l5455 21BE                                     l4655 29D0  
                                   l4663 2A7E                                     l5385 25AE  
                                   l5369 2544                                     l5449 2768  
                                   l5481 2DBE                                     l4913 14EE  
                                   l4905 14D6                                     l4841 12E2  
                                   l4833 12AA                                     l4825 127E  
                                   l4817 124C                                     l4809 120E  
                                   l4761 1140                                     l4753 1108  
                                   l4745 10D6                                     l4737 10BE  
                                   l4729 108E                                     l4921 1944  
                                   l5465 2326                                     l5473 236A  
                                   l5457 21D2                                     l4681 2836  
                                   l4673 27A4                                     l4657 29D8  
                                   l4665 2AA8                                     l5395 2604  
                                   l5379 258A                                     l5491 2DDA  
                                   l5483 2DC0                                     l4907 14D8  
                                   l4851 135E                                     l4843 1316  
                                   l4835 12AC                                     l4827 128C  
                                   l4771 1154                                     l4763 1144  
                                   l4747 10E6                                     l4755 1110  
                                   l4739 10C0                                     l4931 1978  
                                   l4923 1946                                     l5467 233C  
                                   l5459 21DA                                     l4675 27B8  
                                   l4659 2A2E                                     l4691 2D6A  
                                   l5811 245E                                     l5397 2610  
                                   l5389 25BA                                     l5485 2DC2  
                                   l5477 2DA8                                     l4909 14DE  
                                   l4861 139A                                     l4853 136E  
                                   l4845 1318                                     l4837 12B6  
                                   l4829 1298                                     l4781 1168  
                                   l4773 1158                                     l4765 1148  
                                   l4757 1120                                     l4749 10F6  
                                   l4941 19AA                                     l4925 1956  
                                   l4933 1980                                     l4917 192A  
                                   l5469 2348                                     l4685 2886  
                                   l4677 27D8                                     l4693 2D7E  
                                   l5813 2474                                     l5805 236E  
                                   l5821 2CDE                                     l5399 261C  
                                   l5487 2DC4                                     l5479 2DAC  
                                   l4871 13C6                                     l4863 139C  
                                   l4847 1328                                     l4839 12BC  
                                   l4791 117C                                     l4783 116C  
                                   l4775 115C                                     l4767 114C  
                                   l4759 1132                                     l4951 19DE  
                                   l4943 19AC                                     l4935 1990  
                                   l4927 1966                                     l4919 1936  
                                   l4679 27E0                                     l4687 28B2  
                                   l4695 2D86                                     l5815 24A4  
                                   l5807 237E                                     l5823 2CE2  
                                   l5751 2B80                                     l5489 2DD8  
                                   l4881 13FE                                     l4865 13AA  
                                   l4857 1382                                     l4873 13C8  
                                   l4849 1338                                     l4785 1170  
                                   l4777 1160                                     l4769 1150  
                                   l4793 1180                                     l4961 1A24  
                                   l4945 19BC                                     l4953 19E6  
                                   l4937 1996                                     l4929 1976  
                                   l4697 2DA4                                     l5817 24BA  
                                   l5809 2382                                     l5825 2CF8  
                                   l5761 2BF6                                     l5753 2B90  
                                   l4891 147C                                     l4867 13B2  
                                   l4859 138C                                     l4875 13D6  
                                   l4795 1184                                     l4787 1174  
                                   l4779 1164                                     l4971 1A4C  
                                   l4963 1A28                                     l4955 19F6  
                                   l4947 19CC                                     l4939 199C  
                                   l6811 2ABC                                     l5827 2D04  
                                   l5819 2CCE                                     l5763 2BF8  
                                   l5755 2B96                                     l4885 1428  
                                   l4893 147E                                     l4877 13DA  
                                   l4869 13B6                                     l4797 11AE  
                                   l4789 1178                                     l4981 1A9A  
                                   l4957 1A0C                                     l4949 19DC  
                                   l6821 2AF8                                     l6813 2AC0  
                                   l5829 2D1A                                     l5765 2BFA  
                                   l5757 2BDA                                     l5773 2E9C  
                                   l4895 148E                                     l4887 1434  
                                   l4879 13E8                                     l4799 11CA  
                                   l4991 1AE4                                     l4983 1AAA  
                                   l4975 1A60                                     l4959 1A1C  
                                   l4967 1A3C                                     l6831 2B60  
                                   l6823 2B12                                     l6815 2AD6  
                                   l5767 2BFC                                     l5759 2BE8  
                                   l4897 149E                                     l4889 1442  
                                   l4993 1AF0                                     l4985 1AB2  
                                   l4977 1A7A                                     l4969 1A4C  
                                   l6833 2B6C                                     l6825 2B1E  
                                   l6817 2ADE                                     l6809 2AAC  
                                   l5769 2BFE                                     l6841 2DE2  
                                   l4899 14BE                                     l4995 1B0E  
                                   l4987 1AC2                                     l4979 1A8A  
                                   l6835 2B76                                     l6827 2B38  
                                   l6819 2AF4                                     l6843 2DEA  
                                   l4997 1B10                                     l4989 1AD6  
                                   l6829 2B44                                     l6845 2DF2  
                                   l4999 1B20                                     l6847 2DFE  
                                   l6839 2DDE                                     l6869 2A92  
                                   STR_1 103C                                     STR_2 1039  
                                   _LATA 0F89                                     _LATB 0F8A  
                                   _LATC 0F8B                                     u4000 19CC  
                                   _LATD 0F8C                                     u4001 19C8  
                                   _LATE 0F8D                                     u4010 1A0C  
                                   u4011 1A08                                     u4100 1B98  
                                   u4020 1A4C                                     u4101 1B94  
                                   u4021 1A48                                     u4110 1BC6  
                                   u4030 1AC2                                     u4111 1BC2  
                                   u4031 1ABE                                     u4120 1BDC  
                                   u4040 1AE4                                     u4200 153C  
                                   u4121 1BD8                                     u4041 1AE0  
                                   u4201 1538                                     u4130 1BF0  
                                   u4050 1B0E                                     u4210 157C  
                                   u5010 237E                                     u4131 1BEC  
                                   u4051 1B0A                                     u4211 1578  
                                   u5011 237A                                     u4140 1C0A  
                                   u4060 1B32                                     u4300 1818  
                                   u4220 158E                                     u5020 2474  
                                   u4141 1C06                                     u4061 1B2E  
                                   u4301 1814                                     u4221 158A  
                                   u5021 2470                                     u4150 1C52  
                                   u4070 1B48                                     u4310 182E  
                                   u4230 159E                                     u5030 24BA  
                                   u4151 1C4E                                     u4071 1B44  
                                   u4311 182A                                     u4231 159A  
                                   u5031 24B6                                     u3600 10D4  
                                   u4160 1C82                                     u4080 1B66  
                                   u4320 1842                                     u4240 15D4  
                                   u4400 2942                                     u3520 289C  
                                   u3504 27FE                                     u5040 2CDE  
                                   u3601 10D0                                     u4161 1C7E  
                                   u4081 1B62                                     u4321 183E  
                                   u4241 15D0                                     u4401 293E  
                                   u3521 2896                                     u3505 27FA  
                                   u5041 2CDA                                     u3610 10E6  
                                   u4170 1CB0                                     u4090 1B86  
                                   u4330 185C                                     u4250 15E4  
                                   u4410 296A                                     u3514 2854  
                                   u3450 29D0                                     u3530 2D7E  
                                   u5050 2CF8                                     u3611 10E2  
                                   u4171 1CAC                                     u4091 1B82  
                                   u4331 1858                                     u4251 15E0  
                                   u4411 2966                                     u3515 2850  
                                   u3451 29CC                                     u3531 2D7A  
                                   u5051 2CF4                                     u3700 122E  
                                   u3620 10F6                                     u4340 18A4  
                                   u4260 175E                                     u4180 151A  
                                   u4420 298A                                     u4500 2154  
                                   u5060 2D1A                                     u3540 2C12  
                                   u3701 122A                                     u3621 10F2  
                                   u4341 18A0                                     u4181 1516  
                                   u4421 2986                                     u4501 2150  
                                   u5061 2D16                                     u3541 2C0E  
                                   u3710 123C                                     u3630 1132  
                                   u4350 18D2                                     u4270 17B8  
                                   u4190 152C                                     u4430 299A  
                                   u4510 2162                                     u3526 289E  
                                   u3711 1238                                     u3631 112E  
                                   u4351 18CE                                     u4271 17B4  
                                   u4191 1528                                     u4431 2996  
                                   u4511 215E                                     u3800 139A  
                                   u3720 124C                                     u3640 1140  
                                   u3560 105A                                     u4360 190C  
                                   u4280 17D8                                     u4520 219C  
                                   u4440 201C                                     u3480 27B8  
                                   u3464 29F6                                     u3801 1396  
                                   u3721 1248                                     u3641 113C  
                                   u3561 1056                                     u4361 1908  
                                   u4281 17D4                                     u4265 1754  
                                   u4521 2198                                     u4441 2018  
                                   u3481 27B4                                     u3465 29F2  
                                   u3810 13AA                                     u3730 127E  
                                   u3650 11AE                                     u3570 106C  
                                   u4290 17EA                                     u4370 28CC  
                                   u4530 21AA                                     u4450 202A  
                                   u3490 27D8                                     u3474 2A4C  
                                   u3811 13A6                                     u3731 127A  
                                   u3651 11AA                                     u3571 1068  
                                   u4291 17E6                                     u4371 28C8  
                                   u4531 21A6                                     u4451 2026  
                                   u3491 27D4                                     u3475 2A48  
                                   u3555 2C60                                     u4700 269A  
                                   u3900 148E                                     u3820 13C6  
                                   u3740 128C                                     u3660 11C6  
                                   u3580 107C                                     u4380 2900  
                                   u4460 2086                                     u4701 2696  
                                   u3901 148A                                     u3821 13C2  
                                   u3741 1288                                     u3661 11C0  
                                   u3581 1078                                     u4461 2082  
                                   u3557 2C62                                     u4630 2500  
                                   u4710 2728                                     u3910 149E  
                                   u3830 13D6                                     u3750 12AA  
                                   u3670 11C8                                     u3590 10BE  
                                   u4390 292E                                     u4470 20DC  
                                   u4631 24FC                                     u4711 2724  
                                   u3911 149A                                     u3831 13D2  
                                   u3751 12A6                                     u3591 10BA  
                                   u4391 292A                                     u4471 20D8  
                                   u4640 2522                                     u3920 14BE  
                                   u3840 13E8                                     u3760 12E2  
                                   u3680 11F0                                     u4480 2126  
                                   u4720 21D2                                     u4641 251E  
                                   u3921 14BA                                     u3841 13E4  
                                   u3761 12DE                                     u3681 11EC  
                                   u4385 28F6                                     u4481 2122  
                                   u4721 21CE                                     u4650 2544  
                                   u3930 14D0                                     u3850 13FE  
                                   u3770 1328                                     u3690 120E  
                                   u4490 2144                                     u4730 233C  
                                   u6410 2ABC                                     u4651 2540  
                                   u3931 14CC                                     u3851 13FA  
                                   u3771 1324                                     u3691 120A  
                                   u4491 2140                                     u4731 2338  
                                   u6411 2AB8                                     u4660 2568  
                                   u3940 14EC                                     u3860 1414  
                                   u3780 135E                                     u4740 235E  
                                   u6420 2AD6                                     u4661 2564  
                                   u3941 14E8                                     u3861 1410  
                                   u3781 135A                                     u4741 235A  
                                   u6421 2AD2                                     u4670 2586  
                                   u3870 1428                                     u3790 136E  
                                   u3950 1944                                     u6430 2AF4  
                                   u4671 2582                                     u3871 1424  
                                   u3791 136A                                     u3951 1940  
                                   u6431 2AF0                                     u4680 2600  
                                   u3880 1442                                     u3960 1956  
                                   u6440 2B12                                     u4681 25FC  
                                   u3881 143E                                     u3961 1952  
                                   u6441 2B0E                                     u4690 267C  
                                   u3890 147C                                     u3970 1966  
                                   u6450 2B38                                     u4691 2678  
                                   u3891 1478                                     u3971 1962  
                                   u6451 2B34                                     u3980 19AA  
                                   u6460 2B60                                     u4940 2B90  
                                   u3981 19A6                                     u6461 2B5C  
                                   u4941 2B8C                                     u3990 19BC  
                                   u3991 19B8                                     _TMR2 0FCC  
                                   _led1 007D                                     _led2 007C  
                                   _main 2DDE                         __end_of_CCP1_ISR 2ED2  
                       __end_of_CCP2_ISR 2ECE                                     fsr2h 0FDA  
                                   indf2 0FDF                                     fsr1l 0FE1  
                                   fsr2l 0FD9                                     btemp 007E  
                 __end_of_led_initialize 2C6C                           _CCP_PWM_Config 21BE  
                                   prodh 0FF4                                     prodl 0FF3  
                                   start 000E                          ___fldiv@new_exp 0021  
                  __end_of_CCP_PWM_Start 2D28                    _CCP_PWM_Set_Duty$4071 0060  
                       __end_of_CCP_Init 2B80                             ___param_bank 0000  
                   _gpio_pin_write_logic 29BC                         __end_of_INT0_ISR 2ECA  
                       __end_of_INT1_ISR 2EC6                         __end_of_INT2_ISR 2EC2  
                          ___fltol@sign1 005A                          __end_of___fladd 1500  
                                  ?_main 0001                 ??_application_initialize 000F  
                        __end_of___fldiv 1CC4                                    _EEADR 0FA9  
                        __end_of___flmul 192A                          __end_of___fltol 29BC  
                                  _RB4_F 007B                                    _RB5_F 007A  
                                  _RB6_F 0079                                    _RB7_F 0078  
                                  i2l634 2EC4                                    i2l650 2E28  
                                  i2l629 2EC8                                    i2l645 2E26  
                                  i2l661 2E76                                    i2l639 2EC0  
                                  i2l672 2E5C                                    i2l850 1D6A  
                                  i2l683 2E42                                    i2l860 1EBE  
                                  i2l852 1DAE                                    i2l844 1CE6  
                                  i2l870 1FA6                                    i2l862 1F02  
                                  i2l854 1DF2                                    i2l846 1D06  
                                  i2l951 2E9A                                    i2l872 1FC6  
                                  i2l864 1F46                                    i2l856 1E36  
                                  i2l848 1D26                                    i2l874 1FE6  
                                  i2l866 1F66                                    i2l858 1E7A  
                                  i2l868 1F86                                    i2l877 2006  
                    relay_turn_off@F3065 0071               __end_of_CCP_Compare_Config 27A4  
                                  _TMR0H 0FD7                                    _TMR1H 0FCF  
                                  _TMR0L 0FD6                                    _TMR1L 0FCE  
                                  _TMR3H 0FB3                                    _TMR3L 0FB2  
                                  _PORTA 0F80                                    _PORTB 0F81  
                                  _PORTC 0F82                                    _PORTD 0F83  
                                  _PORTE 0F84                                    _TRISA 0F92  
                                  _TRISB 0F93                                    _TRISC 0F94  
                                  _TRISD 0F95                                    _TRISE 0F96  
                       __end_of_TMR0_ISR 2E9C                         __end_of_TMR1_ISR 2E90  
                       __end_of_TMR2_ISR 2EB8                         __end_of_TMR3_ISR 2E84  
                                  _value 006F                                    _timer 00BD  
                                  tablat 0FF5                   __end_of_CCP_PWM_Config 236E  
                                  ttemp5 007F                                    ttemp6 0082  
                                  ttemp7 0086                                    status 0FD8  
                                  wtemp8 007F                          ?_led_initialize 000C  
                _RB4_INTERRUPTHANDLERLOW 00DA                  _RB7_INTERRUPTHANDLERLOW 00CE  
                        __initialization 2C6C                             __end_of_main 2E0E  
                  ?_gpio_pin_write_logic 0002                            _lat_registers 009A  
                           ?_TIMER2_INIT 0002                                   ??_main 0069  
                         _Ecu_initialize 2EA6                            __activetblptr 0003  
                       led_turn_on@F3067 0076                                ??_RB4_ISR 0001  
                              ??_RB5_ISR 0001                                ??_RB6_ISR 0001  
                              ??_RB7_ISR 0001                                   _ADRESH 0FC4  
                                 _EEADRH 0FAA                                   _ADRESL 0FC3  
                                 _EEDATA 0FA8                                   _CCPR1L 0FBE  
                                 _CCPR2L 0FBB                                   _EECON2 0FA7  
                                 i2l1016 2E8E                                   i2l1054 2EB6  
                                 i2l1119 2E82                                   i2l1334 2ECC  
                                 i2l1329 2ED0                                   i2l5601 2EC6  
                                 i2l5613 2EBE                                   i2l5621 2E12  
                                 i2l6501 1DD8                                   i2l5607 2EC2  
                                 i2l6511 1E1C                                   i2l6503 1DE8  
                                 i2l5641 2E76                                   i2l5633 2E60  
                                 i2l5705 2E90                                   i2l6521 1E60  
                                 i2l6513 1E2C                                   i2l6505 1DEC  
                                 i2l5627 2E26                                   i2l5619 2E10  
                                 i2l5635 2E62                                   i2l5707 2E92  
                                 i2l5715 2E84                                   i2l5731 2E7A  
                                 i2l6531 1EA4                                   i2l6523 1E70  
                                 i2l6515 1E30                                   i2l6507 1E00  
                                 i2l5661 2E2C                                   i2l5709 2E96  
                                 i2l5717 2E86                                   i2l5725 2EB0  
                                 i2l5733 2E7E                                   i2l6541 1EE8  
                                 i2l6533 1EB4                                   i2l6525 1E74  
                                 i2l6517 1E44                                   i2l6509 1E0E  
                                 i2l5655 2E5C                                   i2l5647 2E46  
                                 i2l5663 2E2E                                   i2l5719 2E8A  
                                 i2l6551 1F2C                                   i2l6543 1EF8  
                                 i2l6535 1EB8                                   i2l6527 1E88  
                                 i2l6519 1E52                                   i2l6471 1D02  
                                 i2l6463 1CC6                                   i2l5745 2ECA  
                                 i2l5649 2E48                                   i2l5729 2E78  
                                 i2l6561 1F74                                   i2l6553 1F3C  
                                 i2l6545 1EFC                                   i2l6537 1ECC  
                                 i2l6529 1E96                                   i2l6481 1D50  
                                 i2l6473 1D14                                   i2l6465 1CD4  
                                 i2l5739 2ECE                                   i2l6571 1FC2  
                                 i2l6563 1F82                                   i2l6555 1F40  
                                 i2l6547 1F10                                   i2l6539 1EDA  
                                 i2l6491 1D94                                   i2l6483 1D60  
                                 i2l6475 1D22                                   i2l6467 1CE2  
                                 i2l5669 2E42                                   i2l6573 1FD4  
                                 i2l6565 1F94                                   i2l6557 1F54  
                                 i2l6549 1F1E                                   i2l6493 1DA4  
                                 i2l6485 1D64                                   i2l6477 1D34  
                                 i2l6469 1CF4                                   i2l6575 1FE2  
                                 i2l6567 1FA2                                   i2l6559 1F62  
                                 i2l6495 1DA8                                   i2l6487 1D78  
                                 i2l6479 1D42                                   i2l6577 1FF4  
                                 i2l6569 1FB4                                   i2l6497 1DBC  
                                 i2l6489 1D86                                   i2l6579 2002  
                                 i2l6499 1DCA                          ?_CCP_PWM_Config 005C  
                  _INT1_INTERRUPTHANDLER 00E0                         __end_of___xxtofl 21BE  
                              ??___fladd 0031                                ??___fldiv 0018  
                              ??___flmul 0041                                ??___fltol 0056  
                 __end_of_Ecu_initialize 2EB0                                   clear_0 2CB2  
                                 clear_1 2CBE                    led_initialize@pin_obj 000E  
                                 isa$std 0001                                   _preval 006B  
gpio_pin_direction_intialize@_pin_config 0002                                ?_CCP1_ISR 0001  
                           __pdataCOMRAM 0078                                ?_CCP2_ISR 0001  
                           __mediumconst 0000                                   tblptrh 0FF7  
                                 tblptrl 0FF6                                   tblptru 0FF8  
                              ?_CCP_Init 0068                        CCP_PWM_Config@ccp 005C  
                      CCP_PWM_Config@ret 0067                             ___xxtofl@arg 000C  
                           ___xxtofl@exp 000B                             ___xxtofl@val 0002  
                             __accesstop 0080                  __end_of__initialization 2CC4  
                              ?_INT0_ISR 0001                                ?_INT1_ISR 0001  
                       _CCP_PWM_Set_Duty 236E                                ?_INT2_ISR 0001  
               _RB4_INTERRUPTHANDLERHIGH 00DC                            ___rparam_used 0001  
                             ___fltol@f1 0052                 _RB7_INTERRUPTHANDLERHIGH 00D0  
                      led_initialize@led 000C                   ??_gpio_pin_write_logic 0004  
                         __pcstackCOMRAM 0001                             __pidataBANK0 2D28  
                              ?_TMR0_ISR 0001                                ?_TMR1_ISR 0001  
                              ?_TMR2_ISR 0001                                ?_TMR3_ISR 0001  
                        ?_Ecu_initialize 0001                               ??_CCP1_ISR 0001  
                             ??_CCP2_ISR 0001               CCP_PWM_Set_Duty@pwm_period 0064  
                  CCP_Compare_Config@ccp 0002                    CCP_Compare_Config@ret 0004  
                             ??_CCP_Init 00E5                               __pbssBANK0 00C2  
                             ??_INT0_ISR 0001                               ??_INT1_ISR 0001  
                             ??_INT2_ISR 0001                   _application_initialize 2E9C  
                    CCP_PWM_Set_Duty@ccp 005C                      CCP_PWM_Set_Duty@val 005D  
                             ??_TMR0_ISR 0001                               ??_TMR1_ISR 0001  
                             ??_TMR2_ISR 0001                               ??_TMR3_ISR 0001  
                      led_turn_off@F3072 0075                    _INT2_INTERRUPTHANDLER 00DE  
                                _RB4_ISR 2E0E                                  _RB5_ISR 2E5E  
                                _RB6_ISR 2E44                                  _RB7_ISR 2E2A  
                              ?___xxtofl 0002                            _keypad_values 0080  
                   led_turn_toggle@F3077 0074                         ??_led_initialize 000D  
                         _tris_registers 00A4                       _CCP_Compare_Config 2668  
                                __Hparam 0000                                  __Lparam 0000  
                    ?_CCP_Compare_Config 0002             __end_of_CCP_Interrupt_Config 2DDE  
                    _gpio_pin_initialize 2D6A                                  ___fladd 1040  
                                ___fldiv 192A                                  ___flmul 1500  
                                ___fltol 28B6                             __psmallconst 1000  
                                __pcinit 2C6C                                  __ramtop 1000  
                             _customChar 1031                                  __ptext0 2DDE  
                                __ptext1 2E9C                                  __ptext2 2EA6  
                                __ptext3 2C02                                  __ptext4 2B80  
                                __ptext5 2CCE                                  __ptext6 236E  
                                __ptext7 2AAC                                  __ptext8 2D6A  
                                __ptext9 29BC                                _T0CONbits 0FD5  
                              _T1CONbits 0FCD                                _T2CONbits 0FCA  
                             ??___xxtofl 0006                                _T3CONbits 0FB1  
                   ??_CCP_Compare_Config 0003                                  _preload 006D  
                       ??_CCP_PWM_Config 005D                     ?_gpio_pin_initialize 000A  
                         __pintcode_body 1CC4                     end_of_initialization 2CC4  
                                int_func 1CC4                  _RB5_INTERRUPTHANDLERLOW 00D6  
                                postdec1 0FE5                                  postdec2 0FDD  
                                postinc0 0FEE                                  postinc2 0FDE  
             __end_of_CCP_Capture_Config 2668                                _PORTBbits 0F81  
               __end_of_CCP_PWM_Set_Duty 24EC                         _InterruptMangaer 0008  
                            ___fladd@grs 0038     __end_of_gpio_pin_direction_intialize 28B6  
           _gpio_pin_direction_intialize 27A4                            ___xxtofl@sign 000A  
                  ??_gpio_pin_initialize 000B                              ___fldiv@grs 0023  
                            ___fldiv@rem 001C                              ___flmul@grs 0046  
                            _CCP1CONbits 0FBD                              _CCP2CONbits 0FBA  
                       ??_Ecu_initialize 000F                            _CCP_PWM_Start 2CCE  
                     relay_turn_on@F3060 0072                            __pidataCOMRAM 2EB8  
                  CCP_Capture_Config@ccp 0002                    CCP_Capture_Config@ret 0004  
                _preval@hal_timer2$F2436 0070                      start_initialization 2C6C  
                _preval@hal_timer3$F2573 0069            ?_gpio_pin_direction_intialize 0002  
                   _CCP_Interrupt_Config 2DA8                  ?_application_initialize 0001  
               _RB6_INTERRUPTHANDLERHIGH 00D4                           ?_CCP_PWM_Start 0002  
                 _Interrupt_Handler_CCP1 00C4                   _Interrupt_Handler_CCP2 00C2  
                            __pdataBANK0 0080                                ___fladd@a 002D  
                              ___fladd@b 0029                                ___fldiv@a 0014  
                              ___fldiv@b 0010                                 ?_RB4_ISR 0001  
                               ?_RB5_ISR 0001                                 ?_RB6_ISR 0001  
                               ?_RB7_ISR 0001                                ___flmul@a 003D  
                              ___flmul@b 0039                              __pbssCOMRAM 0069  
                          __pcstackBANK0 00E5                                 RB4_ISR@n 0001  
                               RB5_ISR@n 0001                                 RB6_ISR@n 0001  
         __end_of_application_initialize 2EA6                                 RB7_ISR@n 0001  
                  ?_CCP_Interrupt_Config 0002          gpio_pin_direction_intialize@ret 0008  
                              __pnvBANK0 00E4                                __pintcode 0008  
                               ?___fladd 0029          gpio_pin_write_logic@_pin_config 0002  
                               ?___fldiv 0010                                 ?___flmul 0039  
                               ?___fltol 0052                gpio_pin_write_logic@logic 0003  
                          ??_TIMER2_INIT 0003                              __smallconst 1000  
                       CCP_PWM_Start@ccp 0002                                 _CCP1_ISR 2ECE  
                               _CCP2_ISR 2ECA                                 _CCP_Init 2AAC  
                    __end_of_customChar2 1031                      __end_of_customChar3 1029  
                    __end_of_customChar4 1021                      __end_of_customChar5 1019  
                    __end_of_customChar6 1011                      __end_of_customChar7 1009  
         ??_gpio_pin_direction_intialize 0003                                 _INT0_ISR 2EC6  
                               _INT1_ISR 2EC2                                 _INT2_ISR 2EBE  
                        ??_CCP_PWM_Start 0003                 __end_of_InterruptMangaer 200A  
                               _PIE1bits 0F9D                                 _PIE2bits 0FA0  
                               i2u600_40 1EDA                                 i2u600_41 1ED6  
                               i2u601_40 1EE8                                 i2u601_41 1EE4  
                               _PIR1bits 0F9E                                 i2u610_40 1F82  
                               i2u602_40 1EF8                                 i2u610_41 1F7E  
                               i2u602_41 1EF4                                 i2u611_40 1F94  
                               i2u603_40 1F10                                 i2u611_41 1F90  
                               i2u603_41 1F0C                                 _PIR2bits 0FA1  
                               i2u612_40 1FA2                                 i2u604_40 1F1E  
                               i2u612_41 1F9E                                 i2u604_41 1F1A  
                               i2u613_40 1FB4                                 i2u605_40 1F2C  
                               i2u613_41 1FB0                                 i2u605_41 1F28  
                               i2u614_40 1FC2                                 i2u606_40 1F3C  
                               i2u614_41 1FBE                                 i2u606_41 1F38  
                               i2u615_40 1FD4                                 i2u607_40 1F54  
                               i2u615_41 1FD0                                 i2u607_41 1F50  
                               i2u616_40 1FE2                                 i2u608_40 1F62  
                               i2u616_41 1FDE                                 i2u608_41 1F5E  
                               i2u617_40 1FF4                                 i2u609_40 1F74  
                               i2u617_41 1FF0                                 i2u609_41 1F70  
                               i2u490_40 2E3E                                 i2u618_40 2002  
                               i2u570_40 1CE2                                 i2u490_41 2E3A  
                               i2u618_41 1FFE                                 i2u570_41 1CDE  
                               i2u571_40 1CF4                                 i2u571_41 1CF0  
                               i2u580_40 1D86                                 i2u572_40 1D02  
                               i2u580_41 1D82                                 i2u572_41 1CFE  
                               i2u581_40 1D94                                 i2u573_40 1D14  
                               i2u581_41 1D90                                 i2u573_41 1D10  
                               i2u590_40 1E2C                                 i2u582_40 1DA4  
                               i2u574_40 1D22                                 i2u590_41 1E28  
                               i2u582_41 1DA0                                 i2u574_41 1D1E  
                               i2u487_40 2E22                                 i2u591_40 1E44  
                               i2u583_40 1DBC                                 i2u575_40 1D34  
                               i2u487_41 2E1E                                 i2u591_41 1E40  
                               i2u583_41 1DB8                                 i2u575_41 1D30  
                               i2u488_40 2E72                                 i2u592_40 1E52  
                               i2u584_40 1DCA                                 i2u576_40 1D42  
                               i2u488_41 2E6E                                 i2u592_41 1E4E  
                               i2u584_41 1DC6                                 i2u576_41 1D3E  
                               i2u489_40 2E58                                 i2u593_40 1E60  
                               i2u585_40 1DD8                                 i2u577_40 1D50  
                               i2u569_40 1CD4                                 i2u489_41 2E54  
                               i2u593_41 1E5C                                 i2u585_41 1DD4  
                               i2u577_41 1D4C                                 i2u569_41 1CD0  
                               i2u594_40 1E70                                 i2u586_40 1DE8  
                               i2u578_40 1D60                                 i2u594_41 1E6C  
                               i2u586_41 1DE4                                 i2u578_41 1D5C  
                               i2u595_40 1E88                                 i2u587_40 1E00  
                               i2u579_40 1D78                                 i2u595_41 1E84  
                               i2u587_41 1DFC                                 i2u579_41 1D74  
                               i2u596_40 1E96                                 i2u588_40 1E0E  
                               i2u596_41 1E92                                 i2u588_41 1E0A  
                               i2u597_40 1EA4                                 i2u589_40 1E1C  
                               i2u597_41 1EA0                                 i2u589_41 1E18  
                               i2u598_40 1EB4                                 i2u598_41 1EB0  
                               i2u599_40 1ECC                                 i2u599_41 1EC8  
                CCP_Interrupt_Config@ccp 0002                                 _TMR0_ISR 2E90  
                               _TMR1_ISR 2E84                                 _TMR2_ISR 2EB0  
                               _TMR3_ISR 2E78                               _ADCON0bits 0FC2  
                             _ADCON1bits 0FC1                               _ADCON2bits 0FC0  
                      ?_CCP_PWM_Set_Duty 005C                   gpio_pin_initialize@ret 000B  
                     ??_CCP_PWM_Set_Duty 005E                   ??_CCP_Interrupt_Config 0003  
                    __end_of_TIMER2_INIT 2C02                  gpio_pin_write_logic@ret 0009  
                            _INTCON2bits 0FF1                              _INTCON3bits 0FF0  
                              copy_data0 2C80                                copy_data1 2CA0  
                     _CCP_Capture_Config 24EC                relay_initialization@F3055 0073  
                             _EECON1bits 0FA6                      ?_CCP_Capture_Config 0002  
                               __Hrparam 0000                  _RB6_INTERRUPTHANDLERLOW 00D2  
                               __Lrparam 0000              __end_of_gpio_pin_initialize 2DA8  
                    _CCP_PWM_Config$4072 005F                      _CCP_PWM_Config$4073 0063  
         gpio_pin_initialize@_pin_config 000A                     ??_CCP_Capture_Config 0003  
                               ___xxtofl 200A                             _TMR1_HANDLER 00CA  
                            _customChar2 1029                              _customChar3 1021  
                            _customChar4 1019                              _customChar5 1011  
                            _customChar6 1009                              _customChar7 1001  
                           _TMR2_HANDLER 00C8                                 __ptext10 27A4  
                               __ptext11 21BE                                 __ptext12 200A  
                               __ptext21 2E78                                 __ptext13 28B6  
                               __ptext30 2EC2                                 __ptext22 2EB0  
                               __ptext14 1500                                 __ptext31 2EC6  
                               __ptext23 2E84                                 __ptext15 192A  
                               __ptext32 2ECA                                 __ptext24 2E90  
                               __ptext16 1040                                 __ptext33 2ECE  
                               __ptext25 2E2A                                 __ptext17 2DA8  
                               __ptext26 2E44                                 __ptext18 2668  
                               __ptext27 2E5E                                 __ptext19 24EC  
                               __ptext28 2E0E                                 __ptext29 2EBE  
                           _TMR3_HANDLER 00C6                       __end_of_customChar 1039  
                            CCP_Init@ccp 0068                                 isa$xinst 0000  
                               int$flags 007E                         TIMER2_INIT@timer 0002  
                            _TIMER2_INIT 2B80                               _INTCONbits 0FF2  
           __end_of_gpio_pin_write_logic 2AAC                                 intlevel2 0000  
               _RB5_INTERRUPTHANDLERHIGH 00D8                               _ISR_TIMER0 00CC  
                         _port_registers 0090                            ___fladd@signs 0035  
                           ___fladd@aexp 0036                             ___fladd@bexp 0037  
                      ?_InterruptMangaer 0001                           _led_initialize 2C02  
