

Microchip MPLAB XC8 Assembler V2.46 build 20240104201356 
                                                                                               Sun Jun 23 23:14:18 2024

Microchip MPLAB XC8 C Compiler v2.46 (Free license) build 20240104201356 Og1 
     1                           	processor	18F4620
     2                           	fnconf	rparam,??,?,0
     3                           	pagewidth 120
     4                           	opt	flic
     5                           	psect	idataCOMRAM,global,class=CODE,delta=1,noexec
     6                           	psect	nvCOMRAM,global,class=COMRAM,space=1,delta=1,lowdata,noexec
     7                           	psect	cinit,global,reloc=2,class=CODE,delta=1
     8                           	psect	bssCOMRAM,global,class=COMRAM,space=1,delta=1,lowdata,noexec
     9                           	psect	dataCOMRAM,global,class=COMRAM,space=1,delta=1,lowdata,noexec
    10                           	psect	cstackCOMRAM,global,class=COMRAM,space=1,delta=1,lowdata,noexec
    11                           	psect	text0,global,reloc=2,class=CODE,delta=1
    12                           	psect	text1,global,reloc=2,class=CODE,delta=1
    13                           	psect	text2,global,reloc=2,class=CODE,delta=1
    14                           	psect	text3,global,reloc=2,class=CODE,delta=1
    15                           	psect	text4,global,reloc=2,class=CODE,delta=1
    16                           	psect	text5,global,reloc=2,class=CODE,delta=1
    17                           	psect	text6,global,reloc=2,class=CODE,delta=1
    18                           	psect	text7,global,reloc=2,class=CODE,delta=1
    19                           	psect	text8,global,reloc=2,class=CODE,delta=1
    20                           	psect	text9,global,reloc=2,class=CODE,delta=1
    21                           	psect	text10,global,reloc=2,class=CODE,delta=1
    22                           	psect	smallconst,global,reloc=2,class=SMALLCONST,delta=1,noexec
    23                           	psect	intsave_regs,global,class=BIGRAM,space=1,delta=1,noexec
    24                           	psect	rparam,global,class=COMRAM,space=1,delta=1,noexec
    25                           	psect	config,global,abs,ovrld,class=CONFIG,space=4,delta=1,noexec
    26   000000                     
    27                           ; Generated 17/10/2023 GMT
    28                           ; 
    29                           ; Copyright © 2023, Microchip Technology Inc. and its subsidiaries ("Microchip")
    30                           ; All rights reserved.
    31                           ; 
    32                           ; This software is developed by Microchip Technology Inc. and its subsidiaries ("Microch
      +                          ip").
    33                           ; 
    34                           ; Redistribution and use in source and binary forms, with or without modification, are
    35                           ; permitted provided that the following conditions are met:
    36                           ; 
    37                           ;     1. Redistributions of source code must retain the above copyright notice, this lis
      +                          t of
    38                           ;        conditions and the following disclaimer.
    39                           ; 
    40                           ;     2. Redistributions in binary form must reproduce the above copyright notice, this 
      +                          list
    41                           ;        of conditions and the following disclaimer in the documentation and/or other
    42                           ;        materials provided with the distribution. Publication is not required when
    43                           ;        this file is used in an embedded application.
    44                           ; 
    45                           ;     3. Microchip's name may not be used to endorse or promote products derived from th
      +                          is
    46                           ;        software without specific prior written permission.
    47                           ; 
    48                           ; THIS SOFTWARE IS PROVIDED BY MICROCHIP "AS IS" AND ANY EXPRESS OR IMPLIED WARRANTIES,
    49                           ; INCLUDING, BUT NOT LIMITED TO, THE IMPLIED WARRANTIES OF MERCHANTABILITY AND FITNESS F
      +                          OR
    50                           ; PURPOSE ARE DISCLAIMED.  IN NO EVENT SHALL MICROCHIP BE LIABLE FOR ANY DIRECT, INDIREC
      +                          T,
    51                           ; INCIDENTAL, SPECIAL, EXEMPLARY, OR CONSEQUENTIAL DAMAGES (INCLUDING BUT NOT LIMITED TO
    52                           ; PROCUREMENT OF SUBSTITUTE GOODS OR SERVICES; LOSS OF USE, DATA OR PROFITS; OR BUSINESS
    53                           ; INTERRUPTION) HOWSOEVER CAUSED AND ON ANY THEORY OF LIABILITY, WHETHER IN CONTRACT, ST
      +                          RICT
    54                           ; LIABILITY, OR TORT (INCLUDING NEGLIGENCE OR OTHERWISE) ARISING IN ANY WAY OUT OF THE U
      +                          SE OF
    55                           ; THIS SOFTWARE, EVEN IF ADVISED OF THE POSSIBILITY OF SUCH DAMAGE.
    56                           ; 
    57                           ; 
    58                           ; Code-generator required, PIC18F4620 Definitions
    59                           ; 
    60                           ; SFR Addresses
    61   000000                     
    62                           	psect	idataCOMRAM
    63   00158A                     __pidataCOMRAM:
    64                           	callstack 0
    65                           
    66                           ;initializer for _port_registers
    67   00158A  80                 	db	128
    68   00158B  0F                 	db	15
    69   00158C  81                 	db	129
    70   00158D  0F                 	db	15
    71   00158E  82                 	db	130
    72   00158F  0F                 	db	15
    73   001590  83                 	db	131
    74   001591  0F                 	db	15
    75   001592  84                 	db	132
    76   001593  0F                 	db	15
    77                           
    78                           ;initializer for _lat_registers
    79   001594  89                 	db	137
    80   001595  0F                 	db	15
    81   001596  8A                 	db	138
    82   001597  0F                 	db	15
    83   001598  8B                 	db	139
    84   001599  0F                 	db	15
    85   00159A  8C                 	db	140
    86   00159B  0F                 	db	15
    87   00159C  8D                 	db	141
    88   00159D  0F                 	db	15
    89                           
    90                           ;initializer for _tris_registers
    91   00159E  92                 	db	146
    92   00159F  0F                 	db	15
    93   0015A0  93                 	db	147
    94   0015A1  0F                 	db	15
    95   0015A2  94                 	db	148
    96   0015A3  0F                 	db	15
    97   0015A4  95                 	db	149
    98   0015A5  0F                 	db	15
    99   0015A6  96                 	db	150
   100   0015A7  0F                 	db	15
   101                           
   102                           ;initializer for _btn2
   103   0015A8  43                 	db	67
   104   0015A9  01                 	db	1
   105   0015AA  01                 	db	1
   106                           
   107                           ;initializer for _btn1
   108   0015AB  52                 	db	82
   109   0015AC  01                 	db	1
   110   0015AD  00                 	db	0
   111                           
   112                           ;initializer for _led2
   113   0015AE  4A                 	db	74
   114                           
   115                           ;initializer for _led1
   116   0015AF  42                 	db	66
   117                           
   118                           	psect	nvCOMRAM
   119   000039                     __pnvCOMRAM:
   120                           	callstack 0
   121   000039                     _ret:
   122                           	callstack 0
   123   000039                     	ds	1
   124   000000                     _PORTE	set	3972
   125   000000                     _PORTD	set	3971
   126   000000                     _PORTC	set	3970
   127   000000                     _PORTB	set	3969
   128   000000                     _PORTA	set	3968
   129   000000                     _LATA	set	3977
   130   000000                     _TRISA	set	3986
   131   000000                     _TRISE	set	3990
   132   000000                     _TRISD	set	3989
   133   000000                     _TRISC	set	3988
   134   000000                     _TRISB	set	3987
   135   000000                     _LATE	set	3981
   136   000000                     _LATD	set	3980
   137   000000                     _LATC	set	3979
   138   000000                     _LATB	set	3978
   139                           
   140                           ; #config settings
   141                           
   142                           	psect	cinit
   143   00152E                     __pcinit:
   144                           	callstack 0
   145   00152E                     start_initialization:
   146                           	callstack 0
   147   00152E                     __initialization:
   148                           	callstack 0
   149                           
   150                           ; Initialize objects allocated to COMRAM (38 bytes)
   151                           ; load TBLPTR registers with __pidataCOMRAM
   152   00152E  0E8A               	movlw	low __pidataCOMRAM
   153   001530  6EF6               	movwf	tblptrl,c
   154   001532  0E15               	movlw	high __pidataCOMRAM
   155   001534  6EF7               	movwf	tblptrh,c
   156   001536  0E00               	movlw	low (__pidataCOMRAM shr (0+16))
   157   001538  6EF8               	movwf	tblptru,c
   158   00153A  EE00  F001         	lfsr	0,__pdataCOMRAM
   159   00153E  EE10 F026          	lfsr	1,38
   160   001542                     copy_data0:
   161   001542  0009               	tblrd		*+
   162   001544  CFF5 FFEE          	movff	tablat,postinc0
   163   001548  50E5               	movf	postdec1,w,c
   164   00154A  50E1               	movf	fsr1l,w,c
   165   00154C  E1FA               	bnz	copy_data0
   166                           
   167                           ; Clear objects allocated to COMRAM (4 bytes)
   168   00154E  6A38               	clrf	(__pbssCOMRAM+3)& (0+255),c
   169   001550  6A37               	clrf	(__pbssCOMRAM+2)& (0+255),c
   170   001552  6A36               	clrf	(__pbssCOMRAM+1)& (0+255),c
   171   001554  6A35               	clrf	__pbssCOMRAM& (0+255),c
   172   001556                     end_of_initialization:
   173                           	callstack 0
   174   001556                     __end_of__initialization:
   175                           	callstack 0
   176   001556  0E00               	movlw	low (__Lmediumconst shr (0+16))
   177   001558  6EF8               	movwf	tblptru,c
   178   00155A  0100               	movlb	0
   179   00155C  EF49  F009         	goto	_main	;jump to C main() function
   180                           
   181                           	psect	bssCOMRAM
   182   000035                     __pbssCOMRAM:
   183                           	callstack 0
   184   000035                     led_turn_toggle@F2910:
   185                           	callstack 0
   186   000035                     	ds	1
   187   000036                     led_turn_off@F2905:
   188                           	callstack 0
   189   000036                     	ds	1
   190   000037                     led_turn_on@F2900:
   191                           	callstack 0
   192   000037                     	ds	1
   193   000038                     led_initialize@F2895:
   194                           	callstack 0
   195   000038                     	ds	1
   196                           
   197                           	psect	dataCOMRAM
   198   000001                     __pdataCOMRAM:
   199                           	callstack 0
   200   000001                     _port_registers:
   201                           	callstack 0
   202   000001                     	ds	10
   203   00000B                     _lat_registers:
   204                           	callstack 0
   205   00000B                     	ds	10
   206   000015                     _tris_registers:
   207                           	callstack 0
   208   000015                     	ds	10
   209   00001F                     _btn2:
   210                           	callstack 0
   211   00001F                     	ds	3
   212   000022                     _btn1:
   213                           	callstack 0
   214   000022                     	ds	3
   215   000025                     _led2:
   216                           	callstack 0
   217   000025                     	ds	1
   218   000026                     _led1:
   219                           	callstack 0
   220   000026                     	ds	1
   221                           
   222                           	psect	cstackCOMRAM
   223   000027                     __pcstackCOMRAM:
   224                           	callstack 0
   225   000027                     gpio_pin_direction_intialize@_pin_config:
   226                           	callstack 0
   227   000027                     gpio_pin_write_logic@_pin_config:
   228                           	callstack 0
   229   000027                     gpio_pin_read_logic@_pin_config:
   230                           	callstack 0
   231                           
   232                           ; 1 bytes @ 0x0
   233   000027                     	ds	1
   234   000028                     ??_gpio_pin_direction_intialize:
   235   000028                     gpio_pin_write_logic@logic:
   236                           	callstack 0
   237   000028                     gpio_pin_read_logic@logic:
   238                           	callstack 0
   239                           
   240                           ; 1 bytes @ 0x1
   241   000028                     	ds	1
   242   000029                     ??_gpio_pin_write_logic:
   243   000029                     ??_gpio_pin_read_logic:
   244                           
   245                           ; 1 bytes @ 0x2
   246   000029                     	ds	4
   247   00002D                     gpio_pin_direction_intialize@ret:
   248                           	callstack 0
   249   00002D                     button_read_state@btn:
   250                           	callstack 0
   251                           
   252                           ; 1 bytes @ 0x6
   253   00002D                     	ds	1
   254   00002E                     led_turn_on@led:
   255                           	callstack 0
   256   00002E                     led_turn_off@led:
   257                           	callstack 0
   258   00002E                     gpio_pin_initialize@_pin_config:
   259                           	callstack 0
   260   00002E                     button_initialize@btn:
   261                           	callstack 0
   262   00002E                     button_read_state@btn_state:
   263                           	callstack 0
   264                           
   265                           ; 1 bytes @ 0x7
   266   00002E                     	ds	1
   267   00002F                     ??_led_turn_on:
   268   00002F                     ??_led_turn_off:
   269   00002F                     led_initialize@led:
   270                           	callstack 0
   271   00002F                     button_initialize@ret:
   272                           	callstack 0
   273                           
   274                           ; 1 bytes @ 0x8
   275   00002F                     	ds	1
   276   000030                     ??_led_initialize:
   277   000030                     led_turn_on@ret:
   278                           	callstack 0
   279   000030                     led_turn_off@ret:
   280                           	callstack 0
   281   000030                     button_read_state@pin_logic:
   282                           	callstack 0
   283                           
   284                           ; 1 bytes @ 0x9
   285   000030                     	ds	1
   286   000031                     led_initialize@ret:
   287                           	callstack 0
   288   000031                     led_turn_on@pin_obj:
   289                           	callstack 0
   290   000031                     led_turn_off@pin_obj:
   291                           	callstack 0
   292                           
   293                           ; 1 bytes @ 0xA
   294   000031                     	ds	1
   295   000032                     led_initialize@pin_obj:
   296                           	callstack 0
   297                           
   298                           ; 1 bytes @ 0xB
   299   000032                     	ds	1
   300   000033                     ??_main:
   301                           
   302                           ; 1 bytes @ 0xC
   303   000033                     	ds	2
   304                           
   305 ;;
   306 ;;Main: autosize = 0, tempsize = 2, incstack = 0, save=0
   307 ;;
   308 ;; *************** function _main *****************
   309 ;; Defined at:
   310 ;;		line 19 in file "application.c"
   311 ;; Parameters:    Size  Location     Type
   312 ;;		None
   313 ;; Auto vars:     Size  Location     Type
   314 ;;		None
   315 ;; Return value:  Size  Location     Type
   316 ;;                  2  173[None  ] int 
   317 ;; Registers used:
   318 ;;		wreg, fsr1l, fsr1h, fsr2l, fsr2h, status,2, status,0, prodl, prodh, cstack
   319 ;; Tracked objects:
   320 ;;		On entry : 0/0
   321 ;;		On exit  : 0/0
   322 ;;		Unchanged: 0/0
   323 ;; Data sizes:     COMRAM   BANK0   BANK1   BANK2   BANK3   BANK4   BANK5   BANK6   BANK7   BANK8   BANK9  BANK10  BANK1
      +1  BANK12  BANK13  BANK14  BANK15
   324 ;;      Params:         0       0       0       0       0       0       0       0       0       0       0       0       
      +0       0       0       0       0
   325 ;;      Locals:         0       0       0       0       0       0       0       0       0       0       0       0       
      +0       0       0       0       0
   326 ;;      Temps:          2       0       0       0       0       0       0       0       0       0       0       0       
      +0       0       0       0       0
   327 ;;      Totals:         2       0       0       0       0       0       0       0       0       0       0       0       
      +0       0       0       0       0
   328 ;;Total ram usage:        2 bytes
   329 ;; Hardware stack levels required when called: 4
   330 ;; This function calls:
   331 ;;		_application_initialize
   332 ;;		_button_read_state
   333 ;;		_led_turn_off
   334 ;;		_led_turn_on
   335 ;; This function is called by:
   336 ;;		Startup code after reset
   337 ;; This function uses a non-reentrant model
   338 ;;
   339                           
   340                           	psect	text0
   341   001292                     __ptext0:
   342                           	callstack 0
   343   001292                     _main:
   344                           	callstack 27
   345   001292                     
   346                           ;application.c: 20:     application_initialize();
   347   001292  ECB0  F00A         	call	_application_initialize	;wreg free
   348   001296                     l1274:
   349                           
   350                           ;application.c: 22:         button_read_state(&btn1,&(btn1.button_state));
   351   001296  0E22               	movlw	low _btn1
   352   001298  6E2D               	movwf	button_read_state@btn^0,c
   353   00129A  0E23               	movlw	low (_btn1+1)
   354   00129C  6E2E               	movwf	button_read_state@btn_state^0,c
   355   00129E  ECFD  F008         	call	_button_read_state	;wreg free
   356   0012A2                     
   357                           ;application.c: 23:         button_read_state(&btn2,&(btn2.button_state));
   358   0012A2  0E1F               	movlw	low _btn2
   359   0012A4  6E2D               	movwf	button_read_state@btn^0,c
   360   0012A6  0E20               	movlw	low (_btn2+1)
   361   0012A8  6E2E               	movwf	button_read_state@btn_state^0,c
   362   0012AA  ECFD  F008         	call	_button_read_state	;wreg free
   363   0012AE                     
   364                           ;application.c: 24:         if(btn1.button_state == BUTTON_PRESSED){
   365   0012AE  5023               	movf	(_btn1+1)^0,w,c
   366   0012B0  A4D8               	btfss	status,2,c
   367   0012B2  EF5D  F009         	goto	u651
   368   0012B6  EF5F  F009         	goto	u650
   369   0012BA                     u651:
   370   0012BA  EF66  F009         	goto	l1282
   371   0012BE                     u650:
   372   0012BE                     
   373                           ;application.c: 25:             ret = led_turn_on(&led1);
   374   0012BE  0E26               	movlw	low _led1
   375   0012C0  6E2E               	movwf	led_turn_on@led^0,c
   376   0012C2  ECCB  F009         	call	_led_turn_on	;wreg free
   377   0012C6  6E39               	movwf	_ret^0,c
   378                           
   379                           ;application.c: 26:         }
   380   0012C8  EF6B  F009         	goto	l1284
   381   0012CC                     l1282:
   382                           
   383                           ;application.c: 28:             ret = led_turn_off(&led1);
   384   0012CC  0E26               	movlw	low _led1
   385   0012CE  6E2E               	movwf	led_turn_off@led^0,c
   386   0012D0  EC07  F00A         	call	_led_turn_off	;wreg free
   387   0012D4  6E39               	movwf	_ret^0,c
   388   0012D6                     l1284:
   389                           
   390                           ;application.c: 30:         if(btn2.button_state == BUTTON_PRESSED){
   391   0012D6  5020               	movf	(_btn2+1)^0,w,c
   392   0012D8  A4D8               	btfss	status,2,c
   393   0012DA  EF71  F009         	goto	u661
   394   0012DE  EF73  F009         	goto	u660
   395   0012E2                     u661:
   396   0012E2  EF7A  F009         	goto	l1288
   397   0012E6                     u660:
   398   0012E6                     
   399                           ;application.c: 31:             ret = led_turn_off(&led2);
   400   0012E6  0E25               	movlw	low _led2
   401   0012E8  6E2E               	movwf	led_turn_off@led^0,c
   402   0012EA  EC07  F00A         	call	_led_turn_off	;wreg free
   403   0012EE  6E39               	movwf	_ret^0,c
   404                           
   405                           ;application.c: 32:         }
   406   0012F0  EF7F  F009         	goto	l1290
   407   0012F4                     l1288:
   408                           
   409                           ;application.c: 34:             ret = led_turn_on(&led2);
   410   0012F4  0E25               	movlw	low _led2
   411   0012F6  6E2E               	movwf	led_turn_on@led^0,c
   412   0012F8  ECCB  F009         	call	_led_turn_on	;wreg free
   413   0012FC  6E39               	movwf	_ret^0,c
   414   0012FE                     l1290:
   415                           
   416                           ;application.c: 37:         _delay((unsigned long)((500)*(4000000/4000.0)));
   417   0012FE  0E03               	movlw	3
   418   001300  6E34               	movwf	(??_main+1)^0,c
   419   001302  0E8A               	movlw	138
   420   001304  6E33               	movwf	??_main^0,c
   421   001306  0E56               	movlw	86
   422   001308                     u677:
   423   001308  2EE8               	decfsz	wreg,f,c
   424   00130A  D7FE               	bra	u677
   425   00130C  2E33               	decfsz	??_main^0,f,c
   426   00130E  D7FC               	bra	u677
   427   001310  2E34               	decfsz	(??_main+1)^0,f,c
   428   001312  D7FA               	bra	u677
   429   001314  EF4B  F009         	goto	l1274
   430   001318  EF00  F000         	goto	start
   431   00131C                     __end_of_main:
   432                           	callstack 0
   433                           
   434 ;; *************** function _led_turn_on *****************
   435 ;; Defined at:
   436 ;;		line 30 in file "ECU_Layer/LED/ecu_led.c"
   437 ;; Parameters:    Size  Location     Type
   438 ;;  led             1    7[COMRAM] PTR const struct .
   439 ;;		 -> led2(1), led1(1), 
   440 ;; Auto vars:     Size  Location     Type
   441 ;;  pin_obj         1   10[COMRAM] struct .
   442 ;;  ret             1    9[COMRAM] unsigned char 
   443 ;; Return value:  Size  Location     Type
   444 ;;                  1    wreg      unsigned char 
   445 ;; Registers used:
   446 ;;		wreg, fsr2l, fsr2h, status,2, status,0, prodl, prodh, cstack
   447 ;; Tracked objects:
   448 ;;		On entry : 0/0
   449 ;;		On exit  : 0/0
   450 ;;		Unchanged: 0/0
   451 ;; Data sizes:     COMRAM   BANK0   BANK1   BANK2   BANK3   BANK4   BANK5   BANK6   BANK7   BANK8   BANK9  BANK10  BANK1
      +1  BANK12  BANK13  BANK14  BANK15
   452 ;;      Params:         1       0       0       0       0       0       0       0       0       0       0       0       
      +0       0       0       0       0
   453 ;;      Locals:         2       0       0       0       0       0       0       0       0       0       0       0       
      +0       0       0       0       0
   454 ;;      Temps:          1       0       0       0       0       0       0       0       0       0       0       0       
      +0       0       0       0       0
   455 ;;      Totals:         4       0       0       0       0       0       0       0       0       0       0       0       
      +0       0       0       0       0
   456 ;;Total ram usage:        4 bytes
   457 ;; Hardware stack levels used: 1
   458 ;; Hardware stack levels required when called: 1
   459 ;; This function calls:
   460 ;;		_gpio_pin_write_logic
   461 ;; This function is called by:
   462 ;;		_main
   463 ;; This function uses a non-reentrant model
   464 ;;
   465                           
   466                           	psect	text1
   467   001396                     __ptext1:
   468                           	callstack 0
   469   001396                     _led_turn_on:
   470                           	callstack 29
   471   001396                     
   472                           ;ECU_Layer/LED/ecu_led.c: 31:     std_ReturnType ret = (std_ReturnType)0x01;
   473   001396  0E01               	movlw	1
   474   001398  6E30               	movwf	led_turn_on@ret^0,c
   475                           
   476                           ;ECU_Layer/LED/ecu_led.c: 32:     if(led == ((void*)0)){
   477   00139A  502E               	movf	led_turn_on@led^0,w,c
   478   00139C  A4D8               	btfss	status,2,c
   479   00139E  EFD3  F009         	goto	u561
   480   0013A2  EFD5  F009         	goto	u560
   481   0013A6                     u561:
   482   0013A6  EFD9  F009         	goto	l16
   483   0013AA                     u560:
   484   0013AA                     
   485                           ;ECU_Layer/LED/ecu_led.c: 33:         ret = (std_ReturnType)0x00;
   486   0013AA  0E00               	movlw	0
   487   0013AC  6E30               	movwf	led_turn_on@ret^0,c
   488                           
   489                           ;ECU_Layer/LED/ecu_led.c: 34:     }
   490   0013AE  EF05  F00A         	goto	l1224
   491   0013B2                     l16:
   492                           
   493                           ;ECU_Layer/LED/ecu_led.c: 36:         pin_config_t pin_obj = {.port = led->port_name, .p
      +                          in = led->pin_name,
   494   0013B2  C037  F031         	movff	led_turn_on@F2900,led_turn_on@pin_obj
   495   0013B6  502E               	movf	led_turn_on@led^0,w,c
   496   0013B8  6ED9               	movwf	fsr2l,c
   497   0013BA  6ADA               	clrf	fsr2h,c
   498   0013BC  50DF               	movf	223,w,c
   499   0013BE  0B07               	andlw	7
   500   0013C0  6E2F               	movwf	??_led_turn_on^0,c
   501   0013C2  5031               	movf	led_turn_on@pin_obj^0,w,c
   502   0013C4  182F               	xorwf	??_led_turn_on^0,w,c
   503   0013C6  0BF8               	andlw	-8
   504   0013C8  182F               	xorwf	??_led_turn_on^0,w,c
   505   0013CA  6E31               	movwf	led_turn_on@pin_obj^0,c
   506   0013CC  502E               	movf	led_turn_on@led^0,w,c
   507   0013CE  6ED9               	movwf	fsr2l,c
   508   0013D0  6ADA               	clrf	fsr2h,c
   509   0013D2  30DF               	rrcf	223,w,c
   510   0013D4  32E8               	rrcf	wreg,f,c
   511   0013D6  32E8               	rrcf	wreg,f,c
   512   0013D8  0B07               	andlw	7
   513   0013DA  6E2F               	movwf	??_led_turn_on^0,c
   514   0013DC  462F               	rlncf	??_led_turn_on^0,f,c
   515   0013DE  462F               	rlncf	??_led_turn_on^0,f,c
   516   0013E0  462F               	rlncf	??_led_turn_on^0,f,c
   517   0013E2  5031               	movf	led_turn_on@pin_obj^0,w,c
   518   0013E4  182F               	xorwf	??_led_turn_on^0,w,c
   519   0013E6  0BC7               	andlw	-57
   520   0013E8  182F               	xorwf	??_led_turn_on^0,w,c
   521   0013EA  6E31               	movwf	led_turn_on@pin_obj^0,c
   522   0013EC  9C31               	bcf	led_turn_on@pin_obj^0,6,c
   523   0013EE  502E               	movf	led_turn_on@led^0,w,c
   524   0013F0  6ED9               	movwf	fsr2l,c
   525   0013F2  6ADA               	clrf	fsr2h,c
   526   0013F4  ACDF               	btfss	indf2,6,c
   527   0013F6  D002               	bra	u575
   528   0013F8  8E31               	bsf	led_turn_on@pin_obj^0,7,c
   529   0013FA  D001               	bra	u577
   530   0013FC                     u575:
   531   0013FC  9E31               	bcf	led_turn_on@pin_obj^0,7,c
   532   0013FE                     u577:
   533   0013FE                     
   534                           ;ECU_Layer/LED/ecu_led.c: 38:         gpio_pin_write_logic(&pin_obj,GPIO_HIGH);
   535   0013FE  0E31               	movlw	low led_turn_on@pin_obj
   536   001400  6E27               	movwf	gpio_pin_write_logic@_pin_config^0,c
   537   001402  0E01               	movlw	1
   538   001404  6E28               	movwf	gpio_pin_write_logic@logic^0,c
   539   001406  EC8A  F008         	call	_gpio_pin_write_logic	;wreg free
   540   00140A                     l1224:
   541                           
   542                           ;ECU_Layer/LED/ecu_led.c: 40:     return ret;
   543   00140A  5030               	movf	led_turn_on@ret^0,w,c
   544   00140C  0012               	return		;funcret
   545   00140E                     __end_of_led_turn_on:
   546                           	callstack 0
   547                           
   548 ;; *************** function _led_turn_off *****************
   549 ;; Defined at:
   550 ;;		line 42 in file "ECU_Layer/LED/ecu_led.c"
   551 ;; Parameters:    Size  Location     Type
   552 ;;  led             1    7[COMRAM] PTR const struct .
   553 ;;		 -> led2(1), led1(1), 
   554 ;; Auto vars:     Size  Location     Type
   555 ;;  pin_obj         1   10[COMRAM] struct .
   556 ;;  ret             1    9[COMRAM] unsigned char 
   557 ;; Return value:  Size  Location     Type
   558 ;;                  1    wreg      unsigned char 
   559 ;; Registers used:
   560 ;;		wreg, fsr2l, fsr2h, status,2, status,0, prodl, prodh, cstack
   561 ;; Tracked objects:
   562 ;;		On entry : 0/0
   563 ;;		On exit  : 0/0
   564 ;;		Unchanged: 0/0
   565 ;; Data sizes:     COMRAM   BANK0   BANK1   BANK2   BANK3   BANK4   BANK5   BANK6   BANK7   BANK8   BANK9  BANK10  BANK1
      +1  BANK12  BANK13  BANK14  BANK15
   566 ;;      Params:         1       0       0       0       0       0       0       0       0       0       0       0       
      +0       0       0       0       0
   567 ;;      Locals:         2       0       0       0       0       0       0       0       0       0       0       0       
      +0       0       0       0       0
   568 ;;      Temps:          1       0       0       0       0       0       0       0       0       0       0       0       
      +0       0       0       0       0
   569 ;;      Totals:         4       0       0       0       0       0       0       0       0       0       0       0       
      +0       0       0       0       0
   570 ;;Total ram usage:        4 bytes
   571 ;; Hardware stack levels used: 1
   572 ;; Hardware stack levels required when called: 1
   573 ;; This function calls:
   574 ;;		_gpio_pin_write_logic
   575 ;; This function is called by:
   576 ;;		_main
   577 ;; This function uses a non-reentrant model
   578 ;;
   579                           
   580                           	psect	text2
   581   00140E                     __ptext2:
   582                           	callstack 0
   583   00140E                     _led_turn_off:
   584                           	callstack 29
   585   00140E                     
   586                           ;ECU_Layer/LED/ecu_led.c: 43:     std_ReturnType ret = (std_ReturnType)0x01;
   587   00140E  0E01               	movlw	1
   588   001410  6E30               	movwf	led_turn_off@ret^0,c
   589                           
   590                           ;ECU_Layer/LED/ecu_led.c: 44:     if(led == ((void*)0)){
   591   001412  502E               	movf	led_turn_off@led^0,w,c
   592   001414  A4D8               	btfss	status,2,c
   593   001416  EF0F  F00A         	goto	u581
   594   00141A  EF11  F00A         	goto	u580
   595   00141E                     u581:
   596   00141E  EF15  F00A         	goto	l23
   597   001422                     u580:
   598   001422                     
   599                           ;ECU_Layer/LED/ecu_led.c: 45:         ret = (std_ReturnType)0x00;
   600   001422  0E00               	movlw	0
   601   001424  6E30               	movwf	led_turn_off@ret^0,c
   602                           
   603                           ;ECU_Layer/LED/ecu_led.c: 46:     }
   604   001426  EF41  F00A         	goto	l1240
   605   00142A                     l23:
   606                           
   607                           ;ECU_Layer/LED/ecu_led.c: 48:         pin_config_t pin_obj = {.port = led->port_name, .p
      +                          in = led->pin_name,
   608   00142A  C036  F031         	movff	led_turn_off@F2905,led_turn_off@pin_obj
   609   00142E  502E               	movf	led_turn_off@led^0,w,c
   610   001430  6ED9               	movwf	fsr2l,c
   611   001432  6ADA               	clrf	fsr2h,c
   612   001434  50DF               	movf	223,w,c
   613   001436  0B07               	andlw	7
   614   001438  6E2F               	movwf	??_led_turn_off^0,c
   615   00143A  5031               	movf	led_turn_off@pin_obj^0,w,c
   616   00143C  182F               	xorwf	??_led_turn_off^0,w,c
   617   00143E  0BF8               	andlw	-8
   618   001440  182F               	xorwf	??_led_turn_off^0,w,c
   619   001442  6E31               	movwf	led_turn_off@pin_obj^0,c
   620   001444  502E               	movf	led_turn_off@led^0,w,c
   621   001446  6ED9               	movwf	fsr2l,c
   622   001448  6ADA               	clrf	fsr2h,c
   623   00144A  30DF               	rrcf	223,w,c
   624   00144C  32E8               	rrcf	wreg,f,c
   625   00144E  32E8               	rrcf	wreg,f,c
   626   001450  0B07               	andlw	7
   627   001452  6E2F               	movwf	??_led_turn_off^0,c
   628   001454  462F               	rlncf	??_led_turn_off^0,f,c
   629   001456  462F               	rlncf	??_led_turn_off^0,f,c
   630   001458  462F               	rlncf	??_led_turn_off^0,f,c
   631   00145A  5031               	movf	led_turn_off@pin_obj^0,w,c
   632   00145C  182F               	xorwf	??_led_turn_off^0,w,c
   633   00145E  0BC7               	andlw	-57
   634   001460  182F               	xorwf	??_led_turn_off^0,w,c
   635   001462  6E31               	movwf	led_turn_off@pin_obj^0,c
   636   001464  9C31               	bcf	led_turn_off@pin_obj^0,6,c
   637   001466  502E               	movf	led_turn_off@led^0,w,c
   638   001468  6ED9               	movwf	fsr2l,c
   639   00146A  6ADA               	clrf	fsr2h,c
   640   00146C  ACDF               	btfss	indf2,6,c
   641   00146E  D002               	bra	u595
   642   001470  8E31               	bsf	led_turn_off@pin_obj^0,7,c
   643   001472  D001               	bra	u597
   644   001474                     u595:
   645   001474  9E31               	bcf	led_turn_off@pin_obj^0,7,c
   646   001476                     u597:
   647   001476                     
   648                           ;ECU_Layer/LED/ecu_led.c: 50:         gpio_pin_write_logic(&pin_obj,GPIO_LOW);
   649   001476  0E31               	movlw	low led_turn_off@pin_obj
   650   001478  6E27               	movwf	gpio_pin_write_logic@_pin_config^0,c
   651   00147A  0E00               	movlw	0
   652   00147C  6E28               	movwf	gpio_pin_write_logic@logic^0,c
   653   00147E  EC8A  F008         	call	_gpio_pin_write_logic	;wreg free
   654   001482                     l1240:
   655                           
   656                           ;ECU_Layer/LED/ecu_led.c: 52:     return ret;
   657   001482  5030               	movf	led_turn_off@ret^0,w,c
   658   001484  0012               	return		;funcret
   659   001486                     __end_of_led_turn_off:
   660                           	callstack 0
   661                           
   662 ;; *************** function _button_read_state *****************
   663 ;; Defined at:
   664 ;;		line 19 in file "ECU_Layer/button/ecu_button.c"
   665 ;; Parameters:    Size  Location     Type
   666 ;;  btn             1    6[COMRAM] PTR const struct .
   667 ;;		 -> btn2(3), btn1(3), 
   668 ;;  btn_state       1    7[COMRAM] PTR enum E2874
   669 ;;		 -> btn2(3), btn1(3), 
   670 ;; Auto vars:     Size  Location     Type
   671 ;;  pin_logic       1    9[COMRAM] enum E2814
   672 ;;  ret             1    0        unsigned char 
   673 ;; Return value:  Size  Location     Type
   674 ;;                  1    wreg      unsigned char 
   675 ;; Registers used:
   676 ;;		wreg, fsr1l, fsr1h, fsr2l, fsr2h, status,2, status,0, prodl, prodh, cstack
   677 ;; Tracked objects:
   678 ;;		On entry : 0/0
   679 ;;		On exit  : 0/0
   680 ;;		Unchanged: 0/0
   681 ;; Data sizes:     COMRAM   BANK0   BANK1   BANK2   BANK3   BANK4   BANK5   BANK6   BANK7   BANK8   BANK9  BANK10  BANK1
      +1  BANK12  BANK13  BANK14  BANK15
   682 ;;      Params:         2       0       0       0       0       0       0       0       0       0       0       0       
      +0       0       0       0       0
   683 ;;      Locals:         1       0       0       0       0       0       0       0       0       0       0       0       
      +0       0       0       0       0
   684 ;;      Temps:          1       0       0       0       0       0       0       0       0       0       0       0       
      +0       0       0       0       0
   685 ;;      Totals:         4       0       0       0       0       0       0       0       0       0       0       0       
      +0       0       0       0       0
   686 ;;Total ram usage:        4 bytes
   687 ;; Hardware stack levels used: 1
   688 ;; Hardware stack levels required when called: 1
   689 ;; This function calls:
   690 ;;		_gpio_pin_read_logic
   691 ;; This function is called by:
   692 ;;		_main
   693 ;; This function uses a non-reentrant model
   694 ;;
   695                           
   696                           	psect	text3
   697   0011FA                     __ptext3:
   698                           	callstack 0
   699   0011FA                     _button_read_state:
   700                           	callstack 29
   701   0011FA                     
   702                           ;ECU_Layer/button/ecu_button.c: 21:     logic_t pin_logic = GPIO_LOW;
   703   0011FA  0E00               	movlw	0
   704   0011FC  6E30               	movwf	button_read_state@pin_logic^0,c
   705                           
   706                           ;ECU_Layer/button/ecu_button.c: 22:     if(btn == ((void*)0)){
   707   0011FE  502D               	movf	button_read_state@btn^0,w,c
   708   001200  A4D8               	btfss	status,2,c
   709   001202  EF05  F009         	goto	u601
   710   001206  EF07  F009         	goto	u600
   711   00120A                     u601:
   712   00120A  EF09  F009         	goto	l1250
   713   00120E                     u600:
   714   00120E                     
   715                           ;ECU_Layer/button/ecu_button.c: 24:     }
   716   00120E  EF48  F009         	goto	l206
   717   001212                     l1250:
   718                           
   719                           ;ECU_Layer/button/ecu_button.c: 26:         gpio_pin_read_logic(&(btn->pin),&pin_logic);
   720   001212  C02D  F027         	movff	button_read_state@btn,gpio_pin_read_logic@_pin_config
   721   001216  0E30               	movlw	low button_read_state@pin_logic
   722   001218  6E28               	movwf	gpio_pin_read_logic@logic^0,c
   723   00121A  EC8E  F009         	call	_gpio_pin_read_logic	;wreg free
   724   00121E                     
   725                           ;ECU_Layer/button/ecu_button.c: 27:         if(btn->connection == BUTTON_ACTIVE_HIGH){
   726   00121E  502D               	movf	button_read_state@btn^0,w,c
   727   001220  6ED9               	movwf	fsr2l,c
   728   001222  6ADA               	clrf	fsr2h,c
   729   001224  0E02               	movlw	2
   730   001226  26D9               	addwf	fsr2l,f,c
   731   001228  50DF               	movf	indf2,w,c
   732   00122A  A4D8               	btfss	status,2,c
   733   00122C  EF1A  F009         	goto	u611
   734   001230  EF1C  F009         	goto	u610
   735   001234                     u611:
   736   001234  EF31  F009         	goto	l1260
   737   001238                     u610:
   738   001238                     
   739                           ;ECU_Layer/button/ecu_button.c: 28:             if(pin_logic == GPIO_HIGH){
   740   001238  0430               	decf	button_read_state@pin_logic^0,w,c
   741   00123A  A4D8               	btfss	status,2,c
   742   00123C  EF22  F009         	goto	u621
   743   001240  EF24  F009         	goto	u620
   744   001244                     u621:
   745   001244  EF2A  F009         	goto	l1258
   746   001248                     u620:
   747   001248                     l1256:
   748                           
   749                           ;ECU_Layer/button/ecu_button.c: 29:                 *btn_state = BUTTON_PRESSED;
   750   001248  502E               	movf	button_read_state@btn_state^0,w,c
   751   00124A  6ED9               	movwf	fsr2l,c
   752   00124C  6ADA               	clrf	fsr2h,c
   753   00124E  6ADF               	clrf	indf2,c
   754                           
   755                           ;ECU_Layer/button/ecu_button.c: 30:             }
   756   001250  EF48  F009         	goto	l1268
   757   001254                     l1258:
   758                           
   759                           ;ECU_Layer/button/ecu_button.c: 32:                 *btn_state = BUTTON_RELEASED;
   760   001254  502E               	movf	button_read_state@btn_state^0,w,c
   761   001256  6ED9               	movwf	fsr2l,c
   762   001258  6ADA               	clrf	fsr2h,c
   763   00125A  0E01               	movlw	1
   764   00125C  6EDF               	movwf	indf2,c
   765   00125E  EF48  F009         	goto	l1268
   766   001262                     l1260:
   767   001262  502D               	movf	button_read_state@btn^0,w,c
   768   001264  6ED9               	movwf	fsr2l,c
   769   001266  6ADA               	clrf	fsr2h,c
   770   001268  0E02               	movlw	2
   771   00126A  26D9               	addwf	fsr2l,f,c
   772   00126C  04DE               	decf	postinc2,w,c
   773   00126E  A4D8               	btfss	status,2,c
   774   001270  EF3C  F009         	goto	u631
   775   001274  EF3E  F009         	goto	u630
   776   001278                     u631:
   777   001278  EF48  F009         	goto	l1268
   778   00127C                     u630:
   779   00127C                     
   780                           ;ECU_Layer/button/ecu_button.c: 36:             if(pin_logic == GPIO_HIGH){
   781   00127C  0430               	decf	button_read_state@pin_logic^0,w,c
   782   00127E  A4D8               	btfss	status,2,c
   783   001280  EF44  F009         	goto	u641
   784   001284  EF46  F009         	goto	u640
   785   001288                     u641:
   786   001288  EF24  F009         	goto	l1256
   787   00128C                     u640:
   788   00128C  EF2A  F009         	goto	l1258
   789   001290                     l1268:
   790   001290                     l206:
   791   001290  0012               	return		;funcret
   792   001292                     __end_of_button_read_state:
   793                           	callstack 0
   794                           
   795 ;; *************** function _gpio_pin_read_logic *****************
   796 ;; Defined at:
   797 ;;		line 97 in file "MCAL_Layer/GPIO/hal_gpio.c"
   798 ;; Parameters:    Size  Location     Type
   799 ;;  _pin_config     1    0[COMRAM] PTR const struct .
   800 ;;		 -> btn2(3), btn1(3), 
   801 ;;  logic           1    1[COMRAM] PTR enum E2814
   802 ;;		 -> button_read_state@pin_logic(1), 
   803 ;; Auto vars:     Size  Location     Type
   804 ;;  ret             1    0        unsigned char 
   805 ;; Return value:  Size  Location     Type
   806 ;;                  1    wreg      unsigned char 
   807 ;; Registers used:
   808 ;;		wreg, fsr1l, fsr1h, fsr2l, fsr2h, status,2, status,0, prodl, prodh
   809 ;; Tracked objects:
   810 ;;		On entry : 0/0
   811 ;;		On exit  : 0/0
   812 ;;		Unchanged: 0/0
   813 ;; Data sizes:     COMRAM   BANK0   BANK1   BANK2   BANK3   BANK4   BANK5   BANK6   BANK7   BANK8   BANK9  BANK10  BANK1
      +1  BANK12  BANK13  BANK14  BANK15
   814 ;;      Params:         2       0       0       0       0       0       0       0       0       0       0       0       
      +0       0       0       0       0
   815 ;;      Locals:         0       0       0       0       0       0       0       0       0       0       0       0       
      +0       0       0       0       0
   816 ;;      Temps:          4       0       0       0       0       0       0       0       0       0       0       0       
      +0       0       0       0       0
   817 ;;      Totals:         6       0       0       0       0       0       0       0       0       0       0       0       
      +0       0       0       0       0
   818 ;;Total ram usage:        6 bytes
   819 ;; Hardware stack levels used: 1
   820 ;; This function calls:
   821 ;;		Nothing
   822 ;; This function is called by:
   823 ;;		_button_read_state
   824 ;; This function uses a non-reentrant model
   825 ;;
   826                           
   827                           	psect	text4
   828   00131C                     __ptext4:
   829                           	callstack 0
   830   00131C                     _gpio_pin_read_logic:
   831                           	callstack 29
   832   00131C                     
   833                           ;MCAL_Layer/GPIO/hal_gpio.c: 99:     if(((void*)0) == _pin_config || ((void*)0) == logic
      +                          ){
   834   00131C  5027               	movf	gpio_pin_read_logic@_pin_config^0,w,c
   835   00131E  B4D8               	btfsc	status,2,c
   836   001320  EF94  F009         	goto	u521
   837   001324  EF96  F009         	goto	u520
   838   001328                     u521:
   839   001328  EF9E  F009         	goto	l1196
   840   00132C                     u520:
   841   00132C  5028               	movf	gpio_pin_read_logic@logic^0,w,c
   842   00132E  A4D8               	btfss	status,2,c
   843   001330  EF9C  F009         	goto	u531
   844   001334  EF9E  F009         	goto	u530
   845   001338                     u531:
   846   001338  EFA0  F009         	goto	l1198
   847   00133C                     u530:
   848   00133C                     l1196:
   849                           
   850                           ;MCAL_Layer/GPIO/hal_gpio.c: 101:     }
   851   00133C  EFCA  F009         	goto	l106
   852   001340                     l1198:
   853                           
   854                           ;MCAL_Layer/GPIO/hal_gpio.c: 103:         *logic = ((*port_registers[_pin_config->port] 
      +                          >> _pin_config->pin) & (uint8)1);
   855   001340  5028               	movf	gpio_pin_read_logic@logic^0,w,c
   856   001342  6ED9               	movwf	fsr2l,c
   857   001344  6ADA               	clrf	fsr2h,c
   858   001346  5027               	movf	gpio_pin_read_logic@_pin_config^0,w,c
   859   001348  6EE1               	movwf	fsr1l,c
   860   00134A  6AE2               	clrf	fsr1h,c
   861   00134C  30E7               	rrcf	231,w,c
   862   00134E  32E8               	rrcf	wreg,f,c
   863   001350  32E8               	rrcf	wreg,f,c
   864   001352  0B07               	andlw	7
   865   001354  6E29               	movwf	??_gpio_pin_read_logic^0,c
   866   001356  5027               	movf	gpio_pin_read_logic@_pin_config^0,w,c
   867   001358  6EE1               	movwf	fsr1l,c
   868   00135A  6AE2               	clrf	fsr1h,c
   869   00135C  50E7               	movf	231,w,c
   870   00135E  0B07               	andlw	7
   871   001360  0D02               	mullw	2
   872   001362  50F3               	movf	243,w,c
   873   001364  0F01               	addlw	low _port_registers
   874   001366  6EE1               	movwf	fsr1l,c
   875   001368  6AE2               	clrf	fsr1h,c
   876   00136A  CFE6 F02A          	movff	postinc1,??_gpio_pin_read_logic+1
   877   00136E  CFE5 F02B          	movff	postdec1,??_gpio_pin_read_logic+2
   878   001372  C02A  FFE1         	movff	??_gpio_pin_read_logic+1,fsr1l
   879   001376  C02B  FFE2         	movff	??_gpio_pin_read_logic+2,fsr1h
   880   00137A  50E7               	movf	indf1,w,c
   881   00137C  6E2C               	movwf	(??_gpio_pin_read_logic+3)^0,c
   882   00137E  2A29               	incf	??_gpio_pin_read_logic^0,f,c
   883   001380  EFC4  F009         	goto	u544
   884   001384                     u545:
   885   001384  90D8               	bcf	status,0,c
   886   001386  322C               	rrcf	(??_gpio_pin_read_logic+3)^0,f,c
   887   001388                     u544:
   888   001388  2E29               	decfsz	??_gpio_pin_read_logic^0,f,c
   889   00138A  EFC2  F009         	goto	u545
   890   00138E  502C               	movf	(??_gpio_pin_read_logic+3)^0,w,c
   891   001390  0B01               	andlw	1
   892   001392  6EDF               	movwf	indf2,c
   893   001394                     l106:
   894   001394  0012               	return		;funcret
   895   001396                     __end_of_gpio_pin_read_logic:
   896                           	callstack 0
   897                           
   898 ;; *************** function _application_initialize *****************
   899 ;; Defined at:
   900 ;;		line 41 in file "application.c"
   901 ;; Parameters:    Size  Location     Type
   902 ;;		None
   903 ;; Auto vars:     Size  Location     Type
   904 ;;		None
   905 ;; Return value:  Size  Location     Type
   906 ;;                  1    wreg      void 
   907 ;; Registers used:
   908 ;;		wreg, fsr2l, fsr2h, status,2, status,0, prodl, prodh, cstack
   909 ;; Tracked objects:
   910 ;;		On entry : 0/0
   911 ;;		On exit  : 0/0
   912 ;;		Unchanged: 0/0
   913 ;; Data sizes:     COMRAM   BANK0   BANK1   BANK2   BANK3   BANK4   BANK5   BANK6   BANK7   BANK8   BANK9  BANK10  BANK1
      +1  BANK12  BANK13  BANK14  BANK15
   914 ;;      Params:         0       0       0       0       0       0       0       0       0       0       0       0       
      +0       0       0       0       0
   915 ;;      Locals:         0       0       0       0       0       0       0       0       0       0       0       0       
      +0       0       0       0       0
   916 ;;      Temps:          0       0       0       0       0       0       0       0       0       0       0       0       
      +0       0       0       0       0
   917 ;;      Totals:         0       0       0       0       0       0       0       0       0       0       0       0       
      +0       0       0       0       0
   918 ;;Total ram usage:        0 bytes
   919 ;; Hardware stack levels used: 1
   920 ;; Hardware stack levels required when called: 3
   921 ;; This function calls:
   922 ;;		_button_initialize
   923 ;;		_led_initialize
   924 ;; This function is called by:
   925 ;;		_main
   926 ;; This function uses a non-reentrant model
   927 ;;
   928                           
   929                           	psect	text5
   930   001560                     __ptext5:
   931                           	callstack 0
   932   001560                     _application_initialize:
   933                           	callstack 27
   934   001560                     
   935                           ;application.c: 42:     ret = led_initialize(&led1);
   936   001560  0E26               	movlw	low _led1
   937   001562  6E2F               	movwf	led_initialize@led^0,c
   938   001564  EC43  F00A         	call	_led_initialize	;wreg free
   939   001568  6E39               	movwf	_ret^0,c
   940                           
   941                           ;application.c: 43:     ret = led_initialize(&led2);
   942   00156A  0E25               	movlw	low _led2
   943   00156C  6E2F               	movwf	led_initialize@led^0,c
   944   00156E  EC43  F00A         	call	_led_initialize	;wreg free
   945   001572  6E39               	movwf	_ret^0,c
   946                           
   947                           ;application.c: 44:     ret = button_initialize(&btn1);
   948   001574  0E22               	movlw	low _btn1
   949   001576  6E2E               	movwf	button_initialize@btn^0,c
   950   001578  ECD8  F00A         	call	_button_initialize	;wreg free
   951   00157C  6E39               	movwf	_ret^0,c
   952                           
   953                           ;application.c: 45:     ret = button_initialize(&btn2);
   954   00157E  0E1F               	movlw	low _btn2
   955   001580  6E2E               	movwf	button_initialize@btn^0,c
   956   001582  ECD8  F00A         	call	_button_initialize	;wreg free
   957   001586  6E39               	movwf	_ret^0,c
   958   001588  0012               	return		;funcret
   959   00158A                     __end_of_application_initialize:
   960                           	callstack 0
   961                           
   962 ;; *************** function _led_initialize *****************
   963 ;; Defined at:
   964 ;;		line 13 in file "ECU_Layer/LED/ecu_led.c"
   965 ;; Parameters:    Size  Location     Type
   966 ;;  led             1    8[COMRAM] PTR const struct .
   967 ;;		 -> led2(1), led1(1), 
   968 ;; Auto vars:     Size  Location     Type
   969 ;;  pin_obj         1   11[COMRAM] struct .
   970 ;;  ret             1   10[COMRAM] unsigned char 
   971 ;; Return value:  Size  Location     Type
   972 ;;                  1    wreg      unsigned char 
   973 ;; Registers used:
   974 ;;		wreg, fsr2l, fsr2h, status,2, status,0, prodl, prodh, cstack
   975 ;; Tracked objects:
   976 ;;		On entry : 0/0
   977 ;;		On exit  : 0/0
   978 ;;		Unchanged: 0/0
   979 ;; Data sizes:     COMRAM   BANK0   BANK1   BANK2   BANK3   BANK4   BANK5   BANK6   BANK7   BANK8   BANK9  BANK10  BANK1
      +1  BANK12  BANK13  BANK14  BANK15
   980 ;;      Params:         1       0       0       0       0       0       0       0       0       0       0       0       
      +0       0       0       0       0
   981 ;;      Locals:         2       0       0       0       0       0       0       0       0       0       0       0       
      +0       0       0       0       0
   982 ;;      Temps:          1       0       0       0       0       0       0       0       0       0       0       0       
      +0       0       0       0       0
   983 ;;      Totals:         4       0       0       0       0       0       0       0       0       0       0       0       
      +0       0       0       0       0
   984 ;;Total ram usage:        4 bytes
   985 ;; Hardware stack levels used: 1
   986 ;; Hardware stack levels required when called: 2
   987 ;; This function calls:
   988 ;;		_gpio_pin_initialize
   989 ;; This function is called by:
   990 ;;		_application_initialize
   991 ;; This function uses a non-reentrant model
   992 ;;
   993                           
   994                           	psect	text6
   995   001486                     __ptext6:
   996                           	callstack 0
   997   001486                     _led_initialize:
   998                           	callstack 27
   999   001486                     
  1000                           ;ECU_Layer/LED/ecu_led.c: 14:     std_ReturnType ret = (std_ReturnType)0x01;
  1001   001486  0E01               	movlw	1
  1002   001488  6E31               	movwf	led_initialize@ret^0,c
  1003                           
  1004                           ;ECU_Layer/LED/ecu_led.c: 15:     if(led == ((void*)0)){
  1005   00148A  502F               	movf	led_initialize@led^0,w,c
  1006   00148C  A4D8               	btfss	status,2,c
  1007   00148E  EF4B  F00A         	goto	u501
  1008   001492  EF4D  F00A         	goto	u500
  1009   001496                     u501:
  1010   001496  EF51  F00A         	goto	l9
  1011   00149A                     u500:
  1012   00149A                     
  1013                           ;ECU_Layer/LED/ecu_led.c: 16:         ret = (std_ReturnType)0x00;
  1014   00149A  0E00               	movlw	0
  1015   00149C  6E31               	movwf	led_initialize@ret^0,c
  1016                           
  1017                           ;ECU_Layer/LED/ecu_led.c: 17:     }
  1018   00149E  EF7B  F00A         	goto	l1188
  1019   0014A2                     l9:
  1020                           
  1021                           ;ECU_Layer/LED/ecu_led.c: 19:         pin_config_t pin_obj = {.port = led->port_name, .p
      +                          in = led->pin_name,
  1022   0014A2  C038  F032         	movff	led_initialize@F2895,led_initialize@pin_obj
  1023   0014A6  502F               	movf	led_initialize@led^0,w,c
  1024   0014A8  6ED9               	movwf	fsr2l,c
  1025   0014AA  6ADA               	clrf	fsr2h,c
  1026   0014AC  50DF               	movf	223,w,c
  1027   0014AE  0B07               	andlw	7
  1028   0014B0  6E30               	movwf	??_led_initialize^0,c
  1029   0014B2  5032               	movf	led_initialize@pin_obj^0,w,c
  1030   0014B4  1830               	xorwf	??_led_initialize^0,w,c
  1031   0014B6  0BF8               	andlw	-8
  1032   0014B8  1830               	xorwf	??_led_initialize^0,w,c
  1033   0014BA  6E32               	movwf	led_initialize@pin_obj^0,c
  1034   0014BC  502F               	movf	led_initialize@led^0,w,c
  1035   0014BE  6ED9               	movwf	fsr2l,c
  1036   0014C0  6ADA               	clrf	fsr2h,c
  1037   0014C2  30DF               	rrcf	223,w,c
  1038   0014C4  32E8               	rrcf	wreg,f,c
  1039   0014C6  32E8               	rrcf	wreg,f,c
  1040   0014C8  0B07               	andlw	7
  1041   0014CA  6E30               	movwf	??_led_initialize^0,c
  1042   0014CC  4630               	rlncf	??_led_initialize^0,f,c
  1043   0014CE  4630               	rlncf	??_led_initialize^0,f,c
  1044   0014D0  4630               	rlncf	??_led_initialize^0,f,c
  1045   0014D2  5032               	movf	led_initialize@pin_obj^0,w,c
  1046   0014D4  1830               	xorwf	??_led_initialize^0,w,c
  1047   0014D6  0BC7               	andlw	-57
  1048   0014D8  1830               	xorwf	??_led_initialize^0,w,c
  1049   0014DA  6E32               	movwf	led_initialize@pin_obj^0,c
  1050   0014DC  9C32               	bcf	led_initialize@pin_obj^0,6,c
  1051   0014DE  502F               	movf	led_initialize@led^0,w,c
  1052   0014E0  6ED9               	movwf	fsr2l,c
  1053   0014E2  6ADA               	clrf	fsr2h,c
  1054   0014E4  ACDF               	btfss	indf2,6,c
  1055   0014E6  D002               	bra	u515
  1056   0014E8  8E32               	bsf	led_initialize@pin_obj^0,7,c
  1057   0014EA  D001               	bra	u517
  1058   0014EC                     u515:
  1059   0014EC  9E32               	bcf	led_initialize@pin_obj^0,7,c
  1060   0014EE                     u517:
  1061   0014EE                     
  1062                           ;ECU_Layer/LED/ecu_led.c: 21:         gpio_pin_initialize(&pin_obj);
  1063   0014EE  0E32               	movlw	low led_initialize@pin_obj
  1064   0014F0  6E2E               	movwf	gpio_pin_initialize@_pin_config^0,c
  1065   0014F2  EC7D  F00A         	call	_gpio_pin_initialize	;wreg free
  1066   0014F6                     l1188:
  1067                           
  1068                           ;ECU_Layer/LED/ecu_led.c: 23:     return ret;
  1069   0014F6  5031               	movf	led_initialize@ret^0,w,c
  1070   0014F8  0012               	return		;funcret
  1071   0014FA                     __end_of_led_initialize:
  1072                           	callstack 0
  1073                           
  1074 ;; *************** function _gpio_pin_initialize *****************
  1075 ;; Defined at:
  1076 ;;		line 134 in file "MCAL_Layer/GPIO/hal_gpio.c"
  1077 ;; Parameters:    Size  Location     Type
  1078 ;;  _pin_config     1    7[COMRAM] PTR const struct .
  1079 ;;		 -> led_initialize@pin_obj(1), 
  1080 ;; Auto vars:     Size  Location     Type
  1081 ;;  ret             1    0        unsigned char 
  1082 ;; Return value:  Size  Location     Type
  1083 ;;                  1    wreg      unsigned char 
  1084 ;; Registers used:
  1085 ;;		wreg, fsr2l, fsr2h, status,2, status,0, prodl, prodh, cstack
  1086 ;; Tracked objects:
  1087 ;;		On entry : 0/0
  1088 ;;		On exit  : 0/0
  1089 ;;		Unchanged: 0/0
  1090 ;; Data sizes:     COMRAM   BANK0   BANK1   BANK2   BANK3   BANK4   BANK5   BANK6   BANK7   BANK8   BANK9  BANK10  BANK1
      +1  BANK12  BANK13  BANK14  BANK15
  1091 ;;      Params:         1       0       0       0       0       0       0       0       0       0       0       0       
      +0       0       0       0       0
  1092 ;;      Locals:         0       0       0       0       0       0       0       0       0       0       0       0       
      +0       0       0       0       0
  1093 ;;      Temps:          0       0       0       0       0       0       0       0       0       0       0       0       
      +0       0       0       0       0
  1094 ;;      Totals:         1       0       0       0       0       0       0       0       0       0       0       0       
      +0       0       0       0       0
  1095 ;;Total ram usage:        1 bytes
  1096 ;; Hardware stack levels used: 1
  1097 ;; Hardware stack levels required when called: 1
  1098 ;; This function calls:
  1099 ;;		_gpio_pin_direction_intialize
  1100 ;;		_gpio_pin_write_logic
  1101 ;; This function is called by:
  1102 ;;		_led_initialize
  1103 ;; This function uses a non-reentrant model
  1104 ;;
  1105                           
  1106                           	psect	text7
  1107   0014FA                     __ptext7:
  1108                           	callstack 0
  1109   0014FA                     _gpio_pin_initialize:
  1110                           	callstack 27
  1111   0014FA                     
  1112                           ;MCAL_Layer/GPIO/hal_gpio.c: 136:     if(((void*)0) == _pin_config ){
  1113   0014FA  502E               	movf	gpio_pin_initialize@_pin_config^0,w,c
  1114   0014FC  A4D8               	btfss	status,2,c
  1115   0014FE  EF83  F00A         	goto	u491
  1116   001502  EF85  F00A         	goto	u490
  1117   001506                     u491:
  1118   001506  EF87  F00A         	goto	l1172
  1119   00150A                     u490:
  1120   00150A                     
  1121                           ;MCAL_Layer/GPIO/hal_gpio.c: 138:     }
  1122   00150A  EF96  F00A         	goto	l116
  1123   00150E                     l1172:
  1124                           
  1125                           ;MCAL_Layer/GPIO/hal_gpio.c: 140:         gpio_pin_direction_intialize(_pin_config);
  1126   00150E  C02E  F027         	movff	gpio_pin_initialize@_pin_config,gpio_pin_direction_intialize@_pin_config
  1127   001512  EC01  F008         	call	_gpio_pin_direction_intialize	;wreg free
  1128                           
  1129                           ;MCAL_Layer/GPIO/hal_gpio.c: 141:         gpio_pin_write_logic(_pin_config,_pin_config->
      +                          logic);
  1130   001516  C02E  F027         	movff	gpio_pin_initialize@_pin_config,gpio_pin_write_logic@_pin_config
  1131   00151A  502E               	movf	gpio_pin_initialize@_pin_config^0,w,c
  1132   00151C  6ED9               	movwf	fsr2l,c
  1133   00151E  6ADA               	clrf	fsr2h,c
  1134   001520  0E00               	movlw	0
  1135   001522  BEDF               	btfsc	indf2,7,c
  1136   001524  0E01               	movlw	1
  1137   001526  6E28               	movwf	gpio_pin_write_logic@logic^0,c
  1138   001528  EC8A  F008         	call	_gpio_pin_write_logic	;wreg free
  1139   00152C                     l116:
  1140   00152C  0012               	return		;funcret
  1141   00152E                     __end_of_gpio_pin_initialize:
  1142                           	callstack 0
  1143                           
  1144 ;; *************** function _gpio_pin_write_logic *****************
  1145 ;; Defined at:
  1146 ;;		line 68 in file "MCAL_Layer/GPIO/hal_gpio.c"
  1147 ;; Parameters:    Size  Location     Type
  1148 ;;  _pin_config     1    0[COMRAM] PTR const struct .
  1149 ;;		 -> led_turn_off@pin_obj(1), led_turn_on@pin_obj(1), led_initialize@pin_obj(1), 
  1150 ;;  logic           1    1[COMRAM] enum E2814
  1151 ;; Auto vars:     Size  Location     Type
  1152 ;;  ret             1    0        unsigned char 
  1153 ;; Return value:  Size  Location     Type
  1154 ;;                  1    wreg      unsigned char 
  1155 ;; Registers used:
  1156 ;;		wreg, fsr2l, fsr2h, status,2, status,0, prodl, prodh
  1157 ;; Tracked objects:
  1158 ;;		On entry : 0/0
  1159 ;;		On exit  : 0/0
  1160 ;;		Unchanged: 0/0
  1161 ;; Data sizes:     COMRAM   BANK0   BANK1   BANK2   BANK3   BANK4   BANK5   BANK6   BANK7   BANK8   BANK9  BANK10  BANK1
      +1  BANK12  BANK13  BANK14  BANK15
  1162 ;;      Params:         2       0       0       0       0       0       0       0       0       0       0       0       
      +0       0       0       0       0
  1163 ;;      Locals:         0       0       0       0       0       0       0       0       0       0       0       0       
      +0       0       0       0       0
  1164 ;;      Temps:          5       0       0       0       0       0       0       0       0       0       0       0       
      +0       0       0       0       0
  1165 ;;      Totals:         7       0       0       0       0       0       0       0       0       0       0       0       
      +0       0       0       0       0
  1166 ;;Total ram usage:        7 bytes
  1167 ;; Hardware stack levels used: 1
  1168 ;; This function calls:
  1169 ;;		Nothing
  1170 ;; This function is called by:
  1171 ;;		_led_turn_on
  1172 ;;		_led_turn_off
  1173 ;;		_gpio_pin_initialize
  1174 ;; This function uses a non-reentrant model
  1175 ;;
  1176                           
  1177                           	psect	text8
  1178   001114                     __ptext8:
  1179                           	callstack 0
  1180   001114                     _gpio_pin_write_logic:
  1181                           	callstack 29
  1182   001114                     
  1183                           ;MCAL_Layer/GPIO/hal_gpio.c: 70:     if(((void*)0) == _pin_config){
  1184   001114  5027               	movf	gpio_pin_write_logic@_pin_config^0,w,c
  1185   001116  A4D8               	btfss	status,2,c
  1186   001118  EF90  F008         	goto	u411
  1187   00111C  EF92  F008         	goto	u410
  1188   001120                     u411:
  1189   001120  EFE7  F008         	goto	l1144
  1190   001124                     u410:
  1191   001124                     
  1192                           ;MCAL_Layer/GPIO/hal_gpio.c: 72:     }
  1193   001124  EFFC  F008         	goto	l99
  1194   001128                     l1138:
  1195                           
  1196                           ;MCAL_Layer/GPIO/hal_gpio.c: 76:                 (*lat_registers[_pin_config->port] &= ~
      +                          ((uint8)1<<_pin_config->pin));
  1197   001128  5027               	movf	gpio_pin_write_logic@_pin_config^0,w,c
  1198   00112A  6ED9               	movwf	fsr2l,c
  1199   00112C  6ADA               	clrf	fsr2h,c
  1200   00112E  30DF               	rrcf	223,w,c
  1201   001130  32E8               	rrcf	wreg,f,c
  1202   001132  32E8               	rrcf	wreg,f,c
  1203   001134  0B07               	andlw	7
  1204   001136  6E29               	movwf	??_gpio_pin_write_logic^0,c
  1205   001138  0E01               	movlw	1
  1206   00113A  6E2A               	movwf	(??_gpio_pin_write_logic+1)^0,c
  1207   00113C  2A29               	incf	??_gpio_pin_write_logic^0,f,c
  1208   00113E  EFA3  F008         	goto	u424
  1209   001142                     u425:
  1210   001142  90D8               	bcf	status,0,c
  1211   001144  362A               	rlcf	(??_gpio_pin_write_logic+1)^0,f,c
  1212   001146                     u424:
  1213   001146  2E29               	decfsz	??_gpio_pin_write_logic^0,f,c
  1214   001148  EFA1  F008         	goto	u425
  1215   00114C  502A               	movf	(??_gpio_pin_write_logic+1)^0,w,c
  1216   00114E  0AFF               	xorlw	255
  1217   001150  6E2B               	movwf	(??_gpio_pin_write_logic+2)^0,c
  1218   001152  5027               	movf	gpio_pin_write_logic@_pin_config^0,w,c
  1219   001154  6ED9               	movwf	fsr2l,c
  1220   001156  6ADA               	clrf	fsr2h,c
  1221   001158  50DF               	movf	223,w,c
  1222   00115A  0B07               	andlw	7
  1223   00115C  0D02               	mullw	2
  1224   00115E  50F3               	movf	243,w,c
  1225   001160  0F0B               	addlw	low _lat_registers
  1226   001162  6ED9               	movwf	fsr2l,c
  1227   001164  6ADA               	clrf	fsr2h,c
  1228   001166  CFDE F02C          	movff	postinc2,??_gpio_pin_write_logic+3
  1229   00116A  CFDD F02D          	movff	postdec2,??_gpio_pin_write_logic+4
  1230   00116E  C02C  FFD9         	movff	??_gpio_pin_write_logic+3,fsr2l
  1231   001172  C02D  FFDA         	movff	??_gpio_pin_write_logic+4,fsr2h
  1232   001176  502B               	movf	(??_gpio_pin_write_logic+2)^0,w,c
  1233   001178  16DF               	andwf	indf2,f,c
  1234                           
  1235                           ;MCAL_Layer/GPIO/hal_gpio.c: 77:                 break;
  1236   00117A  EFFC  F008         	goto	l99
  1237   00117E                     l1140:
  1238                           
  1239                           ;MCAL_Layer/GPIO/hal_gpio.c: 79:                 (*lat_registers[_pin_config->port] |= (
      +                          (uint8)1<<_pin_config->pin));
  1240   00117E  5027               	movf	gpio_pin_write_logic@_pin_config^0,w,c
  1241   001180  6ED9               	movwf	fsr2l,c
  1242   001182  6ADA               	clrf	fsr2h,c
  1243   001184  30DF               	rrcf	223,w,c
  1244   001186  32E8               	rrcf	wreg,f,c
  1245   001188  32E8               	rrcf	wreg,f,c
  1246   00118A  0B07               	andlw	7
  1247   00118C  6E29               	movwf	??_gpio_pin_write_logic^0,c
  1248   00118E  0E01               	movlw	1
  1249   001190  6E2A               	movwf	(??_gpio_pin_write_logic+1)^0,c
  1250   001192  2A29               	incf	??_gpio_pin_write_logic^0,f,c
  1251   001194  EFCE  F008         	goto	u434
  1252   001198                     u435:
  1253   001198  90D8               	bcf	status,0,c
  1254   00119A  362A               	rlcf	(??_gpio_pin_write_logic+1)^0,f,c
  1255   00119C                     u434:
  1256   00119C  2E29               	decfsz	??_gpio_pin_write_logic^0,f,c
  1257   00119E  EFCC  F008         	goto	u435
  1258   0011A2  5027               	movf	gpio_pin_write_logic@_pin_config^0,w,c
  1259   0011A4  6ED9               	movwf	fsr2l,c
  1260   0011A6  6ADA               	clrf	fsr2h,c
  1261   0011A8  50DF               	movf	223,w,c
  1262   0011AA  0B07               	andlw	7
  1263   0011AC  0D02               	mullw	2
  1264   0011AE  50F3               	movf	243,w,c
  1265   0011B0  0F0B               	addlw	low _lat_registers
  1266   0011B2  6ED9               	movwf	fsr2l,c
  1267   0011B4  6ADA               	clrf	fsr2h,c
  1268   0011B6  CFDE F02B          	movff	postinc2,??_gpio_pin_write_logic+2
  1269   0011BA  CFDD F02C          	movff	postdec2,??_gpio_pin_write_logic+3
  1270   0011BE  C02B  FFD9         	movff	??_gpio_pin_write_logic+2,fsr2l
  1271   0011C2  C02C  FFDA         	movff	??_gpio_pin_write_logic+3,fsr2h
  1272   0011C6  502A               	movf	(??_gpio_pin_write_logic+1)^0,w,c
  1273   0011C8  12DF               	iorwf	indf2,f,c
  1274                           
  1275                           ;MCAL_Layer/GPIO/hal_gpio.c: 80:                 break;
  1276   0011CA  EFFC  F008         	goto	l99
  1277   0011CE                     l1144:
  1278   0011CE  5028               	movf	gpio_pin_write_logic@logic^0,w,c
  1279   0011D0  6E29               	movwf	??_gpio_pin_write_logic^0,c
  1280   0011D2  6A2A               	clrf	(??_gpio_pin_write_logic+1)^0,c
  1281                           
  1282                           ; Switch on 2 bytes has been partitioned into a top level switch of size 1, and 1 sub-sw
      +                          itches
  1283                           ; Switch size 1, requested type "simple"
  1284                           ; Number of cases is 1, Range of values is 0 to 0
  1285                           ; switch strategies available:
  1286                           ; Name         Instructions Cycles
  1287                           ; simple_byte            4     3 (average)
  1288                           ;	Chosen strategy is simple_byte
  1289   0011D4  502A               	movf	(??_gpio_pin_write_logic+1)^0,w,c
  1290   0011D6  0A00               	xorlw	0	; case 0
  1291   0011D8  B4D8               	btfsc	status,2,c
  1292   0011DA  EFF1  F008         	goto	l1296
  1293   0011DE  EFFC  F008         	goto	l99
  1294   0011E2                     l1296:
  1295                           
  1296                           ; Switch size 1, requested type "simple"
  1297                           ; Number of cases is 2, Range of values is 0 to 1
  1298                           ; switch strategies available:
  1299                           ; Name         Instructions Cycles
  1300                           ; simple_byte            7     4 (average)
  1301                           ;	Chosen strategy is simple_byte
  1302   0011E2  5029               	movf	??_gpio_pin_write_logic^0,w,c
  1303   0011E4  0A00               	xorlw	0	; case 0
  1304   0011E6  B4D8               	btfsc	status,2,c
  1305   0011E8  EF94  F008         	goto	l1138
  1306   0011EC  0A01               	xorlw	1	; case 1
  1307   0011EE  B4D8               	btfsc	status,2,c
  1308   0011F0  EFBF  F008         	goto	l1140
  1309   0011F4  EFFC  F008         	goto	l99
  1310   0011F8                     l99:
  1311   0011F8  0012               	return		;funcret
  1312   0011FA                     __end_of_gpio_pin_write_logic:
  1313                           	callstack 0
  1314                           
  1315 ;; *************** function _button_initialize *****************
  1316 ;; Defined at:
  1317 ;;		line 8 in file "ECU_Layer/button/ecu_button.c"
  1318 ;; Parameters:    Size  Location     Type
  1319 ;;  btn             1    7[COMRAM] PTR const struct .
  1320 ;;		 -> btn2(3), btn1(3), 
  1321 ;; Auto vars:     Size  Location     Type
  1322 ;;  ret             1    8[COMRAM] unsigned char 
  1323 ;; Return value:  Size  Location     Type
  1324 ;;                  1    wreg      unsigned char 
  1325 ;; Registers used:
  1326 ;;		wreg, fsr2l, fsr2h, status,2, status,0, prodl, prodh, cstack
  1327 ;; Tracked objects:
  1328 ;;		On entry : 0/0
  1329 ;;		On exit  : 0/0
  1330 ;;		Unchanged: 0/0
  1331 ;; Data sizes:     COMRAM   BANK0   BANK1   BANK2   BANK3   BANK4   BANK5   BANK6   BANK7   BANK8   BANK9  BANK10  BANK1
      +1  BANK12  BANK13  BANK14  BANK15
  1332 ;;      Params:         1       0       0       0       0       0       0       0       0       0       0       0       
      +0       0       0       0       0
  1333 ;;      Locals:         1       0       0       0       0       0       0       0       0       0       0       0       
      +0       0       0       0       0
  1334 ;;      Temps:          0       0       0       0       0       0       0       0       0       0       0       0       
      +0       0       0       0       0
  1335 ;;      Totals:         2       0       0       0       0       0       0       0       0       0       0       0       
      +0       0       0       0       0
  1336 ;;Total ram usage:        2 bytes
  1337 ;; Hardware stack levels used: 1
  1338 ;; Hardware stack levels required when called: 1
  1339 ;; This function calls:
  1340 ;;		_gpio_pin_direction_intialize
  1341 ;; This function is called by:
  1342 ;;		_application_initialize
  1343 ;; This function uses a non-reentrant model
  1344 ;;
  1345                           
  1346                           	psect	text9
  1347   0015B0                     __ptext9:
  1348                           	callstack 0
  1349   0015B0                     _button_initialize:
  1350                           	callstack 28
  1351   0015B0                     
  1352                           ;ECU_Layer/button/ecu_button.c: 11:     if(btn == ((void*)0)){
  1353   0015B0  502E               	movf	button_initialize@btn^0,w,c
  1354   0015B2  A4D8               	btfss	status,2,c
  1355   0015B4  EFDE  F00A         	goto	u551
  1356   0015B8  EFE0  F00A         	goto	u550
  1357   0015BC                     u551:
  1358   0015BC  EFE4  F00A         	goto	l1206
  1359   0015C0                     u550:
  1360   0015C0                     
  1361                           ;ECU_Layer/button/ecu_button.c: 12:         ret = (std_ReturnType)0x00;
  1362   0015C0  0E00               	movlw	0
  1363   0015C2  6E2F               	movwf	button_initialize@ret^0,c
  1364                           
  1365                           ;ECU_Layer/button/ecu_button.c: 13:     }
  1366   0015C4  EFE9  F00A         	goto	l1208
  1367   0015C8                     l1206:
  1368                           
  1369                           ;ECU_Layer/button/ecu_button.c: 15:         ret = gpio_pin_direction_intialize(&(btn->pi
      +                          n));
  1370   0015C8  C02E  F027         	movff	button_initialize@btn,gpio_pin_direction_intialize@_pin_config
  1371   0015CC  EC01  F008         	call	_gpio_pin_direction_intialize	;wreg free
  1372   0015D0  6E2F               	movwf	button_initialize@ret^0,c
  1373   0015D2                     l1208:
  1374                           
  1375                           ;ECU_Layer/button/ecu_button.c: 17:     return ret;
  1376   0015D2  502F               	movf	button_initialize@ret^0,w,c
  1377   0015D4  0012               	return		;funcret
  1378   0015D6                     __end_of_button_initialize:
  1379                           	callstack 0
  1380                           
  1381 ;; *************** function _gpio_pin_direction_intialize *****************
  1382 ;; Defined at:
  1383 ;;		line 21 in file "MCAL_Layer/GPIO/hal_gpio.c"
  1384 ;; Parameters:    Size  Location     Type
  1385 ;;  _pin_config     1    0[COMRAM] PTR const struct .
  1386 ;;		 -> btn2(3), btn1(3), led_initialize@pin_obj(1), 
  1387 ;; Auto vars:     Size  Location     Type
  1388 ;;  ret             1    6[COMRAM] unsigned char 
  1389 ;; Return value:  Size  Location     Type
  1390 ;;                  1    wreg      unsigned char 
  1391 ;; Registers used:
  1392 ;;		wreg, fsr2l, fsr2h, status,2, status,0, prodl, prodh
  1393 ;; Tracked objects:
  1394 ;;		On entry : 0/0
  1395 ;;		On exit  : 0/0
  1396 ;;		Unchanged: 0/0
  1397 ;; Data sizes:     COMRAM   BANK0   BANK1   BANK2   BANK3   BANK4   BANK5   BANK6   BANK7   BANK8   BANK9  BANK10  BANK1
      +1  BANK12  BANK13  BANK14  BANK15
  1398 ;;      Params:         1       0       0       0       0       0       0       0       0       0       0       0       
      +0       0       0       0       0
  1399 ;;      Locals:         1       0       0       0       0       0       0       0       0       0       0       0       
      +0       0       0       0       0
  1400 ;;      Temps:          5       0       0       0       0       0       0       0       0       0       0       0       
      +0       0       0       0       0
  1401 ;;      Totals:         7       0       0       0       0       0       0       0       0       0       0       0       
      +0       0       0       0       0
  1402 ;;Total ram usage:        7 bytes
  1403 ;; Hardware stack levels used: 1
  1404 ;; This function calls:
  1405 ;;		Nothing
  1406 ;; This function is called by:
  1407 ;;		_gpio_pin_initialize
  1408 ;;		_button_initialize
  1409 ;; This function uses a non-reentrant model
  1410 ;;
  1411                           
  1412                           	psect	text10
  1413   001002                     __ptext10:
  1414                           	callstack 0
  1415   001002                     _gpio_pin_direction_intialize:
  1416                           	callstack 27
  1417   001002                     
  1418                           ;MCAL_Layer/GPIO/hal_gpio.c: 22:     std_ReturnType ret = (std_ReturnType)0x01;
  1419   001002  0E01               	movlw	1
  1420   001004  6E2D               	movwf	gpio_pin_direction_intialize@ret^0,c
  1421                           
  1422                           ;MCAL_Layer/GPIO/hal_gpio.c: 23:     if(((void*)0) == _pin_config || _pin_config->pin > 
      +                          8 - 1){
  1423   001006  5027               	movf	gpio_pin_direction_intialize@_pin_config^0,w,c
  1424   001008  B4D8               	btfsc	status,2,c
  1425   00100A  EF09  F008         	goto	u441
  1426   00100E  EF0B  F008         	goto	u440
  1427   001012                     u441:
  1428   001012  EF1B  F008         	goto	l1154
  1429   001016                     u440:
  1430   001016  5027               	movf	gpio_pin_direction_intialize@_pin_config^0,w,c
  1431   001018  6ED9               	movwf	fsr2l,c
  1432   00101A  6ADA               	clrf	fsr2h,c
  1433   00101C  30DF               	rrcf	223,w,c
  1434   00101E  32E8               	rrcf	wreg,f,c
  1435   001020  32E8               	rrcf	wreg,f,c
  1436   001022  0B07               	andlw	7
  1437   001024  6E28               	movwf	??_gpio_pin_direction_intialize^0,c
  1438   001026  0E07               	movlw	7
  1439   001028  6428               	cpfsgt	??_gpio_pin_direction_intialize^0,c
  1440   00102A  EF19  F008         	goto	u451
  1441   00102E  EF1B  F008         	goto	u450
  1442   001032                     u451:
  1443   001032  EF72  F008         	goto	l1162
  1444   001036                     u450:
  1445   001036                     l1154:
  1446                           
  1447                           ;MCAL_Layer/GPIO/hal_gpio.c: 24:         ret = (std_ReturnType)0x00;
  1448   001036  0E00               	movlw	0
  1449   001038  6E2D               	movwf	gpio_pin_direction_intialize@ret^0,c
  1450                           
  1451                           ;MCAL_Layer/GPIO/hal_gpio.c: 25:     }
  1452   00103A  EF88  F008         	goto	l1164
  1453   00103E                     l1156:
  1454                           
  1455                           ;MCAL_Layer/GPIO/hal_gpio.c: 30:             (*tris_registers[_pin_config->port] &= ~((u
      +                          int8)1<<_pin_config->pin));
  1456   00103E  5027               	movf	gpio_pin_direction_intialize@_pin_config^0,w,c
  1457   001040  6ED9               	movwf	fsr2l,c
  1458   001042  6ADA               	clrf	fsr2h,c
  1459   001044  30DF               	rrcf	223,w,c
  1460   001046  32E8               	rrcf	wreg,f,c
  1461   001048  32E8               	rrcf	wreg,f,c
  1462   00104A  0B07               	andlw	7
  1463   00104C  6E28               	movwf	??_gpio_pin_direction_intialize^0,c
  1464   00104E  0E01               	movlw	1
  1465   001050  6E29               	movwf	(??_gpio_pin_direction_intialize+1)^0,c
  1466   001052  2A28               	incf	??_gpio_pin_direction_intialize^0,f,c
  1467   001054  EF2E  F008         	goto	u464
  1468   001058                     u465:
  1469   001058  90D8               	bcf	status,0,c
  1470   00105A  3629               	rlcf	(??_gpio_pin_direction_intialize+1)^0,f,c
  1471   00105C                     u464:
  1472   00105C  2E28               	decfsz	??_gpio_pin_direction_intialize^0,f,c
  1473   00105E  EF2C  F008         	goto	u465
  1474   001062  5029               	movf	(??_gpio_pin_direction_intialize+1)^0,w,c
  1475   001064  0AFF               	xorlw	255
  1476   001066  6E2A               	movwf	(??_gpio_pin_direction_intialize+2)^0,c
  1477   001068  5027               	movf	gpio_pin_direction_intialize@_pin_config^0,w,c
  1478   00106A  6ED9               	movwf	fsr2l,c
  1479   00106C  6ADA               	clrf	fsr2h,c
  1480   00106E  50DF               	movf	223,w,c
  1481   001070  0B07               	andlw	7
  1482   001072  0D02               	mullw	2
  1483   001074  50F3               	movf	243,w,c
  1484   001076  0F15               	addlw	low _tris_registers
  1485   001078  6ED9               	movwf	fsr2l,c
  1486   00107A  6ADA               	clrf	fsr2h,c
  1487   00107C  CFDE F02B          	movff	postinc2,??_gpio_pin_direction_intialize+3
  1488   001080  CFDD F02C          	movff	postdec2,??_gpio_pin_direction_intialize+4
  1489   001084  C02B  FFD9         	movff	??_gpio_pin_direction_intialize+3,fsr2l
  1490   001088  C02C  FFDA         	movff	??_gpio_pin_direction_intialize+4,fsr2h
  1491   00108C  502A               	movf	(??_gpio_pin_direction_intialize+2)^0,w,c
  1492   00108E  16DF               	andwf	indf2,f,c
  1493                           
  1494                           ;MCAL_Layer/GPIO/hal_gpio.c: 31:             break;
  1495   001090  EF88  F008         	goto	l1164
  1496   001094                     l1158:
  1497                           
  1498                           ;MCAL_Layer/GPIO/hal_gpio.c: 33:             (*tris_registers[_pin_config->port] |= ((ui
      +                          nt8)1<<_pin_config->pin));
  1499   001094  5027               	movf	gpio_pin_direction_intialize@_pin_config^0,w,c
  1500   001096  6ED9               	movwf	fsr2l,c
  1501   001098  6ADA               	clrf	fsr2h,c
  1502   00109A  30DF               	rrcf	223,w,c
  1503   00109C  32E8               	rrcf	wreg,f,c
  1504   00109E  32E8               	rrcf	wreg,f,c
  1505   0010A0  0B07               	andlw	7
  1506   0010A2  6E28               	movwf	??_gpio_pin_direction_intialize^0,c
  1507   0010A4  0E01               	movlw	1
  1508   0010A6  6E29               	movwf	(??_gpio_pin_direction_intialize+1)^0,c
  1509   0010A8  2A28               	incf	??_gpio_pin_direction_intialize^0,f,c
  1510   0010AA  EF59  F008         	goto	u474
  1511   0010AE                     u475:
  1512   0010AE  90D8               	bcf	status,0,c
  1513   0010B0  3629               	rlcf	(??_gpio_pin_direction_intialize+1)^0,f,c
  1514   0010B2                     u474:
  1515   0010B2  2E28               	decfsz	??_gpio_pin_direction_intialize^0,f,c
  1516   0010B4  EF57  F008         	goto	u475
  1517   0010B8  5027               	movf	gpio_pin_direction_intialize@_pin_config^0,w,c
  1518   0010BA  6ED9               	movwf	fsr2l,c
  1519   0010BC  6ADA               	clrf	fsr2h,c
  1520   0010BE  50DF               	movf	223,w,c
  1521   0010C0  0B07               	andlw	7
  1522   0010C2  0D02               	mullw	2
  1523   0010C4  50F3               	movf	243,w,c
  1524   0010C6  0F15               	addlw	low _tris_registers
  1525   0010C8  6ED9               	movwf	fsr2l,c
  1526   0010CA  6ADA               	clrf	fsr2h,c
  1527   0010CC  CFDE F02A          	movff	postinc2,??_gpio_pin_direction_intialize+2
  1528   0010D0  CFDD F02B          	movff	postdec2,??_gpio_pin_direction_intialize+3
  1529   0010D4  C02A  FFD9         	movff	??_gpio_pin_direction_intialize+2,fsr2l
  1530   0010D8  C02B  FFDA         	movff	??_gpio_pin_direction_intialize+3,fsr2h
  1531   0010DC  5029               	movf	(??_gpio_pin_direction_intialize+1)^0,w,c
  1532   0010DE  12DF               	iorwf	indf2,f,c
  1533                           
  1534                           ;MCAL_Layer/GPIO/hal_gpio.c: 34:             break;
  1535   0010E0  EF88  F008         	goto	l1164
  1536   0010E4                     l1162:
  1537   0010E4  5027               	movf	gpio_pin_direction_intialize@_pin_config^0,w,c
  1538   0010E6  6ED9               	movwf	fsr2l,c
  1539   0010E8  6ADA               	clrf	fsr2h,c
  1540   0010EA  BCDF               	btfsc	indf2,6,c
  1541   0010EC  EF7A  F008         	goto	u481
  1542   0010F0  EF7D  F008         	goto	u480
  1543   0010F4                     u481:
  1544   0010F4  0E01               	movlw	1
  1545   0010F6  EF7E  F008         	goto	u486
  1546   0010FA                     u480:
  1547   0010FA  0E00               	movlw	0
  1548   0010FC                     u486:
  1549                           
  1550                           ; Switch size 1, requested type "simple"
  1551                           ; Number of cases is 2, Range of values is 0 to 1
  1552                           ; switch strategies available:
  1553                           ; Name         Instructions Cycles
  1554                           ; simple_byte            7     4 (average)
  1555                           ;	Chosen strategy is simple_byte
  1556   0010FC  0A00               	xorlw	0	; case 0
  1557   0010FE  B4D8               	btfsc	status,2,c
  1558   001100  EF1F  F008         	goto	l1156
  1559   001104  0A01               	xorlw	1	; case 1
  1560   001106  B4D8               	btfsc	status,2,c
  1561   001108  EF4A  F008         	goto	l1158
  1562   00110C  EF1B  F008         	goto	l1154
  1563   001110                     l1164:
  1564                           
  1565                           ;MCAL_Layer/GPIO/hal_gpio.c: 39:     return ret;
  1566   001110  502D               	movf	gpio_pin_direction_intialize@ret^0,w,c
  1567   001112  0012               	return		;funcret
  1568   001114                     __end_of_gpio_pin_direction_intialize:
  1569                           	callstack 0
  1570                           
  1571                           	psect	smallconst
  1572   001000                     __psmallconst:
  1573                           	callstack 0
  1574   001000  00                 	db	0
  1575   001001  00                 	db	0	; dummy byte at the end
  1576   000000                     
  1577                           	psect	rparam
  1578   000000                     
  1579                           	psect	config
  1580                           
  1581                           ; Padding undefined space
  1582   300000                     	org	3145728
  1583   300000  FF                 	db	255
  1584                           
  1585                           ;Config register CONFIG1H @ 0x300001
  1586                           ;	Oscillator Selection bits
  1587                           ;	OSC = HS, HS oscillator
  1588                           ;	Fail-Safe Clock Monitor Enable bit
  1589                           ;	FCMEN = OFF, Fail-Safe Clock Monitor disabled
  1590                           ;	Internal/External Oscillator Switchover bit
  1591                           ;	IESO = OFF, Oscillator Switchover mode disabled
  1592   300001                     	org	3145729
  1593   300001  02                 	db	2
  1594                           
  1595                           ;Config register CONFIG2L @ 0x300002
  1596                           ;	Power-up Timer Enable bit
  1597                           ;	PWRT = OFF, PWRT disabled
  1598                           ;	Brown-out Reset Enable bits
  1599                           ;	BOREN = OFF, Brown-out Reset disabled in hardware and software
  1600                           ;	Brown Out Reset Voltage bits
  1601                           ;	BORV = 1, 
  1602   300002                     	org	3145730
  1603   300002  09                 	db	9
  1604                           
  1605                           ;Config register CONFIG2H @ 0x300003
  1606                           ;	Watchdog Timer Enable bit
  1607                           ;	WDT = OFF, WDT disabled (control is placed on the SWDTEN bit)
  1608                           ;	Watchdog Timer Postscale Select bits
  1609                           ;	WDTPS = 32768, 1:32768
  1610   300003                     	org	3145731
  1611   300003  1E                 	db	30
  1612                           
  1613                           ; Padding undefined space
  1614   300004                     	org	3145732
  1615   300004  FF                 	db	255
  1616                           
  1617                           ;Config register CONFIG3H @ 0x300005
  1618                           ;	CCP2 MUX bit
  1619                           ;	CCP2MX = PORTC, CCP2 input/output is multiplexed with RC1
  1620                           ;	PORTB A/D Enable bit
  1621                           ;	PBADEN = OFF, PORTB<4:0> pins are configured as digital I/O on Reset
  1622                           ;	Low-Power Timer1 Oscillator Enable bit
  1623                           ;	LPT1OSC = OFF, Timer1 configured for higher power operation
  1624                           ;	MCLR Pin Enable bit
  1625                           ;	MCLRE = ON, MCLR pin enabled; RE3 input pin disabled
  1626   300005                     	org	3145733
  1627   300005  81                 	db	129
  1628                           
  1629                           ;Config register CONFIG4L @ 0x300006
  1630                           ;	Stack Full/Underflow Reset Enable bit
  1631                           ;	STVREN = ON, Stack full/underflow will cause Reset
  1632                           ;	Single-Supply ICSP Enable bit
  1633                           ;	LVP = OFF, Single-Supply ICSP disabled
  1634                           ;	Extended Instruction Set Enable bit
  1635                           ;	XINST = OFF, Instruction set extension and Indexed Addressing mode disabled (Legacy mo
      +                          de)
  1636                           ;	Background Debugger Enable bit
  1637                           ;	DEBUG = 0x1, unprogrammed default
  1638   300006                     	org	3145734
  1639   300006  81                 	db	129
  1640                           
  1641                           ; Padding undefined space
  1642   300007                     	org	3145735
  1643   300007  FF                 	db	255
  1644                           
  1645                           ;Config register CONFIG5L @ 0x300008
  1646                           ;	Code Protection bit
  1647                           ;	CP0 = OFF, Block 0 (000800-003FFFh) not code-protected
  1648                           ;	Code Protection bit
  1649                           ;	CP1 = OFF, Block 1 (004000-007FFFh) not code-protected
  1650                           ;	Code Protection bit
  1651                           ;	CP2 = OFF, Block 2 (008000-00BFFFh) not code-protected
  1652                           ;	Code Protection bit
  1653                           ;	CP3 = OFF, Block 3 (00C000-00FFFFh) not code-protected
  1654   300008                     	org	3145736
  1655   300008  0F                 	db	15
  1656                           
  1657                           ;Config register CONFIG5H @ 0x300009
  1658                           ;	Boot Block Code Protection bit
  1659                           ;	CPB = OFF, Boot block (000000-0007FFh) not code-protected
  1660                           ;	Data EEPROM Code Protection bit
  1661                           ;	CPD = OFF, Data EEPROM not code-protected
  1662   300009                     	org	3145737
  1663   300009  C0                 	db	192
  1664                           
  1665                           ;Config register CONFIG6L @ 0x30000A
  1666                           ;	Write Protection bit
  1667                           ;	WRT0 = OFF, Block 0 (000800-003FFFh) not write-protected
  1668                           ;	Write Protection bit
  1669                           ;	WRT1 = OFF, Block 1 (004000-007FFFh) not write-protected
  1670                           ;	Write Protection bit
  1671                           ;	WRT2 = OFF, Block 2 (008000-00BFFFh) not write-protected
  1672                           ;	Write Protection bit
  1673                           ;	WRT3 = OFF, Block 3 (00C000-00FFFFh) not write-protected
  1674   30000A                     	org	3145738
  1675   30000A  0F                 	db	15
  1676                           
  1677                           ;Config register CONFIG6H @ 0x30000B
  1678                           ;	Configuration Register Write Protection bit
  1679                           ;	WRTC = OFF, Configuration registers (300000-3000FFh) not write-protected
  1680                           ;	Boot Block Write Protection bit
  1681                           ;	WRTB = OFF, Boot Block (000000-0007FFh) not write-protected
  1682                           ;	Data EEPROM Write Protection bit
  1683                           ;	WRTD = OFF, Data EEPROM not write-protected
  1684   30000B                     	org	3145739
  1685   30000B  E0                 	db	224
  1686                           
  1687                           ;Config register CONFIG7L @ 0x30000C
  1688                           ;	Table Read Protection bit
  1689                           ;	EBTR0 = OFF, Block 0 (000800-003FFFh) not protected from table reads executed in other
      +                           blocks
  1690                           ;	Table Read Protection bit
  1691                           ;	EBTR1 = OFF, Block 1 (004000-007FFFh) not protected from table reads executed in other
      +                           blocks
  1692                           ;	Table Read Protection bit
  1693                           ;	EBTR2 = OFF, Block 2 (008000-00BFFFh) not protected from table reads executed in other
      +                           blocks
  1694                           ;	Table Read Protection bit
  1695                           ;	EBTR3 = OFF, Block 3 (00C000-00FFFFh) not protected from table reads executed in other
      +                           blocks
  1696   30000C                     	org	3145740
  1697   30000C  0F                 	db	15
  1698                           
  1699                           ;Config register CONFIG7H @ 0x30000D
  1700                           ;	Boot Block Table Read Protection bit
  1701                           ;	EBTRB = OFF, Boot Block (000000-0007FFh) not protected from table reads executed in ot
      +                          her blocks
  1702   30000D                     	org	3145741
  1703   30000D  40                 	db	64
  1704                           tosu	equ	0xFFF
  1705                           tosh	equ	0xFFE
  1706                           tosl	equ	0xFFD
  1707                           stkptr	equ	0xFFC
  1708                           pclatu	equ	0xFFB
  1709                           pclath	equ	0xFFA
  1710                           pcl	equ	0xFF9
  1711                           tblptru	equ	0xFF8
  1712                           tblptrh	equ	0xFF7
  1713                           tblptrl	equ	0xFF6
  1714                           tablat	equ	0xFF5
  1715                           prodh	equ	0xFF4
  1716                           prodl	equ	0xFF3
  1717                           indf0	equ	0xFEF
  1718                           postinc0	equ	0xFEE
  1719                           postdec0	equ	0xFED
  1720                           preinc0	equ	0xFEC
  1721                           plusw0	equ	0xFEB
  1722                           fsr0h	equ	0xFEA
  1723                           fsr0l	equ	0xFE9
  1724                           wreg	equ	0xFE8
  1725                           indf1	equ	0xFE7
  1726                           postinc1	equ	0xFE6
  1727                           postdec1	equ	0xFE5
  1728                           preinc1	equ	0xFE4
  1729                           plusw1	equ	0xFE3
  1730                           fsr1h	equ	0xFE2
  1731                           fsr1l	equ	0xFE1
  1732                           bsr	equ	0xFE0
  1733                           indf2	equ	0xFDF
  1734                           postinc2	equ	0xFDE
  1735                           postdec2	equ	0xFDD
  1736                           preinc2	equ	0xFDC
  1737                           plusw2	equ	0xFDB
  1738                           fsr2h	equ	0xFDA
  1739                           fsr2l	equ	0xFD9
  1740                           status	equ	0xFD8

Data Sizes:
    Strings     0
    Constant    0
    Data        38
    BSS         4
    Persistent  1
    Stack       0

Auto Spaces:
    Space          Size  Autos    Used
    COMRAM          127     14      57
    BANK0           128      0       0
    BANK1           256      0       0
    BANK2           256      0       0
    BANK3           256      0       0
    BANK4           256      0       0
    BANK5           256      0       0
    BANK6           256      0       0
    BANK7           256      0       0
    BANK8           256      0       0
    BANK9           256      0       0
    BANK10          256      0       0
    BANK11          256      0       0
    BANK12          256      0       0
    BANK13          256      0       0
    BANK14          256      0       0
    BANK15          128      0       0

Pointer List with Targets:

    button_initialize@btn	PTR const struct . size(1) Largest target is 3
		 -> btn1(COMRAM[3]), btn2(COMRAM[3]), 

    button_read_state@btn	PTR const struct . size(1) Largest target is 3
		 -> btn1(COMRAM[3]), btn2(COMRAM[3]), 

    button_read_state@btn_state	PTR enum E2874 size(1) Largest target is 3
		 -> btn1(COMRAM[3]), btn2(COMRAM[3]), 

    gpio_pin_direction_intialize@_pin_config	PTR const struct . size(1) Largest target is 3
		 -> btn1(COMRAM[3]), btn2(COMRAM[3]), led_initialize@pin_obj(COMRAM[1]), 

    gpio_pin_initialize@_pin_config	PTR const struct . size(1) Largest target is 1
		 -> led_initialize@pin_obj(COMRAM[1]), 

    gpio_pin_read_logic@_pin_config	PTR const struct . size(1) Largest target is 3
		 -> btn1(COMRAM[3]), btn2(COMRAM[3]), 

    gpio_pin_read_logic@logic	PTR enum E2814 size(1) Largest target is 1
		 -> button_read_state@pin_logic(COMRAM[1]), 

    gpio_pin_write_logic@_pin_config	PTR const struct . size(1) Largest target is 1
		 -> led_initialize@pin_obj(COMRAM[1]), led_turn_off@pin_obj(COMRAM[1]), led_turn_on@pin_obj(COMRAM[1]), 

    lat_registers	PTR volatile unsigned char [5] size(2) Largest target is 1
		 -> LATA(BITBIGSFRll[1]), LATB(BITBIGSFRlh[1]), LATC(BITBIGSFRlh[1]), LATD(BITBIGSFRlh[1]), 
		 -> LATE(BITBIGSFRlh[1]), 

    led_initialize@led	PTR const struct . size(1) Largest target is 1
		 -> led1(COMRAM[1]), led2(COMRAM[1]), 

    led_turn_off@led	PTR const struct . size(1) Largest target is 1
		 -> led1(COMRAM[1]), led2(COMRAM[1]), 

    led_turn_on@led	PTR const struct . size(1) Largest target is 1
		 -> led1(COMRAM[1]), led2(COMRAM[1]), 

    port_registers	PTR volatile unsigned char [5] size(2) Largest target is 1
		 -> PORTA(BITBIGSFRll[1]), PORTB(BITBIGSFRll[1]), PORTC(BITBIGSFRll[1]), PORTD(BITBIGSFRll[1]), 
		 -> PORTE(BITBIGSFRll[1]), 

    tris_registers	PTR volatile unsigned char [5] size(2) Largest target is 1
		 -> TRISA(BITBIGSFRll[1]), TRISB(BITBIGSFRh[1]), TRISC(BITBIGSFRh[1]), TRISD(BITBIGSFRh[1]), 
		 -> TRISE(BITBIGSFRh[1]), 


Critical Paths under _main in COMRAM

    _led_turn_on->_gpio_pin_write_logic
    _led_turn_off->_gpio_pin_write_logic
    _button_read_state->_gpio_pin_read_logic
    _application_initialize->_led_initialize
    _led_initialize->_gpio_pin_initialize
    _gpio_pin_initialize->_gpio_pin_direction_intialize
    _gpio_pin_initialize->_gpio_pin_write_logic
    _button_initialize->_gpio_pin_direction_intialize

Critical Paths under _main in BANK0

    None.

Critical Paths under _main in BANK1

    None.

Critical Paths under _main in BANK2

    None.

Critical Paths under _main in BANK3

    None.

Critical Paths under _main in BANK4

    None.

Critical Paths under _main in BANK5

    None.

Critical Paths under _main in BANK6

    None.

Critical Paths under _main in BANK7

    None.

Critical Paths under _main in BANK8

    None.

Critical Paths under _main in BANK9

    None.

Critical Paths under _main in BANK10

    None.

Critical Paths under _main in BANK11

    None.

Critical Paths under _main in BANK12

    None.

Critical Paths under _main in BANK13

    None.

Critical Paths under _main in BANK14

    None.

Critical Paths under _main in BANK15

    None.

Call Graph Tables:

 ---------------------------------------------------------------------------------
 (Depth) Function   	        Calls       Base Space   Used Autos Params    Refs
 ---------------------------------------------------------------------------------
 (0) _main                                                 2     2      0    4563
                                             12 COMRAM     2     2      0
             _application_initialize
                  _button_read_state
                       _led_turn_off
                        _led_turn_on
 ---------------------------------------------------------------------------------
 (1) _led_turn_on                                          4     3      1     891
                                              7 COMRAM     4     3      1
               _gpio_pin_write_logic
 ---------------------------------------------------------------------------------
 (1) _led_turn_off                                         4     3      1     891
                                              7 COMRAM     4     3      1
               _gpio_pin_write_logic
 ---------------------------------------------------------------------------------
 (1) _button_read_state                                    5     3      2     828
                                              6 COMRAM     4     2      2
                _gpio_pin_read_logic
 ---------------------------------------------------------------------------------
 (2) _gpio_pin_read_logic                                  7     5      2     270
                                              0 COMRAM     6     4      2
 ---------------------------------------------------------------------------------
 (1) _application_initialize                               0     0      0    1953
                  _button_initialize
                     _led_initialize
 ---------------------------------------------------------------------------------
 (2) _led_initialize                                       4     3      1    1401
                                              8 COMRAM     4     3      1
                _gpio_pin_initialize
 ---------------------------------------------------------------------------------
 (3) _gpio_pin_initialize                                  2     1      1    1099
                                              7 COMRAM     1     0      1
       _gpio_pin_direction_intialize
               _gpio_pin_write_logic
 ---------------------------------------------------------------------------------
 (2) _gpio_pin_write_logic                                 8     6      2     596
                                              0 COMRAM     7     5      2
 ---------------------------------------------------------------------------------
 (2) _button_initialize                                    2     1      1     552
                                              7 COMRAM     2     1      1
       _gpio_pin_direction_intialize
 ---------------------------------------------------------------------------------
 (4) _gpio_pin_direction_intialize                         7     6      1     331
                                              0 COMRAM     7     6      1
 ---------------------------------------------------------------------------------
 Estimated maximum stack depth 4
 ---------------------------------------------------------------------------------

 Call Graph Graphs:

 _main (ROOT)
   _application_initialize
     _button_initialize
       _gpio_pin_direction_intialize
     _led_initialize
       _gpio_pin_initialize
         _gpio_pin_direction_intialize
         _gpio_pin_write_logic
   _button_read_state
     _gpio_pin_read_logic
   _led_turn_off
     _gpio_pin_write_logic
   _led_turn_on
     _gpio_pin_write_logic

 Address spaces:
Name               Size   Autos  Total    Cost      Usage
BIGRAM             F7F      0       0      40        0.0%
EEDATA             400      0       0       0        0.0%
BITBANK14          100      0       0      32        0.0%
BANK14             100      0       0      33        0.0%
BITBANK13          100      0       0      30        0.0%
BANK13             100      0       0      31        0.0%
BITBANK12          100      0       0      28        0.0%
BANK12             100      0       0      29        0.0%
BITBANK11          100      0       0      26        0.0%
BANK11             100      0       0      27        0.0%
BITBANK10          100      0       0      24        0.0%
BANK10             100      0       0      25        0.0%
BITBANK9           100      0       0      22        0.0%
BANK9              100      0       0      23        0.0%
BITBANK8           100      0       0      20        0.0%
BANK8              100      0       0      21        0.0%
BITBANK7           100      0       0      18        0.0%
BANK7              100      0       0      19        0.0%
BITBANK6           100      0       0      16        0.0%
BANK6              100      0       0      17        0.0%
BITBANK5           100      0       0      14        0.0%
BANK5              100      0       0      15        0.0%
BITBANK4           100      0       0      12        0.0%
BANK4              100      0       0      13        0.0%
BITBANK3           100      0       0      10        0.0%
BANK3              100      0       0      11        0.0%
BITBANK2           100      0       0       8        0.0%
BANK2              100      0       0       9        0.0%
BITBANK1           100      0       0       6        0.0%
BANK1              100      0       0       7        0.0%
BITBANK15           80      0       0      34        0.0%
BANK15              80      0       0      35        0.0%
BITBANK0            80      0       0       4        0.0%
BANK0               80      0       0       5        0.0%
BITCOMRAM           7F      0       0       0        0.0%
COMRAM              7F      E      39       1       44.9%
BITBIGSFRh          69      0       0      36        0.0%
BITBIGSFRlh          4      0       0      37        0.0%
BITBIGSFRll          4      0       0      38        0.0%
BIGSFR               0      0       0     200        0.0%
BITSFR               0      0       0     200        0.0%
SFR                  0      0       0     200        0.0%
STACK                0      0       0       2        0.0%
NULL                 0      0       0       0        0.0%
ABS                  0      0      39      39        0.0%
DATA                 0      0      39       3        0.0%
CODE                 0      0       0       0        0.0%


Microchip Technology PIC18 Macro Assembler V2.46 build 20240104201356 
Symbol Table                                                                                   Sun Jun 23 23:14:18 2024

                                      l9 14A2                                       l20 140C  
                                     l13 14F8                                       l23 142A  
                                     l16 13B2                                       l27 1484  
                                     l82 1112                                       l99 11F8  
                                    l106 1394                                      l116 152C  
                                    l206 1290                                      l184 1588  
                                    l193 15D4                                      u410 1124  
                                    u411 1120                                      u500 149A  
                                    u501 1496                                      u440 1016  
                                    u424 1146                                      u520 132C  
                                    u600 120E                                      u441 1012  
                                    u425 1142                                      u521 1328  
                                    u601 120A                                      u450 1036  
                                    u434 119C                                      u530 133C  
                                    u610 1238                                      u451 1032  
                                    u435 1198                                      u515 14EC  
                                    u531 1338                                      u611 1234  
                                    u620 1248                                      u517 14EE  
                                    u621 1244                                      u550 15C0  
                                    u630 127C                                      u551 15BC  
                                    u631 1278                                      u480 10FA  
                                    u464 105C                                      u544 1388  
                                    u640 128C                                      u560 13AA  
                                    u481 10F4                                      u465 1058  
                                    u545 1384                                      u641 1288  
                                    u561 13A6                                      u474 10B2  
                                    u490 150A                                      u650 12BE  
                                    u475 10AE                                      u491 1506  
                                    u651 12BA                                      u580 1422  
                                    u660 12E6                                      u581 141E  
                                    u661 12E2                                      u486 10FC  
                                    u575 13FC                                      u577 13FE  
                                    u595 1474                                      u597 1476  
                                    u677 1308                                      _ret 0039  
                    led_initialize@F2895 0038                                      wreg 0FE8  
                           ?_led_turn_on 002E                                     l1202 15B0  
                                   l1204 15C0                                     l1140 117E  
                                   l1220 13EE                                     l1212 1396  
                                   l1150 1002                                     l1206 15C8  
                                   l1134 1114                                     l1230 1422  
                                   l1222 13FE                                     l1214 13AA  
                                   l1152 1016                                     l1208 15D2  
                                   l1136 1124                                     l1144 11CE  
                                   l1232 142E                                     l1240 1482  
                                   l1216 13B6                                     l1224 140A  
                                   l1162 10E4                                     l1154 1036  
                                   l1138 1128                                     l1170 150A  
                                   l1250 1212                                     l1234 1464  
                                   l1218 13EC                                     l1156 103E  
                                   l1164 1110                                     l1172 150E  
                                   l1180 14A6                                     l1244 1560  
                                   l1260 1262                                     l1252 121E  
                                   l1236 1466                                     l1228 140E  
                                   l1158 1094                                     l1182 14DC  
                                   l1262 127C                                     l1254 1238  
                                   l1246 11FA                                     l1238 1476  
                                   l1168 14FA                                     l1184 14DE  
                                   l1176 1486                                     l1192 131C  
                                   l1256 1248                                     l1248 120E  
                                   l1280 12BE                                     l1272 1292  
                                   l1186 14EE                                     l1178 149A  
                                   l1194 132C                                     l1258 1254  
                                   l1290 12FE                                     l1282 12CC  
                                   l1274 1296                                     l1188 14F6  
                                   l1196 133C                                     l1268 1290  
                                   l1284 12D6                                     l1276 12A2  
                                   l1198 1340                                     l1286 12E6  
                                   l1278 12AE                                     l1296 11E2  
                                   l1288 12F4                                     _LATA 0F89  
                                   _LATB 0F8A                                     _LATC 0F8B  
                                   _LATD 0F8C                                     _LATE 0F8D  
                                   _led1 0026                                     _btn1 0022  
                                   _led2 0025                                     _btn2 001F  
         gpio_pin_read_logic@_pin_config 0027                                     _main 1292  
                                   fsr1h 0FE2                                     fsr2h 0FDA  
                                   indf1 0FE7                                     indf2 0FDF  
                                   fsr1l 0FE1                                     fsr2l 0FD9  
                 __end_of_led_initialize 14FA                                     prodl 0FF3  
                                   start 0000                            ?_led_turn_off 002E  
                           ___param_bank 0000                     _gpio_pin_write_logic 1114  
                                  ?_main 0027                 ??_application_initialize 0033  
                                  _PORTA 0F80                                    _PORTB 0F81  
                                  _PORTC 0F82                                    _PORTD 0F83  
                                  _PORTE 0F84                                    _TRISA 0F92  
                                  _TRISB 0F93                                    _TRISC 0F94  
                                  _TRISD 0F95                                    _TRISE 0F96  
                                  tablat 0FF5                                    status 0FD8  
                        ?_led_initialize 002F                           ??_led_turn_off 002F  
                        __initialization 152E                             __end_of_main 131C  
                  ?_gpio_pin_write_logic 0027                 gpio_pin_read_logic@logic 0028  
                          _lat_registers 000B                                   ??_main 0033  
                          __activetblptr 0002                         led_turn_on@F2900 0037  
                      _button_initialize 15B0                        _button_read_state 11FA  
                     ?_button_initialize 002E                       ?_button_read_state 002D  
                    ??_button_initialize 002F                      ??_button_read_state 002F  
                  led_initialize@pin_obj 0032                                   isa$std 0001  
gpio_pin_direction_intialize@_pin_config 0027                             __pdataCOMRAM 0001  
              __end_of_button_initialize 15D6                             __mediumconst 0000  
              __end_of_button_read_state 1292                                   tblptrh 0FF7  
                                 tblptrl 0FF6                                   tblptru 0FF8  
                             __accesstop 0080                  __end_of__initialization 1556  
                          ___rparam_used 0001                        led_initialize@led 002F  
                      led_initialize@ret 0031                   ??_gpio_pin_write_logic 0029  
                         __pcstackCOMRAM 0027                     button_initialize@btn 002E  
                   button_initialize@ret 002F                     __end_of_led_turn_off 1486  
                 _application_initialize 1560                               __pnvCOMRAM 0039  
                   button_read_state@btn 002D                        led_turn_off@F2905 0036  
                   led_turn_toggle@F2910 0035                         ??_led_initialize 0030  
                         _tris_registers 0015                                  __Hparam 0000  
                                __Lparam 0000                      _gpio_pin_initialize 14FA  
                    _gpio_pin_read_logic 131C                             __psmallconst 1000  
                                __pcinit 152E                                  __ramtop 1000  
                                __ptext0 1292                                  __ptext1 1396  
                                __ptext2 140E                                  __ptext3 11FA  
                                __ptext4 131C                                  __ptext5 1560  
                                __ptext6 1486                                  __ptext7 14FA  
                                __ptext8 1114                                  __ptext9 15B0  
                   ?_gpio_pin_initialize 002E                     ?_gpio_pin_read_logic 0027  
                   end_of_initialization 1556                            __Lmediumconst 0000  
                    led_turn_off@pin_obj 0031                                  postdec1 0FE5  
                                postdec2 0FDD                                  postinc0 0FEE  
                                postinc1 0FE6                                  postinc2 0FDE  
             button_read_state@btn_state 002E     __end_of_gpio_pin_direction_intialize 1114  
           _gpio_pin_direction_intialize 1002                    ??_gpio_pin_initialize 002F  
                  ??_gpio_pin_read_logic 0029               button_read_state@pin_logic 0030  
                           _led_turn_off 140E                            __pidataCOMRAM 158A  
                    start_initialization 152E                            ??_led_turn_on 002F  
          ?_gpio_pin_direction_intialize 0027                  ?_application_initialize 0027  
                        led_turn_off@led 002E                          led_turn_off@ret 0030  
                            __pbssCOMRAM 0035           __end_of_application_initialize 158A  
                    __end_of_led_turn_on 140E          gpio_pin_direction_intialize@ret 002D  
        gpio_pin_write_logic@_pin_config 0027                gpio_pin_write_logic@logic 0028  
                            __smallconst 1000           ??_gpio_pin_direction_intialize 0028  
                     led_turn_on@pin_obj 0031                              _led_turn_on 1396  
                              copy_data0 1542                           led_turn_on@led 002E  
                         led_turn_on@ret 0030                                 __Hrparam 0000  
                               __Lrparam 0000              __end_of_gpio_pin_initialize 152E  
            __end_of_gpio_pin_read_logic 1396           gpio_pin_initialize@_pin_config 002E  
                               __ptext10 1002                                 isa$xinst 0000  
           __end_of_gpio_pin_write_logic 11FA                           _port_registers 0001  
                         _led_initialize 1486  
