

Microchip MPLAB XC8 Assembler V2.46 build 20240104201356 
                                                                                               Mon Aug 19 09:00:25 2024

Microchip MPLAB XC8 C Compiler v2.46 (Free license) build 20240104201356 Og1 
     1                           	processor	18F4620
     2                           	fnconf	rparam,??,?,0
     3                           	pagewidth 120
     4                           	opt	flic
     5                           	psect	idataCOMRAM,global,class=CODE,delta=1,noexec
     6                           	psect	smallconst,global,reloc=2,class=SMALLCONST,delta=1,noexec
     7                           	psect	nvCOMRAM,global,class=COMRAM,space=1,delta=1,lowdata,noexec
     8                           	psect	cinit,global,reloc=2,class=CODE,delta=1
     9                           	psect	bssCOMRAM,global,class=COMRAM,space=1,delta=1,lowdata,noexec
    10                           	psect	dataCOMRAM,global,class=COMRAM,space=1,delta=1,lowdata,noexec
    11                           	psect	cstackBANK0,global,class=BANK0,space=1,delta=1,lowdata,noexec
    12                           	psect	cstackCOMRAM,global,class=COMRAM,space=1,delta=1,lowdata,noexec
    13                           	psect	text0,global,reloc=2,class=CODE,delta=1
    14                           	psect	text1,global,reloc=2,class=CODE,delta=1
    15                           	psect	text2,global,reloc=2,class=CODE,delta=1
    16                           	psect	text3,global,reloc=2,class=CODE,delta=1
    17                           	psect	text4,global,reloc=2,class=CODE,delta=1
    18                           	psect	text5,global,reloc=2,class=CODE,delta=1
    19                           	psect	text6,global,reloc=2,class=CODE,delta=1
    20                           	psect	text7,global,reloc=2,class=CODE,delta=1
    21                           	psect	text8,global,reloc=2,class=CODE,delta=1
    22                           	psect	text9,global,reloc=2,class=CODE,delta=1
    23                           	psect	text10,global,reloc=2,class=CODE,delta=1
    24                           	psect	intcode,global,reloc=2,class=CODE,delta=1
    25                           	psect	intcode_body,global,reloc=2,class=CODE,delta=1
    26                           	psect	text12,global,reloc=2,class=CODE,delta=1
    27                           	psect	text13,global,reloc=2,class=CODE,delta=1
    28                           	psect	text14,global,reloc=2,class=CODE,delta=1
    29                           	psect	text15,global,reloc=2,class=CODE,delta=1
    30                           	psect	text16,global,reloc=2,class=CODE,delta=1
    31                           	psect	text17,global,reloc=2,class=CODE,delta=1
    32                           	psect	text18,global,reloc=2,class=CODE,delta=1
    33                           	psect	text19,global,reloc=2,class=CODE,delta=1
    34                           	psect	text20,global,reloc=2,class=CODE,delta=1
    35                           	psect	text21,global,reloc=2,class=CODE,delta=1
    36                           	psect	text22,global,reloc=2,class=CODE,delta=1
    37                           	psect	text23,global,reloc=2,class=CODE,delta=1
    38                           	psect	intsave_regs,global,class=BIGRAM,space=1,delta=1,noexec
    39                           	psect	rparam,global,class=COMRAM,space=1,delta=1,noexec
    40                           	psect	temp,global,ovrld,common,class=COMRAM,space=1,delta=1,lowdata
    41                           	psect	config,global,abs,ovrld,class=CONFIG,space=4,delta=1,noexec
    42   000000                     
    43                           ; Generated 17/10/2023 GMT
    44                           ; 
    45                           ; Copyright © 2023, Microchip Technology Inc. and its subsidiaries ("Microchip")
    46                           ; All rights reserved.
    47                           ; 
    48                           ; This software is developed by Microchip Technology Inc. and its subsidiaries ("Microch
      +                          ip").
    49                           ; 
    50                           ; Redistribution and use in source and binary forms, with or without modification, are
    51                           ; permitted provided that the following conditions are met:
    52                           ; 
    53                           ;     1. Redistributions of source code must retain the above copyright notice, this lis
      +                          t of
    54                           ;        conditions and the following disclaimer.
    55                           ; 
    56                           ;     2. Redistributions in binary form must reproduce the above copyright notice, this 
      +                          list
    57                           ;        of conditions and the following disclaimer in the documentation and/or other
    58                           ;        materials provided with the distribution. Publication is not required when
    59                           ;        this file is used in an embedded application.
    60                           ; 
    61                           ;     3. Microchip's name may not be used to endorse or promote products derived from th
      +                          is
    62                           ;        software without specific prior written permission.
    63                           ; 
    64                           ; THIS SOFTWARE IS PROVIDED BY MICROCHIP "AS IS" AND ANY EXPRESS OR IMPLIED WARRANTIES,
    65                           ; INCLUDING, BUT NOT LIMITED TO, THE IMPLIED WARRANTIES OF MERCHANTABILITY AND FITNESS F
      +                          OR
    66                           ; PURPOSE ARE DISCLAIMED.  IN NO EVENT SHALL MICROCHIP BE LIABLE FOR ANY DIRECT, INDIREC
      +                          T,
    67                           ; INCIDENTAL, SPECIAL, EXEMPLARY, OR CONSEQUENTIAL DAMAGES (INCLUDING BUT NOT LIMITED TO
    68                           ; PROCUREMENT OF SUBSTITUTE GOODS OR SERVICES; LOSS OF USE, DATA OR PROFITS; OR BUSINESS
    69                           ; INTERRUPTION) HOWSOEVER CAUSED AND ON ANY THEORY OF LIABILITY, WHETHER IN CONTRACT, ST
      +                          RICT
    70                           ; LIABILITY, OR TORT (INCLUDING NEGLIGENCE OR OTHERWISE) ARISING IN ANY WAY OUT OF THE U
      +                          SE OF
    71                           ; THIS SOFTWARE, EVEN IF ADVISED OF THE POSSIBILITY OF SUCH DAMAGE.
    72                           ; 
    73                           ; 
    74                           ; Code-generator required, PIC18F4620 Definitions
    75                           ; 
    76                           ; SFR Addresses
    77   000000                     
    78                           	psect	idataCOMRAM
    79   001834                     __pidataCOMRAM:
    80                           	callstack 0
    81                           
    82                           ;initializer for _keypad_values
    83   001834  37                 	db	55
    84   001835  38                 	db	56
    85   001836  39                 	db	57
    86   001837  2F                 	db	47
    87   001838  34                 	db	52
    88   001839  35                 	db	53
    89   00183A  36                 	db	54
    90   00183B  2A                 	db	42
    91   00183C  31                 	db	49
    92   00183D  32                 	db	50
    93   00183E  33                 	db	51
    94   00183F  2D                 	db	45
    95   001840  23                 	db	35
    96   001841  30                 	db	48
    97   001842  3D                 	db	61
    98   001843  2B                 	db	43
    99                           
   100                           ;initializer for _port_registers
   101   001844  80                 	db	128
   102   001845  0F                 	db	15
   103   001846  81                 	db	129
   104   001847  0F                 	db	15
   105   001848  82                 	db	130
   106   001849  0F                 	db	15
   107   00184A  83                 	db	131
   108   00184B  0F                 	db	15
   109   00184C  84                 	db	132
   110   00184D  0F                 	db	15
   111                           
   112                           ;initializer for _lat_registers
   113   00184E  89                 	db	137
   114   00184F  0F                 	db	15
   115   001850  8A                 	db	138
   116   001851  0F                 	db	15
   117   001852  8B                 	db	139
   118   001853  0F                 	db	15
   119   001854  8C                 	db	140
   120   001855  0F                 	db	15
   121   001856  8D                 	db	141
   122   001857  0F                 	db	15
   123                           
   124                           ;initializer for _tris_registers
   125   001858  92                 	db	146
   126   001859  0F                 	db	15
   127   00185A  93                 	db	147
   128   00185B  0F                 	db	15
   129   00185C  94                 	db	148
   130   00185D  0F                 	db	15
   131   00185E  95                 	db	149
   132   00185F  0F                 	db	15
   133   001860  96                 	db	150
   134   001861  0F                 	db	15
   135                           
   136                           ;initializer for _RB7_F
   137   001862  01                 	db	1
   138                           
   139                           ;initializer for _RB6_F
   140   001863  01                 	db	1
   141                           
   142                           ;initializer for _RB5_F
   143   001864  01                 	db	1
   144                           
   145                           ;initializer for _RB4_F
   146   001865  01                 	db	1
   147                           
   148                           ;initializer for _led3
   149   001866  12                 	db	18
   150                           
   151                           ;initializer for _led2
   152   001867  0A                 	db	10
   153                           
   154                           ;initializer for _timer
   155   001868  82                 	db	low _isr
   156   001869  19                 	db	high _isr
   157   00186A  02                 	db	2
   158   00186B  3CB0               	dw	15536
   159   00186D  03                 	db	3
   160                           
   161                           ;initializer for _led1
   162   00186E  02                 	db	2
   163                           
   164                           	psect	smallconst
   165   001000                     __psmallconst:
   166                           	callstack 0
   167   001000  00                 	db	0
   168   001001                     _customChar7:
   169                           	callstack 0
   170   001001  04                 	db	4
   171   001002  0A                 	db	10
   172   001003  04                 	db	4
   173   001004  04                 	db	4
   174   001005  04                 	db	4
   175   001006  0E                 	db	14
   176   001007  15                 	db	21
   177   001008  0E                 	db	14
   178   001009                     __end_of_customChar7:
   179                           	callstack 0
   180   001009                     _customChar6:
   181                           	callstack 0
   182   001009  0E                 	db	14
   183   00100A  0E                 	db	14
   184   00100B  1F                 	db	31
   185   00100C  1F                 	db	31
   186   00100D  1F                 	db	31
   187   00100E  1F                 	db	31
   188   00100F  1F                 	db	31
   189   001010  00                 	db	0
   190   001011                     __end_of_customChar6:
   191                           	callstack 0
   192   001011                     _customChar5:
   193                           	callstack 0
   194   001011  0E                 	db	14
   195   001012  0A                 	db	10
   196   001013  1F                 	db	31
   197   001014  1F                 	db	31
   198   001015  1F                 	db	31
   199   001016  1F                 	db	31
   200   001017  1F                 	db	31
   201   001018  00                 	db	0
   202   001019                     __end_of_customChar5:
   203                           	callstack 0
   204   001019                     _customChar4:
   205                           	callstack 0
   206   001019  0E                 	db	14
   207   00101A  0A                 	db	10
   208   00101B  11                 	db	17
   209   00101C  1F                 	db	31
   210   00101D  1F                 	db	31
   211   00101E  1F                 	db	31
   212   00101F  1F                 	db	31
   213   001020  00                 	db	0
   214   001021                     __end_of_customChar4:
   215                           	callstack 0
   216   001021                     _customChar3:
   217                           	callstack 0
   218   001021  0E                 	db	14
   219   001022  0A                 	db	10
   220   001023  11                 	db	17
   221   001024  11                 	db	17
   222   001025  1F                 	db	31
   223   001026  1F                 	db	31
   224   001027  1F                 	db	31
   225   001028  00                 	db	0
   226   001029                     __end_of_customChar3:
   227                           	callstack 0
   228   001029                     _customChar2:
   229                           	callstack 0
   230   001029  0E                 	db	14
   231   00102A  0A                 	db	10
   232   00102B  11                 	db	17
   233   00102C  11                 	db	17
   234   00102D  11                 	db	17
   235   00102E  1F                 	db	31
   236   00102F  1F                 	db	31
   237   001030  00                 	db	0
   238   001031                     __end_of_customChar2:
   239                           	callstack 0
   240   001031                     _customChar:
   241                           	callstack 0
   242   001031  0E                 	db	14
   243   001032  0A                 	db	10
   244   001033  11                 	db	17
   245   001034  11                 	db	17
   246   001035  11                 	db	17
   247   001036  11                 	db	17
   248   001037  1F                 	db	31
   249   001038  00                 	db	0
   250   001039                     __end_of_customChar:
   251                           	callstack 0
   252   000000                     _TMR1L	set	4046
   253   000000                     _TMR1H	set	4047
   254   000000                     _TMR0L	set	4054
   255   000000                     _TMR0H	set	4055
   256   000000                     _INTCON2bits	set	4081
   257   000000                     _EECON2	set	4007
   258   000000                     _TRISD	set	3989
   259   000000                     _TRISC	set	3988
   260   000000                     _TRISB	set	3987
   261   000000                     _TRISE	set	3990
   262   001039                     STR_2:
   263   001039  25                 	db	37
   264   00103A  69                 	db	105	;'i'
   265   00103B  00                 	db	0
   266   00103C  25                 	db	37
   267   00103D  75                 	db	117	;'u'
   268   00103E  00                 	db	0
   269   00103F  00                 	db	0	; dummy byte at the end
   270   000000                     
   271                           	psect	nvCOMRAM
   272   000071                     __pnvCOMRAM:
   273                           	callstack 0
   274   000071                     _ret:
   275                           	callstack 0
   276   000071                     	ds	1
   277   000000                     _PORTBbits	set	3969
   278   000000                     _PIE1bits	set	3997
   279   000000                     _ADCON0bits	set	4034
   280   000000                     _PORTE	set	3972
   281   000000                     _PORTD	set	3971
   282   000000                     _PORTC	set	3970
   283   000000                     _PORTB	set	3969
   284   000000                     _PORTA	set	3968
   285   000000                     _LATA	set	3977
   286   000000                     _TRISA	set	3986
   287   000000                     _T1CONbits	set	4045
   288   000000                     _T0CONbits	set	4053
   289   000000                     _INTCON3bits	set	4080
   290   000000                     _ADRESH	set	4036
   291   000000                     _ADRESL	set	4035
   292   000000                     _INTCONbits	set	4082
   293   000000                     _PIR1bits	set	3998
   294   000000                     _EECON1bits	set	4006
   295   000000                     _EEDATA	set	4008
   296   000000                     _EEADR	set	4009
   297   000000                     _EEADRH	set	4010
   298   000000                     _ADCON2bits	set	4032
   299   000000                     _ADCON1bits	set	4033
   300   000000                     _LATE	set	3981
   301   000000                     _LATD	set	3980
   302   000000                     _LATC	set	3979
   303   000000                     _LATB	set	3978
   304                           
   305                           ; #config settings
   306                           
   307                           	psect	cinit
   308   001870                     __pcinit:
   309                           	callstack 0
   310   001870                     start_initialization:
   311                           	callstack 0
   312   001870                     __initialization:
   313                           	callstack 0
   314                           
   315                           ; Initialize objects allocated to COMRAM (59 bytes)
   316                           ; load TBLPTR registers with __pidataCOMRAM
   317   001870  0E34               	movlw	low __pidataCOMRAM
   318   001872  6EF6               	movwf	tblptrl,c
   319   001874  0E18               	movlw	high __pidataCOMRAM
   320   001876  6EF7               	movwf	tblptrh,c
   321   001878  0E00               	movlw	low (__pidataCOMRAM shr (0+16))
   322   00187A  6EF8               	movwf	tblptru,c
   323   00187C  EE00  F001         	lfsr	0,__pdataCOMRAM
   324   001880  EE10 F03B          	lfsr	1,59
   325   001884                     copy_data0:
   326   001884  0009               	tblrd		*+
   327   001886  CFF5 FFEE          	movff	tablat,postinc0
   328   00188A  50E5               	movf	postdec1,w,c
   329   00188C  50E1               	movf	fsr1l,w,c
   330   00188E  E1FA               	bnz	copy_data0
   331                           
   332                           ; Clear objects allocated to COMRAM (39 bytes)
   333   001890  EE00  F03C         	lfsr	0,__pbssCOMRAM
   334   001894  0E27               	movlw	39
   335   001896                     clear_0:
   336   001896  6AEE               	clrf	postinc0,c
   337   001898  06E8               	decf	wreg,f,c
   338   00189A  E1FD               	bnz	clear_0
   339   00189C                     end_of_initialization:
   340                           	callstack 0
   341   00189C                     __end_of__initialization:
   342                           	callstack 0
   343   00189C  9072               	bcf	int$flags,0,c	;clear compiler interrupt flag (level 1)
   344   00189E  9272               	bcf	int$flags,1,c	;clear compiler interrupt flag (level 2)
   345   0018A0  0100               	movlb	0
   346   0018A2  EF6E  F00C         	goto	_main	;jump to C main() function
   347                           
   348                           	psect	bssCOMRAM
   349   00003C                     __pbssCOMRAM:
   350                           	callstack 0
   351   00003C                     _TMR1_HANDLER:
   352                           	callstack 0
   353   00003C                     	ds	2
   354   00003E                     _preval:
   355                           	callstack 0
   356   00003E                     	ds	2
   357   000040                     _preload:
   358                           	callstack 0
   359   000040                     	ds	2
   360   000042                     _ISR_TIMER0:
   361                           	callstack 0
   362   000042                     	ds	2
   363   000044                     _RB7_INTERRUPTHANDLERLOW:
   364                           	callstack 0
   365   000044                     	ds	2
   366   000046                     _RB7_INTERRUPTHANDLERHIGH:
   367                           	callstack 0
   368   000046                     	ds	2
   369   000048                     _RB6_INTERRUPTHANDLERLOW:
   370                           	callstack 0
   371   000048                     	ds	2
   372   00004A                     _RB6_INTERRUPTHANDLERHIGH:
   373                           	callstack 0
   374   00004A                     	ds	2
   375   00004C                     _RB5_INTERRUPTHANDLERLOW:
   376                           	callstack 0
   377   00004C                     	ds	2
   378   00004E                     _RB5_INTERRUPTHANDLERHIGH:
   379                           	callstack 0
   380   00004E                     	ds	2
   381   000050                     _RB4_INTERRUPTHANDLERLOW:
   382                           	callstack 0
   383   000050                     	ds	2
   384   000052                     _RB4_INTERRUPTHANDLERHIGH:
   385                           	callstack 0
   386   000052                     	ds	2
   387   000054                     _INT2_INTERRUPTHANDLER:
   388                           	callstack 0
   389   000054                     	ds	2
   390   000056                     _INT1_INTERRUPTHANDLER:
   391                           	callstack 0
   392   000056                     	ds	2
   393   000058                     _INT0_INTERRUPTHANDLER:
   394                           	callstack 0
   395   000058                     	ds	2
   396   00005A                     relay_turn_off@F3065:
   397                           	callstack 0
   398   00005A                     	ds	1
   399   00005B                     relay_turn_on@F3060:
   400                           	callstack 0
   401   00005B                     	ds	1
   402   00005C                     relay_initialization@F3055:
   403                           	callstack 0
   404   00005C                     	ds	1
   405   00005D                     led_turn_toggle@F3077:
   406                           	callstack 0
   407   00005D                     	ds	1
   408   00005E                     led_turn_off@F3072:
   409                           	callstack 0
   410   00005E                     	ds	1
   411   00005F                     led_turn_on@F3067:
   412                           	callstack 0
   413   00005F                     	ds	1
   414   000060                     led_initialize@F3062:
   415                           	callstack 0
   416   000060                     	ds	1
   417   000061                     _value:
   418                           	callstack 0
   419   000061                     	ds	2
   420                           
   421                           	psect	dataCOMRAM
   422   000001                     __pdataCOMRAM:
   423                           	callstack 0
   424   000001                     _keypad_values:
   425                           	callstack 0
   426   000001                     	ds	16
   427   000011                     _port_registers:
   428                           	callstack 0
   429   000011                     	ds	10
   430   00001B                     _lat_registers:
   431                           	callstack 0
   432   00001B                     	ds	10
   433   000025                     _tris_registers:
   434                           	callstack 0
   435   000025                     	ds	10
   436   00002F                     _RB7_F:
   437                           	callstack 0
   438   00002F                     	ds	1
   439   000030                     _RB6_F:
   440                           	callstack 0
   441   000030                     	ds	1
   442   000031                     _RB5_F:
   443                           	callstack 0
   444   000031                     	ds	1
   445   000032                     _RB4_F:
   446                           	callstack 0
   447   000032                     	ds	1
   448   000033                     _led3:
   449                           	callstack 0
   450   000033                     	ds	1
   451   000034                     _led2:
   452                           	callstack 0
   453   000034                     	ds	1
   454   000035                     _timer:
   455                           	callstack 0
   456   000035                     	ds	6
   457   00003B                     _led1:
   458                           	callstack 0
   459   00003B                     	ds	1
   460                           
   461                           	psect	cstackBANK0
   462   000080                     __pcstackBANK0:
   463                           	callstack 0
   464   000080                     gpio_pin_direction_intialize@_pin_config:
   465                           	callstack 0
   466   000080                     gpio_pin_write_logic@_pin_config:
   467                           	callstack 0
   468   000080                     TIMER1_Read_Value@timer:
   469                           	callstack 0
   470   000080                     TIMER1_MODE_SELECT@timer:
   471                           	callstack 0
   472   000080                     TIMER1_SIZE_SELECT@timer:
   473                           	callstack 0
   474                           
   475                           ; 1 bytes @ 0x0
   476   000080                     	ds	1
   477   000081                     ??_gpio_pin_direction_intialize:
   478   000081                     gpio_pin_write_logic@logic:
   479                           	callstack 0
   480   000081                     TIMER1_INIT@timer:
   481                           	callstack 0
   482   000081                     TIMER1_Read_Value@val:
   483                           	callstack 0
   484                           
   485                           ; 1 bytes @ 0x1
   486   000081                     	ds	1
   487   000082                     ??_gpio_pin_write_logic:
   488   000082                     ??_TIMER1_INIT:
   489   000082                     ??_TIMER1_Read_Value:
   490                           
   491                           ; 1 bytes @ 0x2
   492   000082                     	ds	4
   493   000086                     gpio_pin_direction_intialize@ret:
   494                           	callstack 0
   495   000086                     TIMER1_Read_Value@ret:
   496                           	callstack 0
   497                           
   498                           ; 1 bytes @ 0x6
   499   000086                     	ds	1
   500   000087                     gpio_pin_write_logic@ret:
   501                           	callstack 0
   502   000087                     TIMER1_Read_Value@l_val:
   503                           	callstack 0
   504                           
   505                           ; 1 bytes @ 0x7
   506   000087                     	ds	1
   507   000088                     gpio_pin_initialize@_pin_config:
   508                           	callstack 0
   509   000088                     TIMER1_Read_Value@h_val:
   510                           	callstack 0
   511                           
   512                           ; 1 bytes @ 0x8
   513   000088                     	ds	1
   514   000089                     gpio_pin_initialize@ret:
   515                           	callstack 0
   516                           
   517                           ; 1 bytes @ 0x9
   518   000089                     	ds	1
   519   00008A                     led_initialize@led:
   520                           	callstack 0
   521                           
   522                           ; 1 bytes @ 0xA
   523   00008A                     	ds	1
   524   00008B                     ??_led_initialize:
   525                           
   526                           ; 1 bytes @ 0xB
   527   00008B                     	ds	1
   528   00008C                     led_initialize@pin_obj:
   529                           	callstack 0
   530                           
   531                           ; 1 bytes @ 0xC
   532   00008C                     	ds	1
   533   00008D                     
   534                           ; 1 bytes @ 0xD
   535                           
   536                           	psect	cstackCOMRAM
   537   000063                     __pcstackCOMRAM:
   538                           	callstack 0
   539   000063                     gpio_pin_toggle_logic@_pin_config:
   540                           	callstack 0
   541   000063                     RB4_ISR@n:
   542                           	callstack 0
   543   000063                     RB5_ISR@n:
   544                           	callstack 0
   545   000063                     RB6_ISR@n:
   546                           	callstack 0
   547   000063                     RB7_ISR@n:
   548                           	callstack 0
   549                           
   550                           ; 1 bytes @ 0x0
   551   000063                     	ds	1
   552   000064                     ??_gpio_pin_toggle_logic:
   553                           
   554                           ; 1 bytes @ 0x1
   555   000064                     	ds	4
   556   000068                     led_turn_toggle@led:
   557                           	callstack 0
   558                           
   559                           ; 1 bytes @ 0x5
   560   000068                     	ds	1
   561   000069                     ??_led_turn_toggle:
   562                           
   563                           ; 1 bytes @ 0x6
   564   000069                     	ds	1
   565   00006A                     led_turn_toggle@pin_obj:
   566                           	callstack 0
   567                           
   568                           ; 1 bytes @ 0x7
   569   00006A                     	ds	1
   570   00006B                     ??_InterruptMangaer:
   571   00006B                     
   572                           ; 1 bytes @ 0x8
   573   00006B                     	ds	6
   574                           
   575 ;;
   576 ;;Main: autosize = 0, tempsize = 0, incstack = 0, save=0
   577 ;;
   578 ;; *************** function _main *****************
   579 ;; Defined at:
   580 ;;		line 16 in file "application.c"
   581 ;; Parameters:    Size  Location     Type
   582 ;;		None
   583 ;; Auto vars:     Size  Location     Type
   584 ;;		None
   585 ;; Return value:  Size  Location     Type
   586 ;;                  2  968[None  ] int 
   587 ;; Registers used:
   588 ;;		wreg, fsr2l, fsr2h, status,2, status,0, prodl, prodh, cstack
   589 ;; Tracked objects:
   590 ;;		On entry : 0/0
   591 ;;		On exit  : 0/0
   592 ;;		Unchanged: 0/0
   593 ;; Data sizes:     COMRAM   BANK0   BANK1   BANK2   BANK3   BANK4   BANK5   BANK6   BANK7   BANK8   BANK9  BANK10  BANK1
      +1  BANK12  BANK13  BANK14  BANK15
   594 ;;      Params:         0       0       0       0       0       0       0       0       0       0       0       0       
      +0       0       0       0       0
   595 ;;      Locals:         0       0       0       0       0       0       0       0       0       0       0       0       
      +0       0       0       0       0
   596 ;;      Temps:          0       0       0       0       0       0       0       0       0       0       0       0       
      +0       0       0       0       0
   597 ;;      Totals:         0       0       0       0       0       0       0       0       0       0       0       0       
      +0       0       0       0       0
   598 ;;Total ram usage:        0 bytes
   599 ;; Hardware stack levels required when called: 10
   600 ;; This function calls:
   601 ;;		_TIMER1_INIT
   602 ;;		_TIMER1_Read_Value
   603 ;;		_application_initialize
   604 ;; This function is called by:
   605 ;;		Startup code after reset
   606 ;; This function uses a non-reentrant model
   607 ;;
   608                           
   609                           	psect	text0
   610   0018DC                     __ptext0:
   611                           	callstack 0
   612   0018DC                     _main:
   613                           	callstack 21
   614   0018DC                     
   615                           ;application.c: 17:     application_initialize();
   616   0018DC  ECC6  F00C         	call	_application_initialize	;wreg free
   617   0018E0                     
   618                           ;application.c: 18:     TIMER1_INIT(&timer);
   619   0018E0  0E35               	movlw	low _timer
   620   0018E2  0100               	movlb	0	; () banked
   621   0018E4  6F81               	movwf	TIMER1_INIT@timer& (0+255),b
   622   0018E6  EC96  F00A         	call	_TIMER1_INIT	;wreg free
   623   0018EA                     l5123:
   624                           
   625                           ;application.c: 22:         TIMER1_Read_Value(&timer,&value);
   626   0018EA  0E35               	movlw	low _timer
   627   0018EC  0100               	movlb	0	; () banked
   628   0018EE  6F80               	movwf	TIMER1_Read_Value@timer& (0+255),b
   629   0018F0  0E61               	movlw	low _value
   630   0018F2  6F81               	movwf	TIMER1_Read_Value@val& (0+255),b
   631   0018F4  ECD4  F00B         	call	_TIMER1_Read_Value	;wreg free
   632   0018F8  EF75  F00C         	goto	l5123
   633   0018FC  EF07  F000         	goto	start
   634   001900                     __end_of_main:
   635                           	callstack 0
   636                           
   637 ;; *************** function _application_initialize *****************
   638 ;; Defined at:
   639 ;;		line 26 in file "application.c"
   640 ;; Parameters:    Size  Location     Type
   641 ;;		None
   642 ;; Auto vars:     Size  Location     Type
   643 ;;		None
   644 ;; Return value:  Size  Location     Type
   645 ;;                  1    wreg      void 
   646 ;; Registers used:
   647 ;;		wreg, fsr2l, fsr2h, status,2, status,0, prodl, prodh, cstack
   648 ;; Tracked objects:
   649 ;;		On entry : 0/0
   650 ;;		On exit  : 0/0
   651 ;;		Unchanged: 0/0
   652 ;; Data sizes:     COMRAM   BANK0   BANK1   BANK2   BANK3   BANK4   BANK5   BANK6   BANK7   BANK8   BANK9  BANK10  BANK1
      +1  BANK12  BANK13  BANK14  BANK15
   653 ;;      Params:         0       0       0       0       0       0       0       0       0       0       0       0       
      +0       0       0       0       0
   654 ;;      Locals:         0       0       0       0       0       0       0       0       0       0       0       0       
      +0       0       0       0       0
   655 ;;      Temps:          0       0       0       0       0       0       0       0       0       0       0       0       
      +0       0       0       0       0
   656 ;;      Totals:         0       0       0       0       0       0       0       0       0       0       0       0       
      +0       0       0       0       0
   657 ;;Total ram usage:        0 bytes
   658 ;; Hardware stack levels used: 1
   659 ;; Hardware stack levels required when called: 9
   660 ;; This function calls:
   661 ;;		_Ecu_initialize
   662 ;; This function is called by:
   663 ;;		_main
   664 ;; This function uses a non-reentrant model
   665 ;;
   666                           
   667                           	psect	text1
   668   00198C                     __ptext1:
   669                           	callstack 0
   670   00198C                     _application_initialize:
   671                           	callstack 21
   672   00198C                     
   673                           ;application.c: 27:     ret = Ecu_initialize();
   674   00198C  ECB5  F00C         	call	_Ecu_initialize	;wreg free
   675   001990  6E71               	movwf	_ret^0,c
   676   001992  0012               	return		;funcret
   677   001994                     __end_of_application_initialize:
   678                           	callstack 0
   679                           
   680 ;; *************** function _Ecu_initialize *****************
   681 ;; Defined at:
   682 ;;		line 42 in file "ECU_Layer/ECU_LAYER.c"
   683 ;; Parameters:    Size  Location     Type
   684 ;;		None
   685 ;; Auto vars:     Size  Location     Type
   686 ;;		None
   687 ;; Return value:  Size  Location     Type
   688 ;;                  1    wreg      unsigned char 
   689 ;; Registers used:
   690 ;;		wreg, fsr2l, fsr2h, status,2, status,0, prodl, prodh, cstack
   691 ;; Tracked objects:
   692 ;;		On entry : 0/0
   693 ;;		On exit  : 0/0
   694 ;;		Unchanged: 0/0
   695 ;; Data sizes:     COMRAM   BANK0   BANK1   BANK2   BANK3   BANK4   BANK5   BANK6   BANK7   BANK8   BANK9  BANK10  BANK1
      +1  BANK12  BANK13  BANK14  BANK15
   696 ;;      Params:         0       0       0       0       0       0       0       0       0       0       0       0       
      +0       0       0       0       0
   697 ;;      Locals:         0       0       0       0       0       0       0       0       0       0       0       0       
      +0       0       0       0       0
   698 ;;      Temps:          0       0       0       0       0       0       0       0       0       0       0       0       
      +0       0       0       0       0
   699 ;;      Totals:         0       0       0       0       0       0       0       0       0       0       0       0       
      +0       0       0       0       0
   700 ;;Total ram usage:        0 bytes
   701 ;; Hardware stack levels used: 1
   702 ;; Hardware stack levels required when called: 8
   703 ;; This function calls:
   704 ;;		_led_initialize
   705 ;; This function is called by:
   706 ;;		_application_initialize
   707 ;; This function uses a non-reentrant model
   708 ;;
   709                           
   710                           	psect	text2
   711   00196A                     __ptext2:
   712                           	callstack 0
   713   00196A                     _Ecu_initialize:
   714                           	callstack 21
   715   00196A                     
   716                           ;ECU_Layer/ECU_LAYER.c: 44:     led_initialize(&led1);
   717   00196A  0E3B               	movlw	low _led1
   718   00196C  0100               	movlb	0	; () banked
   719   00196E  6F8A               	movwf	led_initialize@led& (0+255),b
   720   001970  ECE3  F00A         	call	_led_initialize	;wreg free
   721   001974  0012               	return		;funcret
   722   001976                     __end_of_Ecu_initialize:
   723                           	callstack 0
   724                           
   725 ;; *************** function _led_initialize *****************
   726 ;; Defined at:
   727 ;;		line 13 in file "ECU_Layer/LED/ecu_led.c"
   728 ;; Parameters:    Size  Location     Type
   729 ;;  led             1   10[BANK0 ] PTR const struct .
   730 ;;		 -> led1(1), 
   731 ;; Auto vars:     Size  Location     Type
   732 ;;  pin_obj         1   12[BANK0 ] struct .
   733 ;;  ret             1    0        unsigned char 
   734 ;; Return value:  Size  Location     Type
   735 ;;                  1    wreg      unsigned char 
   736 ;; Registers used:
   737 ;;		wreg, fsr2l, fsr2h, status,2, status,0, prodl, prodh, cstack
   738 ;; Tracked objects:
   739 ;;		On entry : 0/0
   740 ;;		On exit  : 0/0
   741 ;;		Unchanged: 0/0
   742 ;; Data sizes:     COMRAM   BANK0   BANK1   BANK2   BANK3   BANK4   BANK5   BANK6   BANK7   BANK8   BANK9  BANK10  BANK1
      +1  BANK12  BANK13  BANK14  BANK15
   743 ;;      Params:         0       1       0       0       0       0       0       0       0       0       0       0       
      +0       0       0       0       0
   744 ;;      Locals:         0       1       0       0       0       0       0       0       0       0       0       0       
      +0       0       0       0       0
   745 ;;      Temps:          0       1       0       0       0       0       0       0       0       0       0       0       
      +0       0       0       0       0
   746 ;;      Totals:         0       3       0       0       0       0       0       0       0       0       0       0       
      +0       0       0       0       0
   747 ;;Total ram usage:        3 bytes
   748 ;; Hardware stack levels used: 1
   749 ;; Hardware stack levels required when called: 7
   750 ;; This function calls:
   751 ;;		_gpio_pin_initialize
   752 ;; This function is called by:
   753 ;;		_Ecu_initialize
   754 ;; This function uses a non-reentrant model
   755 ;;
   756                           
   757                           	psect	text3
   758   0015C6                     __ptext3:
   759                           	callstack 0
   760   0015C6                     _led_initialize:
   761                           	callstack 21
   762   0015C6                     
   763                           ;ECU_Layer/LED/ecu_led.c: 15:     if(led == ((void*)0)){
   764   0015C6  0100               	movlb	0	; () banked
   765   0015C8  518A               	movf	led_initialize@led& (0+255),w,b
   766   0015CA  A4D8               	btfss	status,2,c
   767   0015CC  EFEA  F00A         	goto	u3291
   768   0015D0  EFEC  F00A         	goto	u3290
   769   0015D4                     u3291:
   770   0015D4  EFEE  F00A         	goto	l245
   771   0015D8                     u3290:
   772   0015D8                     
   773                           ; BSR set to: 0
   774                           ;ECU_Layer/LED/ecu_led.c: 17:     }
   775   0015D8  EF19  F00B         	goto	l249
   776   0015DC                     l245:
   777                           
   778                           ; BSR set to: 0
   779                           ;ECU_Layer/LED/ecu_led.c: 19:         pin_config_t pin_obj = {.port = led->port_name, .p
      +                          in = led->pin_name,
   780   0015DC  C060  F08C         	movff	led_initialize@F3062,led_initialize@pin_obj
   781   0015E0                     
   782                           ; BSR set to: 0
   783   0015E0  518A               	movf	led_initialize@led& (0+255),w,b
   784   0015E2  6ED9               	movwf	fsr2l,c
   785   0015E4  6ADA               	clrf	fsr2h,c
   786   0015E6  50DF               	movf	223,w,c
   787   0015E8  0B07               	andlw	7
   788   0015EA  6F8B               	movwf	??_led_initialize& (0+255),b
   789   0015EC  518C               	movf	led_initialize@pin_obj& (0+255),w,b
   790   0015EE  198B               	xorwf	??_led_initialize& (0+255),w,b
   791   0015F0  0BF8               	andlw	-8
   792   0015F2  198B               	xorwf	??_led_initialize& (0+255),w,b
   793   0015F4  6F8C               	movwf	led_initialize@pin_obj& (0+255),b
   794   0015F6  518A               	movf	led_initialize@led& (0+255),w,b
   795   0015F8  6ED9               	movwf	fsr2l,c
   796   0015FA  6ADA               	clrf	fsr2h,c
   797   0015FC  30DF               	rrcf	223,w,c
   798   0015FE  32E8               	rrcf	wreg,f,c
   799   001600  32E8               	rrcf	wreg,f,c
   800   001602  0B07               	andlw	7
   801   001604  6F8B               	movwf	??_led_initialize& (0+255),b
   802   001606  478B               	rlncf	??_led_initialize& (0+255),f,b
   803   001608  478B               	rlncf	??_led_initialize& (0+255),f,b
   804   00160A  478B               	rlncf	??_led_initialize& (0+255),f,b
   805   00160C  518C               	movf	led_initialize@pin_obj& (0+255),w,b
   806   00160E  198B               	xorwf	??_led_initialize& (0+255),w,b
   807   001610  0BC7               	andlw	-57
   808   001612  198B               	xorwf	??_led_initialize& (0+255),w,b
   809   001614  6F8C               	movwf	led_initialize@pin_obj& (0+255),b
   810   001616                     
   811                           ; BSR set to: 0
   812   001616  9D8C               	bcf	led_initialize@pin_obj& (0+255),6,b
   813   001618                     
   814                           ; BSR set to: 0
   815   001618  518A               	movf	led_initialize@led& (0+255),w,b
   816   00161A  6ED9               	movwf	fsr2l,c
   817   00161C  6ADA               	clrf	fsr2h,c
   818   00161E  ACDF               	btfss	indf2,6,c
   819   001620  D002               	bra	u3305
   820   001622  8F8C               	bsf	led_initialize@pin_obj& (0+255),7,b
   821   001624  D002               	bra	u3307
   822   001626                     u3305:
   823   001626  0100               	movlb	0	; () banked
   824   001628  9F8C               	bcf	led_initialize@pin_obj& (0+255),7,b
   825   00162A                     u3307:
   826   00162A                     
   827                           ; BSR set to: 0
   828                           ;ECU_Layer/LED/ecu_led.c: 21:         gpio_pin_initialize(&pin_obj);
   829   00162A  0E8C               	movlw	low led_initialize@pin_obj
   830   00162C  6F88               	movwf	gpio_pin_initialize@_pin_config& (0+255),b
   831   00162E  ECF8  F00B         	call	_gpio_pin_initialize	;wreg free
   832   001632                     l249:
   833   001632  0012               	return		;funcret
   834   001634                     __end_of_led_initialize:
   835                           	callstack 0
   836                           
   837 ;; *************** function _gpio_pin_initialize *****************
   838 ;; Defined at:
   839 ;;		line 134 in file "MCAL_Layer/GPIO/hal_gpio.c"
   840 ;; Parameters:    Size  Location     Type
   841 ;;  _pin_config     1    8[BANK0 ] PTR const struct .
   842 ;;		 -> relay_initialization@pin_obj(1), led_initialize@pin_obj(1), 
   843 ;; Auto vars:     Size  Location     Type
   844 ;;  ret             1    9[BANK0 ] unsigned char 
   845 ;; Return value:  Size  Location     Type
   846 ;;                  1    wreg      unsigned char 
   847 ;; Registers used:
   848 ;;		wreg, fsr2l, fsr2h, status,2, status,0, prodl, prodh, cstack
   849 ;; Tracked objects:
   850 ;;		On entry : 0/0
   851 ;;		On exit  : 0/0
   852 ;;		Unchanged: 0/0
   853 ;; Data sizes:     COMRAM   BANK0   BANK1   BANK2   BANK3   BANK4   BANK5   BANK6   BANK7   BANK8   BANK9  BANK10  BANK1
      +1  BANK12  BANK13  BANK14  BANK15
   854 ;;      Params:         0       1       0       0       0       0       0       0       0       0       0       0       
      +0       0       0       0       0
   855 ;;      Locals:         0       1       0       0       0       0       0       0       0       0       0       0       
      +0       0       0       0       0
   856 ;;      Temps:          0       0       0       0       0       0       0       0       0       0       0       0       
      +0       0       0       0       0
   857 ;;      Totals:         0       2       0       0       0       0       0       0       0       0       0       0       
      +0       0       0       0       0
   858 ;;Total ram usage:        2 bytes
   859 ;; Hardware stack levels used: 1
   860 ;; Hardware stack levels required when called: 6
   861 ;; This function calls:
   862 ;;		_gpio_pin_direction_intialize
   863 ;;		_gpio_pin_write_logic
   864 ;; This function is called by:
   865 ;;		_led_initialize
   866 ;;		_sev_seg_initialize
   867 ;;		_keypad_initialize
   868 ;;		_lcd_8bit_initialize
   869 ;;		_lcd_4bit_initialize
   870 ;;		_motor_initialize
   871 ;;		_relay_initialization
   872 ;; This function uses a non-reentrant model
   873 ;;
   874                           
   875                           	psect	text4
   876   0017F0                     __ptext4:
   877                           	callstack 0
   878   0017F0                     _gpio_pin_initialize:
   879                           	callstack 21
   880   0017F0                     
   881                           ;MCAL_Layer/GPIO/hal_gpio.c: 135:     std_ReturnType ret = (std_ReturnType)0x01;
   882   0017F0  0E01               	movlw	1
   883   0017F2  0100               	movlb	0	; () banked
   884   0017F4  6F89               	movwf	gpio_pin_initialize@ret& (0+255),b
   885                           
   886                           ;MCAL_Layer/GPIO/hal_gpio.c: 136:     if(((void*)0) == _pin_config ){
   887   0017F6  5188               	movf	gpio_pin_initialize@_pin_config& (0+255),w,b
   888   0017F8  A4D8               	btfss	status,2,c
   889   0017FA  EF01  F00C         	goto	u3281
   890   0017FE  EF03  F00C         	goto	u3280
   891   001802                     u3281:
   892   001802  EF07  F00C         	goto	l4371
   893   001806                     u3280:
   894   001806                     
   895                           ; BSR set to: 0
   896                           ;MCAL_Layer/GPIO/hal_gpio.c: 137:         ret = (std_ReturnType)0x00;
   897   001806  0E00               	movlw	0
   898   001808  6F89               	movwf	gpio_pin_initialize@ret& (0+255),b
   899                           
   900                           ;MCAL_Layer/GPIO/hal_gpio.c: 138:     }
   901   00180A  EF17  F00C         	goto	l4373
   902   00180E                     l4371:
   903                           
   904                           ; BSR set to: 0
   905                           ;MCAL_Layer/GPIO/hal_gpio.c: 140:         gpio_pin_direction_intialize(_pin_config);
   906   00180E  C088  F080         	movff	gpio_pin_initialize@_pin_config,gpio_pin_direction_intialize@_pin_config
   907   001812  EC8F  F009         	call	_gpio_pin_direction_intialize	;wreg free
   908                           
   909                           ;MCAL_Layer/GPIO/hal_gpio.c: 141:         gpio_pin_write_logic(_pin_config,_pin_config->
      +                          logic);
   910   001816  C088  F080         	movff	gpio_pin_initialize@_pin_config,gpio_pin_write_logic@_pin_config
   911   00181A  0100               	movlb	0	; () banked
   912   00181C  5188               	movf	gpio_pin_initialize@_pin_config& (0+255),w,b
   913   00181E  6ED9               	movwf	fsr2l,c
   914   001820  6ADA               	clrf	fsr2h,c
   915   001822  0E00               	movlw	0
   916   001824  BEDF               	btfsc	indf2,7,c
   917   001826  0E01               	movlw	1
   918   001828  6F81               	movwf	gpio_pin_write_logic@logic& (0+255),b
   919   00182A  EC1B  F00A         	call	_gpio_pin_write_logic	;wreg free
   920   00182E                     l4373:
   921                           
   922                           ;MCAL_Layer/GPIO/hal_gpio.c: 143:     return ret;
   923   00182E  0100               	movlb	0	; () banked
   924   001830  5189               	movf	gpio_pin_initialize@ret& (0+255),w,b
   925   001832                     
   926                           ; BSR set to: 0
   927   001832  0012               	return		;funcret
   928   001834                     __end_of_gpio_pin_initialize:
   929                           	callstack 0
   930                           
   931 ;; *************** function _gpio_pin_write_logic *****************
   932 ;; Defined at:
   933 ;;		line 68 in file "MCAL_Layer/GPIO/hal_gpio.c"
   934 ;; Parameters:    Size  Location     Type
   935 ;;  _pin_config     1    0[BANK0 ] PTR const struct .
   936 ;;		 -> relay_turn_off@pin_obj(1), relay_turn_on@pin_obj(1), relay_initialization@pin_obj(1), led_turn_off@pin_obj(1), 
   937 ;;		 -> led_turn_on@pin_obj(1), led_initialize@pin_obj(1), 
   938 ;;  logic           1    1[BANK0 ] enum E2981
   939 ;; Auto vars:     Size  Location     Type
   940 ;;  ret             1    7[BANK0 ] unsigned char 
   941 ;; Return value:  Size  Location     Type
   942 ;;                  1    wreg      unsigned char 
   943 ;; Registers used:
   944 ;;		wreg, fsr2l, fsr2h, status,2, status,0, prodl, prodh
   945 ;; Tracked objects:
   946 ;;		On entry : 0/0
   947 ;;		On exit  : 0/0
   948 ;;		Unchanged: 0/0
   949 ;; Data sizes:     COMRAM   BANK0   BANK1   BANK2   BANK3   BANK4   BANK5   BANK6   BANK7   BANK8   BANK9  BANK10  BANK1
      +1  BANK12  BANK13  BANK14  BANK15
   950 ;;      Params:         0       2       0       0       0       0       0       0       0       0       0       0       
      +0       0       0       0       0
   951 ;;      Locals:         0       1       0       0       0       0       0       0       0       0       0       0       
      +0       0       0       0       0
   952 ;;      Temps:          0       5       0       0       0       0       0       0       0       0       0       0       
      +0       0       0       0       0
   953 ;;      Totals:         0       8       0       0       0       0       0       0       0       0       0       0       
      +0       0       0       0       0
   954 ;;Total ram usage:        8 bytes
   955 ;; Hardware stack levels used: 1
   956 ;; Hardware stack levels required when called: 5
   957 ;; This function calls:
   958 ;;		Nothing
   959 ;; This function is called by:
   960 ;;		_gpio_pin_initialize
   961 ;;		_sev_seg_write_number
   962 ;;		_keypad_read_value
   963 ;;		_lcd_8bit_send_command
   964 ;;		_lcd_8bit_send_char
   965 ;;		_lcd_4bit_send_command
   966 ;;		_lcd_4bit_send_char
   967 ;;		_lcd_send_8bits
   968 ;;		_lcd_send_4bits
   969 ;;		_enable_signal_8bits
   970 ;;		_enable_signal_4bits
   971 ;;		_led_turn_on
   972 ;;		_led_turn_off
   973 ;;		_motor_turn_right
   974 ;;		_motor_turn_left
   975 ;;		_motor_stop
   976 ;;		_relay_turn_on
   977 ;;		_relay_turn_off
   978 ;; This function uses a non-reentrant model
   979 ;;
   980                           
   981                           	psect	text5
   982   001436                     __ptext5:
   983                           	callstack 0
   984   001436                     _gpio_pin_write_logic:
   985                           	callstack 21
   986   001436                     
   987                           ;MCAL_Layer/GPIO/hal_gpio.c: 69:     std_ReturnType ret = (std_ReturnType)0x01;
   988   001436  0E01               	movlw	1
   989   001438  0100               	movlb	0	; () banked
   990   00143A  6F87               	movwf	gpio_pin_write_logic@ret& (0+255),b
   991                           
   992                           ;MCAL_Layer/GPIO/hal_gpio.c: 70:     if(((void*)0) == _pin_config){
   993   00143C  5180               	movf	gpio_pin_write_logic@_pin_config& (0+255),w,b
   994   00143E  A4D8               	btfss	status,2,c
   995   001440  EF24  F00A         	goto	u3201
   996   001444  EF26  F00A         	goto	u3200
   997   001448                     u3201:
   998   001448  EF7F  F00A         	goto	l4339
   999   00144C                     u3200:
  1000   00144C                     
  1001                           ; BSR set to: 0
  1002                           ;MCAL_Layer/GPIO/hal_gpio.c: 71:         ret = (std_ReturnType)0x00;
  1003   00144C  0E00               	movlw	0
  1004   00144E  6F87               	movwf	gpio_pin_write_logic@ret& (0+255),b
  1005                           
  1006                           ;MCAL_Layer/GPIO/hal_gpio.c: 72:     }
  1007   001450  EF94  F00A         	goto	l4341
  1008   001454                     l4333:
  1009                           
  1010                           ; BSR set to: 0
  1011                           ;MCAL_Layer/GPIO/hal_gpio.c: 76:                 (*lat_registers[_pin_config->port] &= ~
      +                          ((uint8)1<<_pin_config->pin));
  1012   001454  5180               	movf	gpio_pin_write_logic@_pin_config& (0+255),w,b
  1013   001456  6ED9               	movwf	fsr2l,c
  1014   001458  6ADA               	clrf	fsr2h,c
  1015   00145A  30DF               	rrcf	223,w,c
  1016   00145C  32E8               	rrcf	wreg,f,c
  1017   00145E  32E8               	rrcf	wreg,f,c
  1018   001460  0B07               	andlw	7
  1019   001462  6F82               	movwf	??_gpio_pin_write_logic& (0+255),b
  1020   001464  0E01               	movlw	1
  1021   001466  6F83               	movwf	(??_gpio_pin_write_logic+1)& (0+255),b
  1022   001468  2B82               	incf	??_gpio_pin_write_logic& (0+255),f,b
  1023   00146A  EF39  F00A         	goto	u3214
  1024   00146E                     u3215:
  1025   00146E  90D8               	bcf	status,0,c
  1026   001470  3783               	rlcf	(??_gpio_pin_write_logic+1)& (0+255),f,b
  1027   001472                     u3214:
  1028   001472  2F82               	decfsz	??_gpio_pin_write_logic& (0+255),f,b
  1029   001474  EF37  F00A         	goto	u3215
  1030   001478  0100               	movlb	0	; () banked
  1031   00147A  5183               	movf	(??_gpio_pin_write_logic+1)& (0+255),w,b
  1032   00147C  0AFF               	xorlw	255
  1033   00147E  6F84               	movwf	(??_gpio_pin_write_logic+2)& (0+255),b
  1034   001480  5180               	movf	gpio_pin_write_logic@_pin_config& (0+255),w,b
  1035   001482  6ED9               	movwf	fsr2l,c
  1036   001484  6ADA               	clrf	fsr2h,c
  1037   001486  50DF               	movf	223,w,c
  1038   001488  0B07               	andlw	7
  1039   00148A  0D02               	mullw	2
  1040   00148C  50F3               	movf	243,w,c
  1041   00148E  0F1B               	addlw	low _lat_registers
  1042   001490  6ED9               	movwf	fsr2l,c
  1043   001492  6ADA               	clrf	fsr2h,c
  1044   001494  CFDE F085          	movff	postinc2,??_gpio_pin_write_logic+3
  1045   001498  CFDD F086          	movff	postdec2,??_gpio_pin_write_logic+4
  1046   00149C  C085  FFD9         	movff	??_gpio_pin_write_logic+3,fsr2l
  1047   0014A0  C086  FFDA         	movff	??_gpio_pin_write_logic+4,fsr2h
  1048   0014A4  5184               	movf	(??_gpio_pin_write_logic+2)& (0+255),w,b
  1049   0014A6  16DF               	andwf	indf2,f,c
  1050                           
  1051                           ;MCAL_Layer/GPIO/hal_gpio.c: 77:                 break;
  1052   0014A8  EF94  F00A         	goto	l4341
  1053   0014AC                     l4335:
  1054                           
  1055                           ; BSR set to: 0
  1056                           ;MCAL_Layer/GPIO/hal_gpio.c: 79:                 (*lat_registers[_pin_config->port] |= (
      +                          (uint8)1<<_pin_config->pin));
  1057   0014AC  5180               	movf	gpio_pin_write_logic@_pin_config& (0+255),w,b
  1058   0014AE  6ED9               	movwf	fsr2l,c
  1059   0014B0  6ADA               	clrf	fsr2h,c
  1060   0014B2  30DF               	rrcf	223,w,c
  1061   0014B4  32E8               	rrcf	wreg,f,c
  1062   0014B6  32E8               	rrcf	wreg,f,c
  1063   0014B8  0B07               	andlw	7
  1064   0014BA  6F82               	movwf	??_gpio_pin_write_logic& (0+255),b
  1065   0014BC  0E01               	movlw	1
  1066   0014BE  6F83               	movwf	(??_gpio_pin_write_logic+1)& (0+255),b
  1067   0014C0  2B82               	incf	??_gpio_pin_write_logic& (0+255),f,b
  1068   0014C2  EF65  F00A         	goto	u3224
  1069   0014C6                     u3225:
  1070   0014C6  90D8               	bcf	status,0,c
  1071   0014C8  3783               	rlcf	(??_gpio_pin_write_logic+1)& (0+255),f,b
  1072   0014CA                     u3224:
  1073   0014CA  2F82               	decfsz	??_gpio_pin_write_logic& (0+255),f,b
  1074   0014CC  EF63  F00A         	goto	u3225
  1075   0014D0  0100               	movlb	0	; () banked
  1076   0014D2  5180               	movf	gpio_pin_write_logic@_pin_config& (0+255),w,b
  1077   0014D4  6ED9               	movwf	fsr2l,c
  1078   0014D6  6ADA               	clrf	fsr2h,c
  1079   0014D8  50DF               	movf	223,w,c
  1080   0014DA  0B07               	andlw	7
  1081   0014DC  0D02               	mullw	2
  1082   0014DE  50F3               	movf	243,w,c
  1083   0014E0  0F1B               	addlw	low _lat_registers
  1084   0014E2  6ED9               	movwf	fsr2l,c
  1085   0014E4  6ADA               	clrf	fsr2h,c
  1086   0014E6  CFDE F084          	movff	postinc2,??_gpio_pin_write_logic+2
  1087   0014EA  CFDD F085          	movff	postdec2,??_gpio_pin_write_logic+3
  1088   0014EE  C084  FFD9         	movff	??_gpio_pin_write_logic+2,fsr2l
  1089   0014F2  C085  FFDA         	movff	??_gpio_pin_write_logic+3,fsr2h
  1090   0014F6  5183               	movf	(??_gpio_pin_write_logic+1)& (0+255),w,b
  1091   0014F8  12DF               	iorwf	indf2,f,c
  1092                           
  1093                           ;MCAL_Layer/GPIO/hal_gpio.c: 80:                 break;
  1094   0014FA  EF94  F00A         	goto	l4341
  1095   0014FE                     l4339:
  1096                           
  1097                           ; BSR set to: 0
  1098   0014FE  5181               	movf	gpio_pin_write_logic@logic& (0+255),w,b
  1099   001500  6F82               	movwf	??_gpio_pin_write_logic& (0+255),b
  1100   001502  6B83               	clrf	(??_gpio_pin_write_logic+1)& (0+255),b
  1101                           
  1102                           ; Switch on 2 bytes has been partitioned into a top level switch of size 1, and 1 sub-sw
      +                          itches
  1103                           ; Switch size 1, requested type "simple"
  1104                           ; Number of cases is 1, Range of values is 0 to 0
  1105                           ; switch strategies available:
  1106                           ; Name         Instructions Cycles
  1107                           ; simple_byte            4     3 (average)
  1108                           ;	Chosen strategy is simple_byte
  1109   001504  5183               	movf	(??_gpio_pin_write_logic+1)& (0+255),w,b
  1110   001506  0A00               	xorlw	0	; case 0
  1111   001508  B4D8               	btfsc	status,2,c
  1112   00150A  EF89  F00A         	goto	l5145
  1113   00150E  EF94  F00A         	goto	l4341
  1114   001512                     l5145:
  1115                           
  1116                           ; BSR set to: 0
  1117                           ; Switch size 1, requested type "simple"
  1118                           ; Number of cases is 2, Range of values is 0 to 1
  1119                           ; switch strategies available:
  1120                           ; Name         Instructions Cycles
  1121                           ; simple_byte            7     4 (average)
  1122                           ;	Chosen strategy is simple_byte
  1123   001512  5182               	movf	??_gpio_pin_write_logic& (0+255),w,b
  1124   001514  0A00               	xorlw	0	; case 0
  1125   001516  B4D8               	btfsc	status,2,c
  1126   001518  EF2A  F00A         	goto	l4333
  1127   00151C  0A01               	xorlw	1	; case 1
  1128   00151E  B4D8               	btfsc	status,2,c
  1129   001520  EF56  F00A         	goto	l4335
  1130   001524  EF94  F00A         	goto	l4341
  1131   001528                     l4341:
  1132                           
  1133                           ; BSR set to: 0
  1134                           ;MCAL_Layer/GPIO/hal_gpio.c: 86:     return ret;
  1135   001528  5187               	movf	gpio_pin_write_logic@ret& (0+255),w,b
  1136   00152A                     
  1137                           ; BSR set to: 0
  1138   00152A  0012               	return		;funcret
  1139   00152C                     __end_of_gpio_pin_write_logic:
  1140                           	callstack 0
  1141                           
  1142 ;; *************** function _gpio_pin_direction_intialize *****************
  1143 ;; Defined at:
  1144 ;;		line 21 in file "MCAL_Layer/GPIO/hal_gpio.c"
  1145 ;; Parameters:    Size  Location     Type
  1146 ;;  _pin_config     1    0[BANK0 ] PTR const struct .
  1147 ;;		 -> relay_initialization@pin_obj(1), led_initialize@pin_obj(1), 
  1148 ;; Auto vars:     Size  Location     Type
  1149 ;;  ret             1    6[BANK0 ] unsigned char 
  1150 ;; Return value:  Size  Location     Type
  1151 ;;                  1    wreg      unsigned char 
  1152 ;; Registers used:
  1153 ;;		wreg, fsr2l, fsr2h, status,2, status,0, prodl, prodh
  1154 ;; Tracked objects:
  1155 ;;		On entry : 0/0
  1156 ;;		On exit  : 0/0
  1157 ;;		Unchanged: 0/0
  1158 ;; Data sizes:     COMRAM   BANK0   BANK1   BANK2   BANK3   BANK4   BANK5   BANK6   BANK7   BANK8   BANK9  BANK10  BANK1
      +1  BANK12  BANK13  BANK14  BANK15
  1159 ;;      Params:         0       1       0       0       0       0       0       0       0       0       0       0       
      +0       0       0       0       0
  1160 ;;      Locals:         0       1       0       0       0       0       0       0       0       0       0       0       
      +0       0       0       0       0
  1161 ;;      Temps:          0       5       0       0       0       0       0       0       0       0       0       0       
      +0       0       0       0       0
  1162 ;;      Totals:         0       7       0       0       0       0       0       0       0       0       0       0       
      +0       0       0       0       0
  1163 ;;Total ram usage:        7 bytes
  1164 ;; Hardware stack levels used: 1
  1165 ;; Hardware stack levels required when called: 5
  1166 ;; This function calls:
  1167 ;;		Nothing
  1168 ;; This function is called by:
  1169 ;;		_gpio_pin_initialize
  1170 ;;		_button_initialize
  1171 ;;		_Interrupt_RBx_Init
  1172 ;;		_Interrupt_INTx_Pin_Init
  1173 ;; This function uses a non-reentrant model
  1174 ;;
  1175                           
  1176                           	psect	text6
  1177   00131E                     __ptext6:
  1178                           	callstack 0
  1179   00131E                     _gpio_pin_direction_intialize:
  1180                           	callstack 21
  1181   00131E                     
  1182                           ;MCAL_Layer/GPIO/hal_gpio.c: 22:     std_ReturnType ret = (std_ReturnType)0x01;
  1183   00131E  0E01               	movlw	1
  1184   001320  0100               	movlb	0	; () banked
  1185   001322  6F86               	movwf	gpio_pin_direction_intialize@ret& (0+255),b
  1186                           
  1187                           ;MCAL_Layer/GPIO/hal_gpio.c: 23:     if(((void*)0) == _pin_config || _pin_config->pin > 
      +                          8 - 1){
  1188   001324  5180               	movf	gpio_pin_direction_intialize@_pin_config& (0+255),w,b
  1189   001326  B4D8               	btfsc	status,2,c
  1190   001328  EF98  F009         	goto	u3231
  1191   00132C  EF9A  F009         	goto	u3230
  1192   001330                     u3231:
  1193   001330  EFAA  F009         	goto	l4353
  1194   001334                     u3230:
  1195   001334                     
  1196                           ; BSR set to: 0
  1197   001334  5180               	movf	gpio_pin_direction_intialize@_pin_config& (0+255),w,b
  1198   001336  6ED9               	movwf	fsr2l,c
  1199   001338  6ADA               	clrf	fsr2h,c
  1200   00133A  30DF               	rrcf	223,w,c
  1201   00133C  32E8               	rrcf	wreg,f,c
  1202   00133E  32E8               	rrcf	wreg,f,c
  1203   001340  0B07               	andlw	7
  1204   001342  6F81               	movwf	??_gpio_pin_direction_intialize& (0+255),b
  1205   001344  0E07               	movlw	7
  1206   001346  6581               	cpfsgt	??_gpio_pin_direction_intialize& (0+255),b
  1207   001348  EFA8  F009         	goto	u3241
  1208   00134C  EFAA  F009         	goto	u3240
  1209   001350                     u3241:
  1210   001350  EF03  F00A         	goto	l4361
  1211   001354                     u3240:
  1212   001354                     l4353:
  1213                           
  1214                           ; BSR set to: 0
  1215                           ;MCAL_Layer/GPIO/hal_gpio.c: 24:         ret = (std_ReturnType)0x00;
  1216   001354  0E00               	movlw	0
  1217   001356  6F86               	movwf	gpio_pin_direction_intialize@ret& (0+255),b
  1218                           
  1219                           ;MCAL_Layer/GPIO/hal_gpio.c: 25:     }
  1220   001358  EF19  F00A         	goto	l4363
  1221   00135C                     l4355:
  1222                           
  1223                           ; BSR set to: 0
  1224                           ;MCAL_Layer/GPIO/hal_gpio.c: 30:             (*tris_registers[_pin_config->port] &= ~((u
      +                          int8)1<<_pin_config->pin));
  1225   00135C  5180               	movf	gpio_pin_direction_intialize@_pin_config& (0+255),w,b
  1226   00135E  6ED9               	movwf	fsr2l,c
  1227   001360  6ADA               	clrf	fsr2h,c
  1228   001362  30DF               	rrcf	223,w,c
  1229   001364  32E8               	rrcf	wreg,f,c
  1230   001366  32E8               	rrcf	wreg,f,c
  1231   001368  0B07               	andlw	7
  1232   00136A  6F81               	movwf	??_gpio_pin_direction_intialize& (0+255),b
  1233   00136C  0E01               	movlw	1
  1234   00136E  6F82               	movwf	(??_gpio_pin_direction_intialize+1)& (0+255),b
  1235   001370  2B81               	incf	??_gpio_pin_direction_intialize& (0+255),f,b
  1236   001372  EFBD  F009         	goto	u3254
  1237   001376                     u3255:
  1238   001376  90D8               	bcf	status,0,c
  1239   001378  3782               	rlcf	(??_gpio_pin_direction_intialize+1)& (0+255),f,b
  1240   00137A                     u3254:
  1241   00137A  2F81               	decfsz	??_gpio_pin_direction_intialize& (0+255),f,b
  1242   00137C  EFBB  F009         	goto	u3255
  1243   001380  0100               	movlb	0	; () banked
  1244   001382  5182               	movf	(??_gpio_pin_direction_intialize+1)& (0+255),w,b
  1245   001384  0AFF               	xorlw	255
  1246   001386  6F83               	movwf	(??_gpio_pin_direction_intialize+2)& (0+255),b
  1247   001388  5180               	movf	gpio_pin_direction_intialize@_pin_config& (0+255),w,b
  1248   00138A  6ED9               	movwf	fsr2l,c
  1249   00138C  6ADA               	clrf	fsr2h,c
  1250   00138E  50DF               	movf	223,w,c
  1251   001390  0B07               	andlw	7
  1252   001392  0D02               	mullw	2
  1253   001394  50F3               	movf	243,w,c
  1254   001396  0F25               	addlw	low _tris_registers
  1255   001398  6ED9               	movwf	fsr2l,c
  1256   00139A  6ADA               	clrf	fsr2h,c
  1257   00139C  CFDE F084          	movff	postinc2,??_gpio_pin_direction_intialize+3
  1258   0013A0  CFDD F085          	movff	postdec2,??_gpio_pin_direction_intialize+4
  1259   0013A4  C084  FFD9         	movff	??_gpio_pin_direction_intialize+3,fsr2l
  1260   0013A8  C085  FFDA         	movff	??_gpio_pin_direction_intialize+4,fsr2h
  1261   0013AC  5183               	movf	(??_gpio_pin_direction_intialize+2)& (0+255),w,b
  1262   0013AE  16DF               	andwf	indf2,f,c
  1263                           
  1264                           ;MCAL_Layer/GPIO/hal_gpio.c: 31:             break;
  1265   0013B0  EF19  F00A         	goto	l4363
  1266   0013B4                     l4357:
  1267                           
  1268                           ; BSR set to: 0
  1269                           ;MCAL_Layer/GPIO/hal_gpio.c: 33:             (*tris_registers[_pin_config->port] |= ((ui
      +                          nt8)1<<_pin_config->pin));
  1270   0013B4  5180               	movf	gpio_pin_direction_intialize@_pin_config& (0+255),w,b
  1271   0013B6  6ED9               	movwf	fsr2l,c
  1272   0013B8  6ADA               	clrf	fsr2h,c
  1273   0013BA  30DF               	rrcf	223,w,c
  1274   0013BC  32E8               	rrcf	wreg,f,c
  1275   0013BE  32E8               	rrcf	wreg,f,c
  1276   0013C0  0B07               	andlw	7
  1277   0013C2  6F81               	movwf	??_gpio_pin_direction_intialize& (0+255),b
  1278   0013C4  0E01               	movlw	1
  1279   0013C6  6F82               	movwf	(??_gpio_pin_direction_intialize+1)& (0+255),b
  1280   0013C8  2B81               	incf	??_gpio_pin_direction_intialize& (0+255),f,b
  1281   0013CA  EFE9  F009         	goto	u3264
  1282   0013CE                     u3265:
  1283   0013CE  90D8               	bcf	status,0,c
  1284   0013D0  3782               	rlcf	(??_gpio_pin_direction_intialize+1)& (0+255),f,b
  1285   0013D2                     u3264:
  1286   0013D2  2F81               	decfsz	??_gpio_pin_direction_intialize& (0+255),f,b
  1287   0013D4  EFE7  F009         	goto	u3265
  1288   0013D8  0100               	movlb	0	; () banked
  1289   0013DA  5180               	movf	gpio_pin_direction_intialize@_pin_config& (0+255),w,b
  1290   0013DC  6ED9               	movwf	fsr2l,c
  1291   0013DE  6ADA               	clrf	fsr2h,c
  1292   0013E0  50DF               	movf	223,w,c
  1293   0013E2  0B07               	andlw	7
  1294   0013E4  0D02               	mullw	2
  1295   0013E6  50F3               	movf	243,w,c
  1296   0013E8  0F25               	addlw	low _tris_registers
  1297   0013EA  6ED9               	movwf	fsr2l,c
  1298   0013EC  6ADA               	clrf	fsr2h,c
  1299   0013EE  CFDE F083          	movff	postinc2,??_gpio_pin_direction_intialize+2
  1300   0013F2  CFDD F084          	movff	postdec2,??_gpio_pin_direction_intialize+3
  1301   0013F6  C083  FFD9         	movff	??_gpio_pin_direction_intialize+2,fsr2l
  1302   0013FA  C084  FFDA         	movff	??_gpio_pin_direction_intialize+3,fsr2h
  1303   0013FE  5182               	movf	(??_gpio_pin_direction_intialize+1)& (0+255),w,b
  1304   001400  12DF               	iorwf	indf2,f,c
  1305                           
  1306                           ;MCAL_Layer/GPIO/hal_gpio.c: 34:             break;
  1307   001402  EF19  F00A         	goto	l4363
  1308   001406                     l4361:
  1309                           
  1310                           ; BSR set to: 0
  1311   001406  5180               	movf	gpio_pin_direction_intialize@_pin_config& (0+255),w,b
  1312   001408  6ED9               	movwf	fsr2l,c
  1313   00140A  6ADA               	clrf	fsr2h,c
  1314   00140C  BCDF               	btfsc	indf2,6,c
  1315   00140E  EF0B  F00A         	goto	u3271
  1316   001412  EF0E  F00A         	goto	u3270
  1317   001416                     u3271:
  1318   001416  0E01               	movlw	1
  1319   001418  EF0F  F00A         	goto	u3276
  1320   00141C                     u3270:
  1321   00141C  0E00               	movlw	0
  1322   00141E                     u3276:
  1323                           
  1324                           ; Switch size 1, requested type "simple"
  1325                           ; Number of cases is 2, Range of values is 0 to 1
  1326                           ; switch strategies available:
  1327                           ; Name         Instructions Cycles
  1328                           ; simple_byte            7     4 (average)
  1329                           ;	Chosen strategy is simple_byte
  1330   00141E  0A00               	xorlw	0	; case 0
  1331   001420  B4D8               	btfsc	status,2,c
  1332   001422  EFAE  F009         	goto	l4355
  1333   001426  0A01               	xorlw	1	; case 1
  1334   001428  B4D8               	btfsc	status,2,c
  1335   00142A  EFDA  F009         	goto	l4357
  1336   00142E  EFAA  F009         	goto	l4353
  1337   001432                     l4363:
  1338                           
  1339                           ; BSR set to: 0
  1340                           ;MCAL_Layer/GPIO/hal_gpio.c: 39:     return ret;
  1341   001432  5186               	movf	gpio_pin_direction_intialize@ret& (0+255),w,b
  1342   001434                     
  1343                           ; BSR set to: 0
  1344   001434  0012               	return		;funcret
  1345   001436                     __end_of_gpio_pin_direction_intialize:
  1346                           	callstack 0
  1347                           
  1348 ;; *************** function _TIMER1_Read_Value *****************
  1349 ;; Defined at:
  1350 ;;		line 84 in file "MCAL_Layer/TIMERS/TIMER1/hal_timer1.c"
  1351 ;; Parameters:    Size  Location     Type
  1352 ;;  timer           1    0[BANK0 ] PTR const struct .
  1353 ;;		 -> timer(6), 
  1354 ;;  val             1    1[BANK0 ] PTR unsigned short 
  1355 ;;		 -> value(2), 
  1356 ;; Auto vars:     Size  Location     Type
  1357 ;;  h_val           1    8[BANK0 ] unsigned char 
  1358 ;;  l_val           1    7[BANK0 ] unsigned char 
  1359 ;;  ret             1    6[BANK0 ] unsigned char 
  1360 ;; Return value:  Size  Location     Type
  1361 ;;                  1    wreg      unsigned char 
  1362 ;; Registers used:
  1363 ;;		wreg, fsr2l, fsr2h, status,2, status,0
  1364 ;; Tracked objects:
  1365 ;;		On entry : 0/0
  1366 ;;		On exit  : 0/0
  1367 ;;		Unchanged: 0/0
  1368 ;; Data sizes:     COMRAM   BANK0   BANK1   BANK2   BANK3   BANK4   BANK5   BANK6   BANK7   BANK8   BANK9  BANK10  BANK1
      +1  BANK12  BANK13  BANK14  BANK15
  1369 ;;      Params:         0       2       0       0       0       0       0       0       0       0       0       0       
      +0       0       0       0       0
  1370 ;;      Locals:         0       3       0       0       0       0       0       0       0       0       0       0       
      +0       0       0       0       0
  1371 ;;      Temps:          0       4       0       0       0       0       0       0       0       0       0       0       
      +0       0       0       0       0
  1372 ;;      Totals:         0       9       0       0       0       0       0       0       0       0       0       0       
      +0       0       0       0       0
  1373 ;;Total ram usage:        9 bytes
  1374 ;; Hardware stack levels used: 1
  1375 ;; Hardware stack levels required when called: 5
  1376 ;; This function calls:
  1377 ;;		Nothing
  1378 ;; This function is called by:
  1379 ;;		_main
  1380 ;; This function uses a non-reentrant model
  1381 ;;
  1382                           
  1383                           	psect	text7
  1384   0017A8                     __ptext7:
  1385                           	callstack 0
  1386   0017A8                     _TIMER1_Read_Value:
  1387                           	callstack 25
  1388   0017A8                     
  1389                           ;MCAL_Layer/TIMERS/TIMER1/hal_timer1.c: 86:     uint8 h_val = 0;
  1390   0017A8  0E00               	movlw	0
  1391   0017AA  0100               	movlb	0	; () banked
  1392   0017AC  6F88               	movwf	TIMER1_Read_Value@h_val& (0+255),b
  1393                           
  1394                           ;MCAL_Layer/TIMERS/TIMER1/hal_timer1.c: 87:     std_ReturnType ret = (std_ReturnType)0x0
      +                          1;
  1395   0017AE  0E01               	movlw	1
  1396   0017B0  6F86               	movwf	TIMER1_Read_Value@ret& (0+255),b
  1397                           
  1398                           ;MCAL_Layer/TIMERS/TIMER1/hal_timer1.c: 88:     if(timer == ((void*)0)){
  1399   0017B2  5180               	movf	TIMER1_Read_Value@timer& (0+255),w,b
  1400   0017B4  A4D8               	btfss	status,2,c
  1401   0017B6  EFDF  F00B         	goto	u3531
  1402   0017BA  EFE1  F00B         	goto	u3530
  1403   0017BE                     u3531:
  1404   0017BE  EFE3  F00B         	goto	l1013
  1405   0017C2                     u3530:
  1406   0017C2                     
  1407                           ; BSR set to: 0
  1408                           ;MCAL_Layer/TIMERS/TIMER1/hal_timer1.c: 90:     }
  1409   0017C2  EFF7  F00B         	goto	l1015
  1410   0017C6                     l1013:
  1411                           
  1412                           ; BSR set to: 0
  1413                           ;MCAL_Layer/TIMERS/TIMER1/hal_timer1.c: 92:         l_val = TMR1L;
  1414   0017C6  CFCE F087          	movff	4046,TIMER1_Read_Value@l_val	;volatile
  1415                           
  1416                           ;MCAL_Layer/TIMERS/TIMER1/hal_timer1.c: 93:         h_val = TMR1H;
  1417   0017CA  CFCF F088          	movff	4047,TIMER1_Read_Value@h_val	;volatile
  1418   0017CE                     
  1419                           ; BSR set to: 0
  1420                           ;MCAL_Layer/TIMERS/TIMER1/hal_timer1.c: 94:         *val = (uint16)(l_val + (h_val << 8)
      +                          );
  1421   0017CE  5188               	movf	TIMER1_Read_Value@h_val& (0+255),w,b
  1422   0017D0  6F83               	movwf	(??_TIMER1_Read_Value+1)& (0+255),b
  1423   0017D2  6B82               	clrf	??_TIMER1_Read_Value& (0+255),b
  1424   0017D4  5187               	movf	TIMER1_Read_Value@l_val& (0+255),w,b
  1425   0017D6  2582               	addwf	??_TIMER1_Read_Value& (0+255),w,b
  1426   0017D8  6F84               	movwf	(??_TIMER1_Read_Value+2)& (0+255),b
  1427   0017DA  0E00               	movlw	0
  1428   0017DC  2183               	addwfc	(??_TIMER1_Read_Value+1)& (0+255),w,b
  1429   0017DE  6F85               	movwf	(??_TIMER1_Read_Value+3)& (0+255),b
  1430   0017E0  5181               	movf	TIMER1_Read_Value@val& (0+255),w,b
  1431   0017E2  6ED9               	movwf	fsr2l,c
  1432   0017E4  6ADA               	clrf	fsr2h,c
  1433   0017E6  C084  FFDE         	movff	??_TIMER1_Read_Value+2,postinc2
  1434   0017EA  C085  FFDD         	movff	??_TIMER1_Read_Value+3,postdec2
  1435   0017EE                     l1015:
  1436                           
  1437                           ; BSR set to: 0
  1438   0017EE  0012               	return		;funcret
  1439   0017F0                     __end_of_TIMER1_Read_Value:
  1440                           	callstack 0
  1441                           
  1442 ;; *************** function _TIMER1_INIT *****************
  1443 ;; Defined at:
  1444 ;;		line 20 in file "MCAL_Layer/TIMERS/TIMER1/hal_timer1.c"
  1445 ;; Parameters:    Size  Location     Type
  1446 ;;  timer           1    1[BANK0 ] PTR const struct .
  1447 ;;		 -> timer(6), 
  1448 ;; Auto vars:     Size  Location     Type
  1449 ;;  ret             1    0        unsigned char 
  1450 ;; Return value:  Size  Location     Type
  1451 ;;                  1    wreg      unsigned char 
  1452 ;; Registers used:
  1453 ;;		wreg, fsr2l, fsr2h, status,2, status,0, cstack
  1454 ;; Tracked objects:
  1455 ;;		On entry : 0/0
  1456 ;;		On exit  : 0/0
  1457 ;;		Unchanged: 0/0
  1458 ;; Data sizes:     COMRAM   BANK0   BANK1   BANK2   BANK3   BANK4   BANK5   BANK6   BANK7   BANK8   BANK9  BANK10  BANK1
      +1  BANK12  BANK13  BANK14  BANK15
  1459 ;;      Params:         0       1       0       0       0       0       0       0       0       0       0       0       
      +0       0       0       0       0
  1460 ;;      Locals:         0       0       0       0       0       0       0       0       0       0       0       0       
      +0       0       0       0       0
  1461 ;;      Temps:          0       2       0       0       0       0       0       0       0       0       0       0       
      +0       0       0       0       0
  1462 ;;      Totals:         0       3       0       0       0       0       0       0       0       0       0       0       
      +0       0       0       0       0
  1463 ;;Total ram usage:        3 bytes
  1464 ;; Hardware stack levels used: 1
  1465 ;; Hardware stack levels required when called: 6
  1466 ;; This function calls:
  1467 ;;		_TIMER1_MODE_SELECT
  1468 ;;		_TIMER1_SIZE_SELECT
  1469 ;; This function is called by:
  1470 ;;		_main
  1471 ;; This function uses a non-reentrant model
  1472 ;;
  1473                           
  1474                           	psect	text8
  1475   00152C                     __ptext8:
  1476                           	callstack 0
  1477   00152C                     _TIMER1_INIT:
  1478                           	callstack 24
  1479   00152C                     
  1480                           ;MCAL_Layer/TIMERS/TIMER1/hal_timer1.c: 22:     if(timer == ((void*)0)){
  1481   00152C  0100               	movlb	0	; () banked
  1482   00152E  5181               	movf	TIMER1_INIT@timer& (0+255),w,b
  1483   001530  A4D8               	btfss	status,2,c
  1484   001532  EF9D  F00A         	goto	u3521
  1485   001536  EF9F  F00A         	goto	u3520
  1486   00153A                     u3521:
  1487   00153A  EFA1  F00A         	goto	l998
  1488   00153E                     u3520:
  1489   00153E                     
  1490                           ; BSR set to: 0
  1491                           ;MCAL_Layer/TIMERS/TIMER1/hal_timer1.c: 24:     }
  1492   00153E  EFE2  F00A         	goto	l1000
  1493   001542                     l998:
  1494                           
  1495                           ; BSR set to: 0
  1496                           ;MCAL_Layer/TIMERS/TIMER1/hal_timer1.c: 26:         (T1CONbits.TMR1ON = 0);
  1497   001542  90CD               	bcf	205,0,c	;volatile
  1498   001544                     
  1499                           ; BSR set to: 0
  1500                           ;MCAL_Layer/TIMERS/TIMER1/hal_timer1.c: 27:         TIMER1_MODE_SELECT(timer);
  1501   001544  C081  F080         	movff	TIMER1_INIT@timer,TIMER1_MODE_SELECT@timer
  1502   001548  ECAA  F00B         	call	_TIMER1_MODE_SELECT	;wreg free
  1503                           
  1504                           ;MCAL_Layer/TIMERS/TIMER1/hal_timer1.c: 28:         TIMER1_SIZE_SELECT(timer);
  1505   00154C  C081  F080         	movff	TIMER1_INIT@timer,TIMER1_SIZE_SELECT@timer
  1506   001550  EC80  F00B         	call	_TIMER1_SIZE_SELECT	;wreg free
  1507   001554                     
  1508                           ;MCAL_Layer/TIMERS/TIMER1/hal_timer1.c: 29:         (T1CONbits.T1CKPS = timer->prescaler
      +                          _val);
  1509   001554  0100               	movlb	0	; () banked
  1510   001556  5181               	movf	TIMER1_INIT@timer& (0+255),w,b
  1511   001558  6ED9               	movwf	fsr2l,c
  1512   00155A  6ADA               	clrf	fsr2h,c
  1513   00155C  0E05               	movlw	5
  1514   00155E  26D9               	addwf	fsr2l,f,c
  1515   001560  50DF               	movf	indf2,w,c
  1516   001562  6F82               	movwf	??_TIMER1_INIT& (0+255),b
  1517   001564  3B82               	swapf	??_TIMER1_INIT& (0+255),f,b
  1518   001566  50CD               	movf	205,w,c	;volatile
  1519   001568  1982               	xorwf	??_TIMER1_INIT& (0+255),w,b
  1520   00156A  0BCF               	andlw	-49
  1521   00156C  1982               	xorwf	??_TIMER1_INIT& (0+255),w,b
  1522   00156E  6ECD               	movwf	205,c	;volatile
  1523   001570                     
  1524                           ; BSR set to: 0
  1525                           ;MCAL_Layer/TIMERS/TIMER1/hal_timer1.c: 30:         TMR1H = (uint8)((timer->prevalue) >>
      +                           8) ;
  1526   001570  5181               	movf	TIMER1_INIT@timer& (0+255),w,b
  1527   001572  6ED9               	movwf	fsr2l,c
  1528   001574  6ADA               	clrf	fsr2h,c
  1529   001576  0E03               	movlw	3
  1530   001578  26D9               	addwf	fsr2l,f,c
  1531   00157A  CFDE F082          	movff	postinc2,??_TIMER1_INIT
  1532   00157E  CFDD F083          	movff	postdec2,??_TIMER1_INIT+1
  1533   001582  C083  F082         	movff	??_TIMER1_INIT+1,??_TIMER1_INIT
  1534   001586  6B83               	clrf	(??_TIMER1_INIT+1)& (0+255),b
  1535   001588  5182               	movf	??_TIMER1_INIT& (0+255),w,b
  1536   00158A  6ECF               	movwf	207,c	;volatile
  1537   00158C                     
  1538                           ; BSR set to: 0
  1539                           ;MCAL_Layer/TIMERS/TIMER1/hal_timer1.c: 31:         TMR1L = (uint8)(timer->prevalue);
  1540   00158C  5181               	movf	TIMER1_INIT@timer& (0+255),w,b
  1541   00158E  6ED9               	movwf	fsr2l,c
  1542   001590  6ADA               	clrf	fsr2h,c
  1543   001592  0E03               	movlw	3
  1544   001594  26D9               	addwf	fsr2l,f,c
  1545   001596  50DF               	movf	indf2,w,c
  1546   001598  6ECE               	movwf	206,c	;volatile
  1547   00159A                     
  1548                           ; BSR set to: 0
  1549                           ;MCAL_Layer/TIMERS/TIMER1/hal_timer1.c: 32:         preval = timer->prevalue;
  1550   00159A  5181               	movf	TIMER1_INIT@timer& (0+255),w,b
  1551   00159C  6ED9               	movwf	fsr2l,c
  1552   00159E  6ADA               	clrf	fsr2h,c
  1553   0015A0  0E03               	movlw	3
  1554   0015A2  26D9               	addwf	fsr2l,f,c
  1555   0015A4  CFDE F03E          	movff	postinc2,_preval
  1556   0015A8  CFDD F03F          	movff	postdec2,_preval+1
  1557   0015AC                     
  1558                           ; BSR set to: 0
  1559                           ;MCAL_Layer/TIMERS/TIMER1/hal_timer1.c: 33:         TMR1_HANDLER = timer->TIMER1_HANDLER
      +                          ;
  1560   0015AC  5181               	movf	TIMER1_INIT@timer& (0+255),w,b
  1561   0015AE  6ED9               	movwf	fsr2l,c
  1562   0015B0  6ADA               	clrf	fsr2h,c
  1563   0015B2  CFDE F03C          	movff	postinc2,_TMR1_HANDLER
  1564   0015B6  CFDD F03D          	movff	postdec2,_TMR1_HANDLER+1
  1565   0015BA                     
  1566                           ; BSR set to: 0
  1567                           ;MCAL_Layer/TIMERS/TIMER1/hal_timer1.c: 47:     (INTCONbits.GIEH = 1);
  1568   0015BA  8EF2               	bsf	242,7,c	;volatile
  1569   0015BC                     
  1570                           ; BSR set to: 0
  1571                           ;MCAL_Layer/TIMERS/TIMER1/hal_timer1.c: 48:     (INTCONbits.PEIE = 1);
  1572   0015BC  8CF2               	bsf	242,6,c	;volatile
  1573   0015BE                     
  1574                           ; BSR set to: 0
  1575                           ;MCAL_Layer/TIMERS/TIMER1/hal_timer1.c: 49:     (PIE1bits.TMR1IE = 1);
  1576   0015BE  809D               	bsf	157,0,c	;volatile
  1577   0015C0                     
  1578                           ; BSR set to: 0
  1579                           ;MCAL_Layer/TIMERS/TIMER1/hal_timer1.c: 50:     (PIR1bits.TMR1IF = 0);
  1580   0015C0  909E               	bcf	158,0,c	;volatile
  1581   0015C2                     
  1582                           ; BSR set to: 0
  1583                           ;MCAL_Layer/TIMERS/TIMER1/hal_timer1.c: 52:     (T1CONbits.TMR1ON = 1);
  1584   0015C2  80CD               	bsf	205,0,c	;volatile
  1585   0015C4                     l1000:
  1586                           
  1587                           ; BSR set to: 0
  1588   0015C4  0012               	return		;funcret
  1589   0015C6                     __end_of_TIMER1_INIT:
  1590                           	callstack 0
  1591                           
  1592 ;; *************** function _TIMER1_SIZE_SELECT *****************
  1593 ;; Defined at:
  1594 ;;		line 120 in file "MCAL_Layer/TIMERS/TIMER1/hal_timer1.c"
  1595 ;; Parameters:    Size  Location     Type
  1596 ;;  timer           1    0[BANK0 ] PTR const struct .
  1597 ;;		 -> timer(6), 
  1598 ;; Auto vars:     Size  Location     Type
  1599 ;;  ret             1    0        unsigned char 
  1600 ;; Return value:  Size  Location     Type
  1601 ;;                  1    wreg      unsigned char 
  1602 ;; Registers used:
  1603 ;;		wreg, fsr2l, fsr2h, status,2, status,0
  1604 ;; Tracked objects:
  1605 ;;		On entry : 0/0
  1606 ;;		On exit  : 0/0
  1607 ;;		Unchanged: 0/0
  1608 ;; Data sizes:     COMRAM   BANK0   BANK1   BANK2   BANK3   BANK4   BANK5   BANK6   BANK7   BANK8   BANK9  BANK10  BANK1
      +1  BANK12  BANK13  BANK14  BANK15
  1609 ;;      Params:         0       1       0       0       0       0       0       0       0       0       0       0       
      +0       0       0       0       0
  1610 ;;      Locals:         0       0       0       0       0       0       0       0       0       0       0       0       
      +0       0       0       0       0
  1611 ;;      Temps:          0       0       0       0       0       0       0       0       0       0       0       0       
      +0       0       0       0       0
  1612 ;;      Totals:         0       1       0       0       0       0       0       0       0       0       0       0       
      +0       0       0       0       0
  1613 ;;Total ram usage:        1 bytes
  1614 ;; Hardware stack levels used: 1
  1615 ;; Hardware stack levels required when called: 5
  1616 ;; This function calls:
  1617 ;;		Nothing
  1618 ;; This function is called by:
  1619 ;;		_TIMER1_INIT
  1620 ;; This function uses a non-reentrant model
  1621 ;;
  1622                           
  1623                           	psect	text9
  1624   001700                     __ptext9:
  1625                           	callstack 0
  1626   001700                     _TIMER1_SIZE_SELECT:
  1627                           	callstack 24
  1628   001700                     
  1629                           ;MCAL_Layer/TIMERS/TIMER1/hal_timer1.c: 122:     if(timer == ((void*)0)){
  1630   001700  0100               	movlb	0	; () banked
  1631   001702  5180               	movf	TIMER1_SIZE_SELECT@timer& (0+255),w,b
  1632   001704  A4D8               	btfss	status,2,c
  1633   001706  EF87  F00B         	goto	u3401
  1634   00170A  EF89  F00B         	goto	u3400
  1635   00170E                     u3401:
  1636   00170E  EF91  F00B         	goto	l4485
  1637   001712                     u3400:
  1638   001712                     l4481:
  1639                           
  1640                           ; BSR set to: 0
  1641                           ;MCAL_Layer/TIMERS/TIMER1/hal_timer1.c: 124:     }
  1642   001712  EFA9  F00B         	goto	l1035
  1643   001716                     l1031:
  1644                           
  1645                           ; BSR set to: 0
  1646                           ;MCAL_Layer/TIMERS/TIMER1/hal_timer1.c: 128:                 (T1CONbits.RD16 = 0);
  1647   001716  9ECD               	bcf	205,7,c	;volatile
  1648                           
  1649                           ;MCAL_Layer/TIMERS/TIMER1/hal_timer1.c: 129:                 break;
  1650   001718  EFA9  F00B         	goto	l1035
  1651   00171C                     l1033:
  1652                           
  1653                           ; BSR set to: 0
  1654                           ;MCAL_Layer/TIMERS/TIMER1/hal_timer1.c: 131:                 (T1CONbits.RD16 = 1);
  1655   00171C  8ECD               	bsf	205,7,c	;volatile
  1656                           
  1657                           ;MCAL_Layer/TIMERS/TIMER1/hal_timer1.c: 132:                 break;
  1658   00171E  EFA9  F00B         	goto	l1035
  1659   001722                     l4485:
  1660                           
  1661                           ; BSR set to: 0
  1662   001722  5180               	movf	TIMER1_SIZE_SELECT@timer& (0+255),w,b
  1663   001724  6ED9               	movwf	fsr2l,c
  1664   001726  6ADA               	clrf	fsr2h,c
  1665   001728  0E02               	movlw	2
  1666   00172A  26D9               	addwf	fsr2l,f,c
  1667   00172C  B2DF               	btfsc	indf2,1,c
  1668   00172E  EF9B  F00B         	goto	u3411
  1669   001732  EF9E  F00B         	goto	u3410
  1670   001736                     u3411:
  1671   001736  0E01               	movlw	1
  1672   001738  EF9F  F00B         	goto	u3416
  1673   00173C                     u3410:
  1674   00173C  0E00               	movlw	0
  1675   00173E                     u3416:
  1676                           
  1677                           ; Switch size 1, requested type "simple"
  1678                           ; Number of cases is 2, Range of values is 0 to 1
  1679                           ; switch strategies available:
  1680                           ; Name         Instructions Cycles
  1681                           ; simple_byte            7     4 (average)
  1682                           ;	Chosen strategy is simple_byte
  1683   00173E  0A00               	xorlw	0	; case 0
  1684   001740  B4D8               	btfsc	status,2,c
  1685   001742  EF8B  F00B         	goto	l1031
  1686   001746  0A01               	xorlw	1	; case 1
  1687   001748  B4D8               	btfsc	status,2,c
  1688   00174A  EF8E  F00B         	goto	l1033
  1689   00174E  EF89  F00B         	goto	l4481
  1690   001752                     l1035:
  1691                           
  1692                           ; BSR set to: 0
  1693   001752  0012               	return		;funcret
  1694   001754                     __end_of_TIMER1_SIZE_SELECT:
  1695                           	callstack 0
  1696                           
  1697 ;; *************** function _TIMER1_MODE_SELECT *****************
  1698 ;; Defined at:
  1699 ;;		line 99 in file "MCAL_Layer/TIMERS/TIMER1/hal_timer1.c"
  1700 ;; Parameters:    Size  Location     Type
  1701 ;;  timer           1    0[BANK0 ] PTR const struct .
  1702 ;;		 -> timer(6), 
  1703 ;; Auto vars:     Size  Location     Type
  1704 ;;  ret             1    0        unsigned char 
  1705 ;; Return value:  Size  Location     Type
  1706 ;;                  1    wreg      unsigned char 
  1707 ;; Registers used:
  1708 ;;		wreg, fsr2l, fsr2h, status,2, status,0
  1709 ;; Tracked objects:
  1710 ;;		On entry : 0/0
  1711 ;;		On exit  : 0/0
  1712 ;;		Unchanged: 0/0
  1713 ;; Data sizes:     COMRAM   BANK0   BANK1   BANK2   BANK3   BANK4   BANK5   BANK6   BANK7   BANK8   BANK9  BANK10  BANK1
      +1  BANK12  BANK13  BANK14  BANK15
  1714 ;;      Params:         0       1       0       0       0       0       0       0       0       0       0       0       
      +0       0       0       0       0
  1715 ;;      Locals:         0       0       0       0       0       0       0       0       0       0       0       0       
      +0       0       0       0       0
  1716 ;;      Temps:          0       0       0       0       0       0       0       0       0       0       0       0       
      +0       0       0       0       0
  1717 ;;      Totals:         0       1       0       0       0       0       0       0       0       0       0       0       
      +0       0       0       0       0
  1718 ;;Total ram usage:        1 bytes
  1719 ;; Hardware stack levels used: 1
  1720 ;; Hardware stack levels required when called: 5
  1721 ;; This function calls:
  1722 ;;		Nothing
  1723 ;; This function is called by:
  1724 ;;		_TIMER1_INIT
  1725 ;; This function uses a non-reentrant model
  1726 ;;
  1727                           
  1728                           	psect	text10
  1729   001754                     __ptext10:
  1730                           	callstack 0
  1731   001754                     _TIMER1_MODE_SELECT:
  1732                           	callstack 24
  1733   001754                     
  1734                           ;MCAL_Layer/TIMERS/TIMER1/hal_timer1.c: 101:     if(timer == ((void*)0)){
  1735   001754  0100               	movlb	0	; () banked
  1736   001756  5180               	movf	TIMER1_MODE_SELECT@timer& (0+255),w,b
  1737   001758  A4D8               	btfss	status,2,c
  1738   00175A  EFB1  F00B         	goto	u3381
  1739   00175E  EFB3  F00B         	goto	u3380
  1740   001762                     u3381:
  1741   001762  EFBB  F00B         	goto	l4477
  1742   001766                     u3380:
  1743   001766                     l4473:
  1744                           
  1745                           ; BSR set to: 0
  1746                           ;MCAL_Layer/TIMERS/TIMER1/hal_timer1.c: 103:     }
  1747   001766  EFD3  F00B         	goto	l1025
  1748   00176A                     l1021:
  1749                           
  1750                           ; BSR set to: 0
  1751                           ;MCAL_Layer/TIMERS/TIMER1/hal_timer1.c: 107:                 (T1CONbits.TMR1CS = 0);
  1752   00176A  92CD               	bcf	205,1,c	;volatile
  1753                           
  1754                           ;MCAL_Layer/TIMERS/TIMER1/hal_timer1.c: 108:                 break;
  1755   00176C  EFD3  F00B         	goto	l1025
  1756   001770                     l1023:
  1757                           
  1758                           ; BSR set to: 0
  1759                           ;MCAL_Layer/TIMERS/TIMER1/hal_timer1.c: 110:                 (T1CONbits.TMR1CS = 1);
  1760   001770  82CD               	bsf	205,1,c	;volatile
  1761                           
  1762                           ;MCAL_Layer/TIMERS/TIMER1/hal_timer1.c: 111:                 break;
  1763   001772  EFD3  F00B         	goto	l1025
  1764   001776                     l4477:
  1765                           
  1766                           ; BSR set to: 0
  1767   001776  5180               	movf	TIMER1_MODE_SELECT@timer& (0+255),w,b
  1768   001778  6ED9               	movwf	fsr2l,c
  1769   00177A  6ADA               	clrf	fsr2h,c
  1770   00177C  0E02               	movlw	2
  1771   00177E  26D9               	addwf	fsr2l,f,c
  1772   001780  B0DF               	btfsc	indf2,0,c
  1773   001782  EFC5  F00B         	goto	u3391
  1774   001786  EFC8  F00B         	goto	u3390
  1775   00178A                     u3391:
  1776   00178A  0E01               	movlw	1
  1777   00178C  EFC9  F00B         	goto	u3396
  1778   001790                     u3390:
  1779   001790  0E00               	movlw	0
  1780   001792                     u3396:
  1781                           
  1782                           ; Switch size 1, requested type "simple"
  1783                           ; Number of cases is 2, Range of values is 0 to 1
  1784                           ; switch strategies available:
  1785                           ; Name         Instructions Cycles
  1786                           ; simple_byte            7     4 (average)
  1787                           ;	Chosen strategy is simple_byte
  1788   001792  0A00               	xorlw	0	; case 0
  1789   001794  B4D8               	btfsc	status,2,c
  1790   001796  EFB5  F00B         	goto	l1021
  1791   00179A  0A01               	xorlw	1	; case 1
  1792   00179C  B4D8               	btfsc	status,2,c
  1793   00179E  EFB8  F00B         	goto	l1023
  1794   0017A2  EFB3  F00B         	goto	l4473
  1795   0017A6                     l1025:
  1796                           
  1797                           ; BSR set to: 0
  1798   0017A6  0012               	return		;funcret
  1799   0017A8                     __end_of_TIMER1_MODE_SELECT:
  1800                           	callstack 0
  1801                           
  1802 ;; *************** function _InterruptMangaer *****************
  1803 ;; Defined at:
  1804 ;;		line 38 in file "MCAL_Layer/Interrupt/mcal_interrupt_manager.c"
  1805 ;; Parameters:    Size  Location     Type
  1806 ;;		None
  1807 ;; Auto vars:     Size  Location     Type
  1808 ;;		None
  1809 ;; Return value:  Size  Location     Type
  1810 ;;                  1    wreg      void 
  1811 ;; Registers used:
  1812 ;;		wreg, fsr2l, fsr2h, status,2, status,0, pcl, pclath, pclatu, tosl, prodl, prodh, cstack
  1813 ;; Tracked objects:
  1814 ;;		On entry : 0/0
  1815 ;;		On exit  : 0/0
  1816 ;;		Unchanged: 0/0
  1817 ;; Data sizes:     COMRAM   BANK0   BANK1   BANK2   BANK3   BANK4   BANK5   BANK6   BANK7   BANK8   BANK9  BANK10  BANK1
      +1  BANK12  BANK13  BANK14  BANK15
  1818 ;;      Params:         0       0       0       0       0       0       0       0       0       0       0       0       
      +0       0       0       0       0
  1819 ;;      Locals:         0       0       0       0       0       0       0       0       0       0       0       0       
      +0       0       0       0       0
  1820 ;;      Temps:          6       0       0       0       0       0       0       0       0       0       0       0       
      +0       0       0       0       0
  1821 ;;      Totals:         6       0       0       0       0       0       0       0       0       0       0       0       
      +0       0       0       0       0
  1822 ;;Total ram usage:        6 bytes
  1823 ;; Hardware stack levels used: 1
  1824 ;; Hardware stack levels required when called: 4
  1825 ;; This function calls:
  1826 ;;		_INT0_ISR
  1827 ;;		_INT1_ISR
  1828 ;;		_INT2_ISR
  1829 ;;		_RB4_ISR
  1830 ;;		_RB5_ISR
  1831 ;;		_RB6_ISR
  1832 ;;		_RB7_ISR
  1833 ;;		_TMR0_ISR
  1834 ;;		_TMR1_ISR
  1835 ;; This function is called by:
  1836 ;;		Interrupt level 2
  1837 ;; This function uses a non-reentrant model
  1838 ;;
  1839                           
  1840                           	psect	intcode
  1841   000008                     __pintcode:
  1842                           	callstack 0
  1843   000008                     _InterruptMangaer:
  1844                           	callstack 21
  1845                           
  1846                           ; BSR set to: 0
  1847                           ;incstack = 0
  1848   000008  8272               	bsf	int$flags,1,c	;set compiler interrupt flag (level 2)
  1849   00000A  ED20  F008         	call	int_func,f	;refresh shadow registers
  1850                           
  1851                           	psect	intcode_body
  1852   001040                     __pintcode_body:
  1853                           	callstack 21
  1854   001040                     int_func:
  1855                           	callstack 21
  1856   001040  0006               	pop		; remove dummy address from shadow register refresh
  1857   001042  CFFA F06B          	movff	pclath,??_InterruptMangaer
  1858   001046  CFFB F06C          	movff	pclatu,??_InterruptMangaer+1
  1859   00104A  CFD9 F06D          	movff	fsr2l,??_InterruptMangaer+2
  1860   00104E  CFDA F06E          	movff	fsr2h,??_InterruptMangaer+3
  1861   001052  CFF3 F06F          	movff	prodl,??_InterruptMangaer+4
  1862   001056  CFF4 F070          	movff	prodh,??_InterruptMangaer+5
  1863   00105A                     
  1864                           ;MCAL_Layer/Interrupt/mcal_interrupt_manager.c: 39:     if((INTCONbits.INT0IE == 1) && (
      +                          INTCONbits.INT0IF == 1)){
  1865   00105A  A8F2               	btfss	242,4,c	;volatile
  1866   00105C  EF32  F008         	goto	i2u280_41
  1867   001060  EF34  F008         	goto	i2u280_40
  1868   001064                     i2u280_41:
  1869   001064  EF3D  F008         	goto	i2l830
  1870   001068                     i2u280_40:
  1871   001068  A2F2               	btfss	242,1,c	;volatile
  1872   00106A  EF39  F008         	goto	i2u281_41
  1873   00106E  EF3B  F008         	goto	i2u281_40
  1874   001072                     i2u281_41:
  1875   001072  EF3D  F008         	goto	i2l830
  1876   001076                     i2u281_40:
  1877   001076                     
  1878                           ;MCAL_Layer/Interrupt/mcal_interrupt_manager.c: 40:         INT0_ISR();
  1879   001076  ECCE  F00C         	call	_INT0_ISR	;wreg free
  1880   00107A                     i2l830:
  1881                           
  1882                           ;MCAL_Layer/Interrupt/mcal_interrupt_manager.c: 45:     if((1 == INTCON3bits.INT1E) && (
      +                          1 == INTCON3bits.INT1F)){
  1883   00107A  A6F0               	btfss	240,3,c	;volatile
  1884   00107C  EF42  F008         	goto	i2u282_41
  1885   001080  EF44  F008         	goto	i2u282_40
  1886   001084                     i2u282_41:
  1887   001084  EF4D  F008         	goto	i2l832
  1888   001088                     i2u282_40:
  1889   001088  A0F0               	btfss	240,0,c	;volatile
  1890   00108A  EF49  F008         	goto	i2u283_41
  1891   00108E  EF4B  F008         	goto	i2u283_40
  1892   001092                     i2u283_41:
  1893   001092  EF4D  F008         	goto	i2l832
  1894   001096                     i2u283_40:
  1895   001096                     
  1896                           ;MCAL_Layer/Interrupt/mcal_interrupt_manager.c: 46:         INT1_ISR();
  1897   001096  ECCC  F00C         	call	_INT1_ISR	;wreg free
  1898   00109A                     i2l832:
  1899                           
  1900                           ;MCAL_Layer/Interrupt/mcal_interrupt_manager.c: 49:     if((1 == INTCON3bits.INT2IE) && 
      +                          (1 == INTCON3bits.INT2IF)){
  1901   00109A  A8F0               	btfss	240,4,c	;volatile
  1902   00109C  EF52  F008         	goto	i2u284_41
  1903   0010A0  EF54  F008         	goto	i2u284_40
  1904   0010A4                     i2u284_41:
  1905   0010A4  EF5D  F008         	goto	i2l834
  1906   0010A8                     i2u284_40:
  1907   0010A8  A2F0               	btfss	240,1,c	;volatile
  1908   0010AA  EF59  F008         	goto	i2u285_41
  1909   0010AE  EF5B  F008         	goto	i2u285_40
  1910   0010B2                     i2u285_41:
  1911   0010B2  EF5D  F008         	goto	i2l834
  1912   0010B6                     i2u285_40:
  1913   0010B6                     
  1914                           ;MCAL_Layer/Interrupt/mcal_interrupt_manager.c: 50:         INT2_ISR();
  1915   0010B6  ECCA  F00C         	call	_INT2_ISR	;wreg free
  1916   0010BA                     i2l834:
  1917                           
  1918                           ;MCAL_Layer/Interrupt/mcal_interrupt_manager.c: 53:     if((INTCONbits.RBIE == 1) && (IN
      +                          TCONbits.RBIF == 1) && (PORTBbits.RB4 == GPIO_HIGH) && (RB4_F == 1)){
  1919   0010BA  A6F2               	btfss	242,3,c	;volatile
  1920   0010BC  EF62  F008         	goto	i2u286_41
  1921   0010C0  EF64  F008         	goto	i2u286_40
  1922   0010C4                     i2u286_41:
  1923   0010C4  EF7F  F008         	goto	i2l836
  1924   0010C8                     i2u286_40:
  1925   0010C8  A0F2               	btfss	242,0,c	;volatile
  1926   0010CA  EF69  F008         	goto	i2u287_41
  1927   0010CE  EF6B  F008         	goto	i2u287_40
  1928   0010D2                     i2u287_41:
  1929   0010D2  EF7F  F008         	goto	i2l836
  1930   0010D6                     i2u287_40:
  1931   0010D6  A881               	btfss	129,4,c	;volatile
  1932   0010D8  EF70  F008         	goto	i2u288_41
  1933   0010DC  EF72  F008         	goto	i2u288_40
  1934   0010E0                     i2u288_41:
  1935   0010E0  EF7F  F008         	goto	i2l836
  1936   0010E4                     i2u288_40:
  1937   0010E4  0432               	decf	_RB4_F^0,w,c	;volatile
  1938   0010E6  A4D8               	btfss	status,2,c
  1939   0010E8  EF78  F008         	goto	i2u289_41
  1940   0010EC  EF7A  F008         	goto	i2u289_40
  1941   0010F0                     i2u289_41:
  1942   0010F0  EF7F  F008         	goto	i2l836
  1943   0010F4                     i2u289_40:
  1944   0010F4                     
  1945                           ;MCAL_Layer/Interrupt/mcal_interrupt_manager.c: 54:         RB4_F = 0;
  1946   0010F4  0E00               	movlw	0
  1947   0010F6  6E32               	movwf	_RB4_F^0,c	;volatile
  1948   0010F8                     
  1949                           ;MCAL_Layer/Interrupt/mcal_interrupt_manager.c: 55:         RB4_ISR(0);
  1950   0010F8  0E00               	movlw	0
  1951   0010FA  EC80  F00C         	call	_RB4_ISR
  1952   0010FE                     i2l836:
  1953                           
  1954                           ;MCAL_Layer/Interrupt/mcal_interrupt_manager.c: 58:     if((INTCONbits.RBIE == 1) && (IN
      +                          TCONbits.RBIF == 1) && (PORTBbits.RB4 == GPIO_LOW) && (RB4_F == 0)){
  1955   0010FE  A6F2               	btfss	242,3,c	;volatile
  1956   001100  EF84  F008         	goto	i2u290_41
  1957   001104  EF86  F008         	goto	i2u290_40
  1958   001108                     i2u290_41:
  1959   001108  EFA1  F008         	goto	i2l838
  1960   00110C                     i2u290_40:
  1961   00110C  A0F2               	btfss	242,0,c	;volatile
  1962   00110E  EF8B  F008         	goto	i2u291_41
  1963   001112  EF8D  F008         	goto	i2u291_40
  1964   001116                     i2u291_41:
  1965   001116  EFA1  F008         	goto	i2l838
  1966   00111A                     i2u291_40:
  1967   00111A  B881               	btfsc	129,4,c	;volatile
  1968   00111C  EF92  F008         	goto	i2u292_41
  1969   001120  EF94  F008         	goto	i2u292_40
  1970   001124                     i2u292_41:
  1971   001124  EFA1  F008         	goto	i2l838
  1972   001128                     i2u292_40:
  1973   001128  5032               	movf	_RB4_F^0,w,c	;volatile
  1974   00112A  A4D8               	btfss	status,2,c
  1975   00112C  EF9A  F008         	goto	i2u293_41
  1976   001130  EF9C  F008         	goto	i2u293_40
  1977   001134                     i2u293_41:
  1978   001134  EFA1  F008         	goto	i2l838
  1979   001138                     i2u293_40:
  1980   001138                     
  1981                           ;MCAL_Layer/Interrupt/mcal_interrupt_manager.c: 59:         RB4_F = 1;
  1982   001138  0E01               	movlw	1
  1983   00113A  6E32               	movwf	_RB4_F^0,c	;volatile
  1984   00113C                     
  1985                           ;MCAL_Layer/Interrupt/mcal_interrupt_manager.c: 60:         RB4_ISR(1);
  1986   00113C  0E01               	movlw	1
  1987   00113E  EC80  F00C         	call	_RB4_ISR
  1988   001142                     i2l838:
  1989                           
  1990                           ;MCAL_Layer/Interrupt/mcal_interrupt_manager.c: 63:     if((INTCONbits.RBIE == 1) && (IN
      +                          TCONbits.RBIF == 1) && (PORTBbits.RB5 == GPIO_HIGH) && (RB5_F == 1)){
  1991   001142  A6F2               	btfss	242,3,c	;volatile
  1992   001144  EFA6  F008         	goto	i2u294_41
  1993   001148  EFA8  F008         	goto	i2u294_40
  1994   00114C                     i2u294_41:
  1995   00114C  EFC3  F008         	goto	i2l840
  1996   001150                     i2u294_40:
  1997   001150  A0F2               	btfss	242,0,c	;volatile
  1998   001152  EFAD  F008         	goto	i2u295_41
  1999   001156  EFAF  F008         	goto	i2u295_40
  2000   00115A                     i2u295_41:
  2001   00115A  EFC3  F008         	goto	i2l840
  2002   00115E                     i2u295_40:
  2003   00115E  AA81               	btfss	129,5,c	;volatile
  2004   001160  EFB4  F008         	goto	i2u296_41
  2005   001164  EFB6  F008         	goto	i2u296_40
  2006   001168                     i2u296_41:
  2007   001168  EFC3  F008         	goto	i2l840
  2008   00116C                     i2u296_40:
  2009   00116C  0431               	decf	_RB5_F^0,w,c	;volatile
  2010   00116E  A4D8               	btfss	status,2,c
  2011   001170  EFBC  F008         	goto	i2u297_41
  2012   001174  EFBE  F008         	goto	i2u297_40
  2013   001178                     i2u297_41:
  2014   001178  EFC3  F008         	goto	i2l840
  2015   00117C                     i2u297_40:
  2016   00117C                     
  2017                           ;MCAL_Layer/Interrupt/mcal_interrupt_manager.c: 64:         RB5_F = 0;
  2018   00117C  0E00               	movlw	0
  2019   00117E  6E31               	movwf	_RB5_F^0,c	;volatile
  2020   001180                     
  2021                           ;MCAL_Layer/Interrupt/mcal_interrupt_manager.c: 65:         RB5_ISR(0);
  2022   001180  0E00               	movlw	0
  2023   001182  ECA8  F00C         	call	_RB5_ISR
  2024   001186                     i2l840:
  2025                           
  2026                           ;MCAL_Layer/Interrupt/mcal_interrupt_manager.c: 68:     if((INTCONbits.RBIE == 1) && (IN
      +                          TCONbits.RBIF == 1) && (PORTBbits.RB5 == GPIO_LOW) && (RB5_F == 0)){
  2027   001186  A6F2               	btfss	242,3,c	;volatile
  2028   001188  EFC8  F008         	goto	i2u298_41
  2029   00118C  EFCA  F008         	goto	i2u298_40
  2030   001190                     i2u298_41:
  2031   001190  EFE5  F008         	goto	i2l842
  2032   001194                     i2u298_40:
  2033   001194  A0F2               	btfss	242,0,c	;volatile
  2034   001196  EFCF  F008         	goto	i2u299_41
  2035   00119A  EFD1  F008         	goto	i2u299_40
  2036   00119E                     i2u299_41:
  2037   00119E  EFE5  F008         	goto	i2l842
  2038   0011A2                     i2u299_40:
  2039   0011A2  BA81               	btfsc	129,5,c	;volatile
  2040   0011A4  EFD6  F008         	goto	i2u300_41
  2041   0011A8  EFD8  F008         	goto	i2u300_40
  2042   0011AC                     i2u300_41:
  2043   0011AC  EFE5  F008         	goto	i2l842
  2044   0011B0                     i2u300_40:
  2045   0011B0  5031               	movf	_RB5_F^0,w,c	;volatile
  2046   0011B2  A4D8               	btfss	status,2,c
  2047   0011B4  EFDE  F008         	goto	i2u301_41
  2048   0011B8  EFE0  F008         	goto	i2u301_40
  2049   0011BC                     i2u301_41:
  2050   0011BC  EFE5  F008         	goto	i2l842
  2051   0011C0                     i2u301_40:
  2052   0011C0                     
  2053                           ;MCAL_Layer/Interrupt/mcal_interrupt_manager.c: 69:         RB5_F = 1;
  2054   0011C0  0E01               	movlw	1
  2055   0011C2  6E31               	movwf	_RB5_F^0,c	;volatile
  2056   0011C4                     
  2057                           ;MCAL_Layer/Interrupt/mcal_interrupt_manager.c: 70:         RB5_ISR(1);
  2058   0011C4  0E01               	movlw	1
  2059   0011C6  ECA8  F00C         	call	_RB5_ISR
  2060   0011CA                     i2l842:
  2061                           
  2062                           ;MCAL_Layer/Interrupt/mcal_interrupt_manager.c: 73:     if((INTCONbits.RBIE == 1) && (IN
      +                          TCONbits.RBIF == 1) && (PORTBbits.RB6 == GPIO_HIGH) && (RB6_F == 1)){
  2063   0011CA  A6F2               	btfss	242,3,c	;volatile
  2064   0011CC  EFEA  F008         	goto	i2u302_41
  2065   0011D0  EFEC  F008         	goto	i2u302_40
  2066   0011D4                     i2u302_41:
  2067   0011D4  EF07  F009         	goto	i2l844
  2068   0011D8                     i2u302_40:
  2069   0011D8  A0F2               	btfss	242,0,c	;volatile
  2070   0011DA  EFF1  F008         	goto	i2u303_41
  2071   0011DE  EFF3  F008         	goto	i2u303_40
  2072   0011E2                     i2u303_41:
  2073   0011E2  EF07  F009         	goto	i2l844
  2074   0011E6                     i2u303_40:
  2075   0011E6  AC81               	btfss	129,6,c	;volatile
  2076   0011E8  EFF8  F008         	goto	i2u304_41
  2077   0011EC  EFFA  F008         	goto	i2u304_40
  2078   0011F0                     i2u304_41:
  2079   0011F0  EF07  F009         	goto	i2l844
  2080   0011F4                     i2u304_40:
  2081   0011F4  0430               	decf	_RB6_F^0,w,c	;volatile
  2082   0011F6  A4D8               	btfss	status,2,c
  2083   0011F8  EF00  F009         	goto	i2u305_41
  2084   0011FC  EF02  F009         	goto	i2u305_40
  2085   001200                     i2u305_41:
  2086   001200  EF07  F009         	goto	i2l844
  2087   001204                     i2u305_40:
  2088   001204                     
  2089                           ;MCAL_Layer/Interrupt/mcal_interrupt_manager.c: 74:         RB6_F = 0;
  2090   001204  0E00               	movlw	0
  2091   001206  6E30               	movwf	_RB6_F^0,c	;volatile
  2092   001208                     
  2093                           ;MCAL_Layer/Interrupt/mcal_interrupt_manager.c: 75:         RB6_ISR(0);
  2094   001208  0E00               	movlw	0
  2095   00120A  EC9B  F00C         	call	_RB6_ISR
  2096   00120E                     i2l844:
  2097                           
  2098                           ;MCAL_Layer/Interrupt/mcal_interrupt_manager.c: 78:     if((INTCONbits.RBIE == 1) && (IN
      +                          TCONbits.RBIF == 1) && (PORTBbits.RB6 == GPIO_LOW) && (RB6_F == 0)){
  2099   00120E  A6F2               	btfss	242,3,c	;volatile
  2100   001210  EF0C  F009         	goto	i2u306_41
  2101   001214  EF0E  F009         	goto	i2u306_40
  2102   001218                     i2u306_41:
  2103   001218  EF29  F009         	goto	i2l846
  2104   00121C                     i2u306_40:
  2105   00121C  A0F2               	btfss	242,0,c	;volatile
  2106   00121E  EF13  F009         	goto	i2u307_41
  2107   001222  EF15  F009         	goto	i2u307_40
  2108   001226                     i2u307_41:
  2109   001226  EF29  F009         	goto	i2l846
  2110   00122A                     i2u307_40:
  2111   00122A  BC81               	btfsc	129,6,c	;volatile
  2112   00122C  EF1A  F009         	goto	i2u308_41
  2113   001230  EF1C  F009         	goto	i2u308_40
  2114   001234                     i2u308_41:
  2115   001234  EF29  F009         	goto	i2l846
  2116   001238                     i2u308_40:
  2117   001238  5030               	movf	_RB6_F^0,w,c	;volatile
  2118   00123A  A4D8               	btfss	status,2,c
  2119   00123C  EF22  F009         	goto	i2u309_41
  2120   001240  EF24  F009         	goto	i2u309_40
  2121   001244                     i2u309_41:
  2122   001244  EF29  F009         	goto	i2l846
  2123   001248                     i2u309_40:
  2124   001248                     
  2125                           ;MCAL_Layer/Interrupt/mcal_interrupt_manager.c: 79:         RB6_F = 1;
  2126   001248  0E01               	movlw	1
  2127   00124A  6E30               	movwf	_RB6_F^0,c	;volatile
  2128   00124C                     
  2129                           ;MCAL_Layer/Interrupt/mcal_interrupt_manager.c: 80:         RB4_ISR(1);
  2130   00124C  0E01               	movlw	1
  2131   00124E  EC80  F00C         	call	_RB4_ISR
  2132   001252                     i2l846:
  2133                           
  2134                           ;MCAL_Layer/Interrupt/mcal_interrupt_manager.c: 83:     if((INTCONbits.RBIE == 1) && (IN
      +                          TCONbits.RBIF == 1) && (PORTBbits.RB7 == GPIO_HIGH) && (RB7_F == 1)){
  2135   001252  A6F2               	btfss	242,3,c	;volatile
  2136   001254  EF2E  F009         	goto	i2u310_41
  2137   001258  EF30  F009         	goto	i2u310_40
  2138   00125C                     i2u310_41:
  2139   00125C  EF4B  F009         	goto	i2l848
  2140   001260                     i2u310_40:
  2141   001260  A0F2               	btfss	242,0,c	;volatile
  2142   001262  EF35  F009         	goto	i2u311_41
  2143   001266  EF37  F009         	goto	i2u311_40
  2144   00126A                     i2u311_41:
  2145   00126A  EF4B  F009         	goto	i2l848
  2146   00126E                     i2u311_40:
  2147   00126E  AE81               	btfss	129,7,c	;volatile
  2148   001270  EF3C  F009         	goto	i2u312_41
  2149   001274  EF3E  F009         	goto	i2u312_40
  2150   001278                     i2u312_41:
  2151   001278  EF4B  F009         	goto	i2l848
  2152   00127C                     i2u312_40:
  2153   00127C  042F               	decf	_RB7_F^0,w,c	;volatile
  2154   00127E  A4D8               	btfss	status,2,c
  2155   001280  EF44  F009         	goto	i2u313_41
  2156   001284  EF46  F009         	goto	i2u313_40
  2157   001288                     i2u313_41:
  2158   001288  EF4B  F009         	goto	i2l848
  2159   00128C                     i2u313_40:
  2160   00128C                     
  2161                           ;MCAL_Layer/Interrupt/mcal_interrupt_manager.c: 84:         RB7_F = 0;
  2162   00128C  0E00               	movlw	0
  2163   00128E  6E2F               	movwf	_RB7_F^0,c	;volatile
  2164   001290                     
  2165                           ;MCAL_Layer/Interrupt/mcal_interrupt_manager.c: 85:         RB7_ISR(0);
  2166   001290  0E00               	movlw	0
  2167   001292  EC8E  F00C         	call	_RB7_ISR
  2168   001296                     i2l848:
  2169   001296  A6F2               	btfss	242,3,c	;volatile
  2170   001298  EF50  F009         	goto	i2u314_41
  2171   00129C  EF52  F009         	goto	i2u314_40
  2172   0012A0                     i2u314_41:
  2173   0012A0  EF6D  F009         	goto	i2l850
  2174   0012A4                     i2u314_40:
  2175   0012A4  A0F2               	btfss	242,0,c	;volatile
  2176   0012A6  EF57  F009         	goto	i2u315_41
  2177   0012AA  EF59  F009         	goto	i2u315_40
  2178   0012AE                     i2u315_41:
  2179   0012AE  EF6D  F009         	goto	i2l850
  2180   0012B2                     i2u315_40:
  2181   0012B2  AE81               	btfss	129,7,c	;volatile
  2182   0012B4  EF5E  F009         	goto	i2u316_41
  2183   0012B8  EF60  F009         	goto	i2u316_40
  2184   0012BC                     i2u316_41:
  2185   0012BC  EF6D  F009         	goto	i2l850
  2186   0012C0                     i2u316_40:
  2187   0012C0  502F               	movf	_RB7_F^0,w,c	;volatile
  2188   0012C2  A4D8               	btfss	status,2,c
  2189   0012C4  EF66  F009         	goto	i2u317_41
  2190   0012C8  EF68  F009         	goto	i2u317_40
  2191   0012CC                     i2u317_41:
  2192   0012CC  EF6D  F009         	goto	i2l850
  2193   0012D0                     i2u317_40:
  2194   0012D0                     
  2195                           ;MCAL_Layer/Interrupt/mcal_interrupt_manager.c: 88:         RB7_F = 0;
  2196   0012D0  0E00               	movlw	0
  2197   0012D2  6E2F               	movwf	_RB7_F^0,c	;volatile
  2198   0012D4                     
  2199                           ;MCAL_Layer/Interrupt/mcal_interrupt_manager.c: 89:         RB7_ISR(1);
  2200   0012D4  0E01               	movlw	1
  2201   0012D6  EC8E  F00C         	call	_RB7_ISR
  2202   0012DA                     i2l850:
  2203                           
  2204                           ;MCAL_Layer/Interrupt/mcal_interrupt_manager.c: 92:     if((INTCONbits.TMR0IE == 1) && (
      +                          INTCONbits.TMR0IF == 1)){
  2205   0012DA  AAF2               	btfss	242,5,c	;volatile
  2206   0012DC  EF72  F009         	goto	i2u318_41
  2207   0012E0  EF74  F009         	goto	i2u318_40
  2208   0012E4                     i2u318_41:
  2209   0012E4  EF7D  F009         	goto	i2l852
  2210   0012E8                     i2u318_40:
  2211   0012E8  A4F2               	btfss	242,2,c	;volatile
  2212   0012EA  EF79  F009         	goto	i2u319_41
  2213   0012EE  EF7B  F009         	goto	i2u319_40
  2214   0012F2                     i2u319_41:
  2215   0012F2  EF7D  F009         	goto	i2l852
  2216   0012F6                     i2u319_40:
  2217   0012F6                     
  2218                           ;MCAL_Layer/Interrupt/mcal_interrupt_manager.c: 93:         TMR0_ISR();
  2219   0012F6  ECBB  F00C         	call	_TMR0_ISR	;wreg free
  2220   0012FA                     i2l852:
  2221                           
  2222                           ;MCAL_Layer/Interrupt/mcal_interrupt_manager.c: 96:     if((PIE1bits.TMR1IE = 1) && (PIR
      +                          1bits.TMR1IF = 1)){
  2223   0012FA  809D               	bsf	157,0,c	;volatile
  2224   0012FC  809E               	bsf	158,0,c	;volatile
  2225   0012FE                     
  2226                           ;MCAL_Layer/Interrupt/mcal_interrupt_manager.c: 97:         TMR1_ISR();
  2227   0012FE  EC53  F00C         	call	_TMR1_ISR	;wreg free
  2228   001302  C070  FFF4         	movff	??_InterruptMangaer+5,prodh
  2229   001306  C06F  FFF3         	movff	??_InterruptMangaer+4,prodl
  2230   00130A  C06E  FFDA         	movff	??_InterruptMangaer+3,fsr2h
  2231   00130E  C06D  FFD9         	movff	??_InterruptMangaer+2,fsr2l
  2232   001312  C06C  FFFB         	movff	??_InterruptMangaer+1,pclatu
  2233   001316  C06B  FFFA         	movff	??_InterruptMangaer,pclath
  2234   00131A  9272               	bcf	int$flags,1,c	;clear compiler interrupt flag (level 2)
  2235   00131C  0011               	retfie		f
  2236   00131E                     __end_of_InterruptMangaer:
  2237                           	callstack 0
  2238                           
  2239 ;; *************** function _TMR1_ISR *****************
  2240 ;; Defined at:
  2241 ;;		line 141 in file "MCAL_Layer/TIMERS/TIMER1/hal_timer1.c"
  2242 ;; Parameters:    Size  Location     Type
  2243 ;;		None
  2244 ;; Auto vars:     Size  Location     Type
  2245 ;;		None
  2246 ;; Return value:  Size  Location     Type
  2247 ;;                  1    wreg      void 
  2248 ;; Registers used:
  2249 ;;		wreg, fsr2l, fsr2h, status,2, status,0, pcl, pclath, pclatu, tosl, prodl, prodh, cstack
  2250 ;; Tracked objects:
  2251 ;;		On entry : 0/0
  2252 ;;		On exit  : 0/0
  2253 ;;		Unchanged: 0/0
  2254 ;; Data sizes:     COMRAM   BANK0   BANK1   BANK2   BANK3   BANK4   BANK5   BANK6   BANK7   BANK8   BANK9  BANK10  BANK1
      +1  BANK12  BANK13  BANK14  BANK15
  2255 ;;      Params:         0       0       0       0       0       0       0       0       0       0       0       0       
      +0       0       0       0       0
  2256 ;;      Locals:         0       0       0       0       0       0       0       0       0       0       0       0       
      +0       0       0       0       0
  2257 ;;      Temps:          0       0       0       0       0       0       0       0       0       0       0       0       
      +0       0       0       0       0
  2258 ;;      Totals:         0       0       0       0       0       0       0       0       0       0       0       0       
      +0       0       0       0       0
  2259 ;;Total ram usage:        0 bytes
  2260 ;; Hardware stack levels used: 1
  2261 ;; Hardware stack levels required when called: 3
  2262 ;; This function calls:
  2263 ;;		NULL
  2264 ;;		_isr
  2265 ;; This function is called by:
  2266 ;;		_InterruptMangaer
  2267 ;; This function uses a non-reentrant model
  2268 ;;
  2269                           
  2270                           	psect	text12
  2271   0018A6                     __ptext12:
  2272                           	callstack 0
  2273   0018A6                     _TMR1_ISR:
  2274                           	callstack 21
  2275   0018A6                     
  2276                           ;MCAL_Layer/TIMERS/TIMER1/hal_timer1.c: 142:     (PIR1bits.TMR1IF = 0);
  2277   0018A6  909E               	bcf	158,0,c	;volatile
  2278   0018A8                     
  2279                           ;MCAL_Layer/TIMERS/TIMER1/hal_timer1.c: 143:     TMR1H = (uint8)(preval >> 8);
  2280   0018A8  503F               	movf	(_preval+1)^0,w,c
  2281   0018AA  6ECF               	movwf	207,c	;volatile
  2282   0018AC                     
  2283                           ;MCAL_Layer/TIMERS/TIMER1/hal_timer1.c: 144:     TMR1L = (uint8)preval;
  2284   0018AC  C03E  FFCE         	movff	_preval,4046	;volatile
  2285   0018B0                     
  2286                           ;MCAL_Layer/TIMERS/TIMER1/hal_timer1.c: 145:     if(TMR1_HANDLER){
  2287   0018B0  503C               	movf	_TMR1_HANDLER^0,w,c
  2288   0018B2  103D               	iorwf	(_TMR1_HANDLER+1)^0,w,c
  2289   0018B4  B4D8               	btfsc	status,2,c
  2290   0018B6  EF5F  F00C         	goto	i2u233_41
  2291   0018BA  EF61  F00C         	goto	i2u233_40
  2292   0018BE                     i2u233_41:
  2293   0018BE  EF6D  F00C         	goto	i2l1040
  2294   0018C2                     i2u233_40:
  2295   0018C2                     
  2296                           ;MCAL_Layer/TIMERS/TIMER1/hal_timer1.c: 146:         TMR1_HANDLER();
  2297   0018C2  D802               	call	i2u234_48
  2298   0018C4  EF6D  F00C         	goto	i2u234_49
  2299   0018C8                     i2u234_48:
  2300   0018C8  0005               	push	
  2301   0018CA  6EFA               	movwf	pclath,c
  2302   0018CC  503C               	movf	_TMR1_HANDLER^0,w,c
  2303   0018CE  6EFD               	movwf	tosl,c
  2304   0018D0  503D               	movf	(_TMR1_HANDLER+1)^0,w,c
  2305   0018D2  6EFE               	movwf	tosh,c
  2306   0018D4  6AFF               	clrf	tosu,c
  2307   0018D6  50FA               	movf	pclath,w,c
  2308   0018D8  0012               	return		;indir
  2309   0018DA                     i2u234_49:
  2310   0018DA                     i2l1040:
  2311   0018DA  0012               	return		;funcret
  2312   0018DC                     __end_of_TMR1_ISR:
  2313                           	callstack 0
  2314                           
  2315 ;; *************** function _isr *****************
  2316 ;; Defined at:
  2317 ;;		line 11 in file "application.c"
  2318 ;; Parameters:    Size  Location     Type
  2319 ;;		None
  2320 ;; Auto vars:     Size  Location     Type
  2321 ;;		None
  2322 ;; Return value:  Size  Location     Type
  2323 ;;                  1    wreg      void 
  2324 ;; Registers used:
  2325 ;;		wreg, fsr2l, fsr2h, status,2, status,0, prodl, prodh, cstack
  2326 ;; Tracked objects:
  2327 ;;		On entry : 0/0
  2328 ;;		On exit  : 0/0
  2329 ;;		Unchanged: 0/0
  2330 ;; Data sizes:     COMRAM   BANK0   BANK1   BANK2   BANK3   BANK4   BANK5   BANK6   BANK7   BANK8   BANK9  BANK10  BANK1
      +1  BANK12  BANK13  BANK14  BANK15
  2331 ;;      Params:         0       0       0       0       0       0       0       0       0       0       0       0       
      +0       0       0       0       0
  2332 ;;      Locals:         0       0       0       0       0       0       0       0       0       0       0       0       
      +0       0       0       0       0
  2333 ;;      Temps:          0       0       0       0       0       0       0       0       0       0       0       0       
      +0       0       0       0       0
  2334 ;;      Totals:         0       0       0       0       0       0       0       0       0       0       0       0       
      +0       0       0       0       0
  2335 ;;Total ram usage:        0 bytes
  2336 ;; Hardware stack levels used: 1
  2337 ;; Hardware stack levels required when called: 2
  2338 ;; This function calls:
  2339 ;;		_led_turn_toggle
  2340 ;; This function is called by:
  2341 ;;		_TMR1_ISR
  2342 ;; This function uses a non-reentrant model
  2343 ;;
  2344                           
  2345                           	psect	text13
  2346   001982                     __ptext13:
  2347                           	callstack 0
  2348   001982                     _isr:
  2349                           	callstack 21
  2350   001982                     
  2351                           ;application.c: 12:     led_turn_toggle(&led1);
  2352   001982  0E3B               	movlw	low _led1
  2353   001984  6E68               	movwf	led_turn_toggle@led^0,c
  2354   001986  EC1A  F00B         	call	_led_turn_toggle	;wreg free
  2355   00198A  0012               	return		;funcret
  2356   00198C                     __end_of_isr:
  2357                           	callstack 0
  2358                           
  2359 ;; *************** function _led_turn_toggle *****************
  2360 ;; Defined at:
  2361 ;;		line 54 in file "ECU_Layer/LED/ecu_led.c"
  2362 ;; Parameters:    Size  Location     Type
  2363 ;;  led             1    5[COMRAM] PTR const struct .
  2364 ;;		 -> led1(1), 
  2365 ;; Auto vars:     Size  Location     Type
  2366 ;;  pin_obj         1    7[COMRAM] struct .
  2367 ;;  ret             1    0        unsigned char 
  2368 ;; Return value:  Size  Location     Type
  2369 ;;                  1    wreg      unsigned char 
  2370 ;; Registers used:
  2371 ;;		wreg, fsr2l, fsr2h, status,2, status,0, prodl, prodh, cstack
  2372 ;; Tracked objects:
  2373 ;;		On entry : 0/0
  2374 ;;		On exit  : 0/0
  2375 ;;		Unchanged: 0/0
  2376 ;; Data sizes:     COMRAM   BANK0   BANK1   BANK2   BANK3   BANK4   BANK5   BANK6   BANK7   BANK8   BANK9  BANK10  BANK1
      +1  BANK12  BANK13  BANK14  BANK15
  2377 ;;      Params:         1       0       0       0       0       0       0       0       0       0       0       0       
      +0       0       0       0       0
  2378 ;;      Locals:         1       0       0       0       0       0       0       0       0       0       0       0       
      +0       0       0       0       0
  2379 ;;      Temps:          1       0       0       0       0       0       0       0       0       0       0       0       
      +0       0       0       0       0
  2380 ;;      Totals:         3       0       0       0       0       0       0       0       0       0       0       0       
      +0       0       0       0       0
  2381 ;;Total ram usage:        3 bytes
  2382 ;; Hardware stack levels used: 1
  2383 ;; Hardware stack levels required when called: 1
  2384 ;; This function calls:
  2385 ;;		_gpio_pin_toggle_logic
  2386 ;; This function is called by:
  2387 ;;		_isr
  2388 ;; This function uses a non-reentrant model
  2389 ;;
  2390                           
  2391                           	psect	text14
  2392   001634                     __ptext14:
  2393                           	callstack 0
  2394   001634                     _led_turn_toggle:
  2395                           	callstack 21
  2396   001634                     
  2397                           ;ECU_Layer/LED/ecu_led.c: 56:     if(led == ((void*)0)){
  2398   001634  5068               	movf	led_turn_toggle@led^0,w,c
  2399   001636  A4D8               	btfss	status,2,c
  2400   001638  EF20  F00B         	goto	i2u210_41
  2401   00163C  EF22  F00B         	goto	i2u210_40
  2402   001640                     i2u210_41:
  2403   001640  EF24  F00B         	goto	i2l266
  2404   001644                     i2u210_40:
  2405   001644                     
  2406                           ;ECU_Layer/LED/ecu_led.c: 58:     }
  2407   001644  EF4E  F00B         	goto	i2l270
  2408   001648                     i2l266:
  2409                           
  2410                           ;ECU_Layer/LED/ecu_led.c: 60:         pin_config_t pin_obj = {.port = led->port_name, .p
      +                          in = led->pin_name,
  2411   001648  C05D  F06A         	movff	led_turn_toggle@F3077,led_turn_toggle@pin_obj
  2412   00164C  5068               	movf	led_turn_toggle@led^0,w,c
  2413   00164E  6ED9               	movwf	fsr2l,c
  2414   001650  6ADA               	clrf	fsr2h,c
  2415   001652  50DF               	movf	223,w,c
  2416   001654  0B07               	andlw	7
  2417   001656  6E69               	movwf	??_led_turn_toggle^0,c
  2418   001658  506A               	movf	led_turn_toggle@pin_obj^0,w,c
  2419   00165A  1869               	xorwf	??_led_turn_toggle^0,w,c
  2420   00165C  0BF8               	andlw	-8
  2421   00165E  1869               	xorwf	??_led_turn_toggle^0,w,c
  2422   001660  6E6A               	movwf	led_turn_toggle@pin_obj^0,c
  2423   001662  5068               	movf	led_turn_toggle@led^0,w,c
  2424   001664  6ED9               	movwf	fsr2l,c
  2425   001666  6ADA               	clrf	fsr2h,c
  2426   001668  30DF               	rrcf	223,w,c
  2427   00166A  32E8               	rrcf	wreg,f,c
  2428   00166C  32E8               	rrcf	wreg,f,c
  2429   00166E  0B07               	andlw	7
  2430   001670  6E69               	movwf	??_led_turn_toggle^0,c
  2431   001672  4669               	rlncf	??_led_turn_toggle^0,f,c
  2432   001674  4669               	rlncf	??_led_turn_toggle^0,f,c
  2433   001676  4669               	rlncf	??_led_turn_toggle^0,f,c
  2434   001678  506A               	movf	led_turn_toggle@pin_obj^0,w,c
  2435   00167A  1869               	xorwf	??_led_turn_toggle^0,w,c
  2436   00167C  0BC7               	andlw	-57
  2437   00167E  1869               	xorwf	??_led_turn_toggle^0,w,c
  2438   001680  6E6A               	movwf	led_turn_toggle@pin_obj^0,c
  2439   001682  9C6A               	bcf	led_turn_toggle@pin_obj^0,6,c
  2440   001684  5068               	movf	led_turn_toggle@led^0,w,c
  2441   001686  6ED9               	movwf	fsr2l,c
  2442   001688  6ADA               	clrf	fsr2h,c
  2443   00168A  ACDF               	btfss	indf2,6,c
  2444   00168C  D002               	bra	i2u211_45
  2445   00168E  8E6A               	bsf	led_turn_toggle@pin_obj^0,7,c
  2446   001690  D001               	bra	i2u211_47
  2447   001692                     i2u211_45:
  2448   001692  9E6A               	bcf	led_turn_toggle@pin_obj^0,7,c
  2449   001694                     i2u211_47:
  2450   001694                     
  2451                           ;ECU_Layer/LED/ecu_led.c: 62:         gpio_pin_toggle_logic(&pin_obj);
  2452   001694  0E6A               	movlw	low led_turn_toggle@pin_obj
  2453   001696  6E63               	movwf	gpio_pin_toggle_logic@_pin_config^0,c
  2454   001698  EC4F  F00B         	call	_gpio_pin_toggle_logic	;wreg free
  2455   00169C                     i2l270:
  2456   00169C  0012               	return		;funcret
  2457   00169E                     __end_of_led_turn_toggle:
  2458                           	callstack 0
  2459                           
  2460 ;; *************** function _gpio_pin_toggle_logic *****************
  2461 ;; Defined at:
  2462 ;;		line 116 in file "MCAL_Layer/GPIO/hal_gpio.c"
  2463 ;; Parameters:    Size  Location     Type
  2464 ;;  _pin_config     1    0[COMRAM] PTR const struct .
  2465 ;;		 -> led_turn_toggle@pin_obj(1), 
  2466 ;; Auto vars:     Size  Location     Type
  2467 ;;  ret             1    0        unsigned char 
  2468 ;; Return value:  Size  Location     Type
  2469 ;;                  1    wreg      unsigned char 
  2470 ;; Registers used:
  2471 ;;		wreg, fsr2l, fsr2h, status,2, status,0, prodl, prodh
  2472 ;; Tracked objects:
  2473 ;;		On entry : 0/0
  2474 ;;		On exit  : 0/0
  2475 ;;		Unchanged: 0/0
  2476 ;; Data sizes:     COMRAM   BANK0   BANK1   BANK2   BANK3   BANK4   BANK5   BANK6   BANK7   BANK8   BANK9  BANK10  BANK1
      +1  BANK12  BANK13  BANK14  BANK15
  2477 ;;      Params:         1       0       0       0       0       0       0       0       0       0       0       0       
      +0       0       0       0       0
  2478 ;;      Locals:         0       0       0       0       0       0       0       0       0       0       0       0       
      +0       0       0       0       0
  2479 ;;      Temps:          4       0       0       0       0       0       0       0       0       0       0       0       
      +0       0       0       0       0
  2480 ;;      Totals:         5       0       0       0       0       0       0       0       0       0       0       0       
      +0       0       0       0       0
  2481 ;;Total ram usage:        5 bytes
  2482 ;; Hardware stack levels used: 1
  2483 ;; This function calls:
  2484 ;;		Nothing
  2485 ;; This function is called by:
  2486 ;;		_led_turn_toggle
  2487 ;; This function uses a non-reentrant model
  2488 ;;
  2489                           
  2490                           	psect	text15
  2491   00169E                     __ptext15:
  2492                           	callstack 0
  2493   00169E                     _gpio_pin_toggle_logic:
  2494                           	callstack 21
  2495   00169E                     
  2496                           ;MCAL_Layer/GPIO/hal_gpio.c: 118:     if(((void*)0) == _pin_config ){
  2497   00169E  5063               	movf	gpio_pin_toggle_logic@_pin_config^0,w,c
  2498   0016A0  A4D8               	btfss	status,2,c
  2499   0016A2  EF55  F00B         	goto	i2u206_41
  2500   0016A6  EF57  F00B         	goto	i2u206_40
  2501   0016AA                     i2u206_41:
  2502   0016AA  EF59  F00B         	goto	i2l3447
  2503   0016AE                     i2u206_40:
  2504   0016AE                     
  2505                           ;MCAL_Layer/GPIO/hal_gpio.c: 120:     }
  2506   0016AE  EF7F  F00B         	goto	i2l545
  2507   0016B2                     i2l3447:
  2508                           
  2509                           ;MCAL_Layer/GPIO/hal_gpio.c: 122:         (*lat_registers[_pin_config->port] ^= ((uint8)
      +                          1<<_pin_config->pin));
  2510   0016B2  5063               	movf	gpio_pin_toggle_logic@_pin_config^0,w,c
  2511   0016B4  6ED9               	movwf	fsr2l,c
  2512   0016B6  6ADA               	clrf	fsr2h,c
  2513   0016B8  30DF               	rrcf	223,w,c
  2514   0016BA  32E8               	rrcf	wreg,f,c
  2515   0016BC  32E8               	rrcf	wreg,f,c
  2516   0016BE  0B07               	andlw	7
  2517   0016C0  6E64               	movwf	??_gpio_pin_toggle_logic^0,c
  2518   0016C2  0E01               	movlw	1
  2519   0016C4  6E65               	movwf	(??_gpio_pin_toggle_logic+1)^0,c
  2520   0016C6  2A64               	incf	??_gpio_pin_toggle_logic^0,f,c
  2521   0016C8  EF68  F00B         	goto	i2u207_44
  2522   0016CC                     i2u207_45:
  2523   0016CC  90D8               	bcf	status,0,c
  2524   0016CE  3665               	rlcf	(??_gpio_pin_toggle_logic+1)^0,f,c
  2525   0016D0                     i2u207_44:
  2526   0016D0  2E64               	decfsz	??_gpio_pin_toggle_logic^0,f,c
  2527   0016D2  EF66  F00B         	goto	i2u207_45
  2528   0016D6  5063               	movf	gpio_pin_toggle_logic@_pin_config^0,w,c
  2529   0016D8  6ED9               	movwf	fsr2l,c
  2530   0016DA  6ADA               	clrf	fsr2h,c
  2531   0016DC  50DF               	movf	223,w,c
  2532   0016DE  0B07               	andlw	7
  2533   0016E0  0D02               	mullw	2
  2534   0016E2  50F3               	movf	243,w,c
  2535   0016E4  0F1B               	addlw	low _lat_registers
  2536   0016E6  6ED9               	movwf	fsr2l,c
  2537   0016E8  6ADA               	clrf	fsr2h,c
  2538   0016EA  CFDE F066          	movff	postinc2,??_gpio_pin_toggle_logic+2
  2539   0016EE  CFDD F067          	movff	postdec2,??_gpio_pin_toggle_logic+3
  2540   0016F2  C066  FFD9         	movff	??_gpio_pin_toggle_logic+2,fsr2l
  2541   0016F6  C067  FFDA         	movff	??_gpio_pin_toggle_logic+3,fsr2h
  2542   0016FA  5065               	movf	(??_gpio_pin_toggle_logic+1)^0,w,c
  2543   0016FC  1ADF               	xorwf	indf2,f,c
  2544   0016FE                     i2l545:
  2545   0016FE  0012               	return		;funcret
  2546   001700                     __end_of_gpio_pin_toggle_logic:
  2547                           	callstack 0
  2548                           
  2549 ;; *************** function _TMR0_ISR *****************
  2550 ;; Defined at:
  2551 ;;		line 153 in file "MCAL_Layer/TIMERS/TIMER0/hal_timer0.c"
  2552 ;; Parameters:    Size  Location     Type
  2553 ;;		None
  2554 ;; Auto vars:     Size  Location     Type
  2555 ;;		None
  2556 ;; Return value:  Size  Location     Type
  2557 ;;                  1    wreg      void 
  2558 ;; Registers used:
  2559 ;;		wreg, status,2
  2560 ;; Tracked objects:
  2561 ;;		On entry : 0/0
  2562 ;;		On exit  : 0/0
  2563 ;;		Unchanged: 0/0
  2564 ;; Data sizes:     COMRAM   BANK0   BANK1   BANK2   BANK3   BANK4   BANK5   BANK6   BANK7   BANK8   BANK9  BANK10  BANK1
      +1  BANK12  BANK13  BANK14  BANK15
  2565 ;;      Params:         0       0       0       0       0       0       0       0       0       0       0       0       
      +0       0       0       0       0
  2566 ;;      Locals:         0       0       0       0       0       0       0       0       0       0       0       0       
      +0       0       0       0       0
  2567 ;;      Temps:          0       0       0       0       0       0       0       0       0       0       0       0       
      +0       0       0       0       0
  2568 ;;      Totals:         0       0       0       0       0       0       0       0       0       0       0       0       
      +0       0       0       0       0
  2569 ;;Total ram usage:        0 bytes
  2570 ;; Hardware stack levels used: 1
  2571 ;; This function calls:
  2572 ;;		Nothing
  2573 ;; This function is called by:
  2574 ;;		_InterruptMangaer
  2575 ;; This function uses a non-reentrant model
  2576 ;;
  2577                           
  2578                           	psect	text16
  2579   001976                     __ptext16:
  2580                           	callstack 0
  2581   001976                     _TMR0_ISR:
  2582                           	callstack 24
  2583   001976                     
  2584                           ;MCAL_Layer/TIMERS/TIMER0/hal_timer0.c: 154:     (INTCONbits.TMR0IF = 0);
  2585   001976  94F2               	bcf	242,2,c	;volatile
  2586   001978                     
  2587                           ;MCAL_Layer/TIMERS/TIMER0/hal_timer0.c: 155:     TMR0H = (preload >> 8);
  2588   001978  5041               	movf	(_preload+1)^0,w,c
  2589   00197A  6ED7               	movwf	215,c	;volatile
  2590   00197C                     
  2591                           ;MCAL_Layer/TIMERS/TIMER0/hal_timer0.c: 156:     TMR0L = (uint8)(preload);
  2592   00197C  C040  FFD6         	movff	_preload,4054	;volatile
  2593   001980  0012               	return		;funcret
  2594   001982                     __end_of_TMR0_ISR:
  2595                           	callstack 0
  2596                           
  2597 ;; *************** function _RB7_ISR *****************
  2598 ;; Defined at:
  2599 ;;		line 170 in file "MCAL_Layer/Interrupt/mcal_external_interrupt.c"
  2600 ;; Parameters:    Size  Location     Type
  2601 ;;  n               1    wreg     unsigned char 
  2602 ;; Auto vars:     Size  Location     Type
  2603 ;;  n               1    0[COMRAM] unsigned char 
  2604 ;; Return value:  Size  Location     Type
  2605 ;;                  1    wreg      void 
  2606 ;; Registers used:
  2607 ;;		wreg, status,2
  2608 ;; Tracked objects:
  2609 ;;		On entry : 0/0
  2610 ;;		On exit  : 0/0
  2611 ;;		Unchanged: 0/0
  2612 ;; Data sizes:     COMRAM   BANK0   BANK1   BANK2   BANK3   BANK4   BANK5   BANK6   BANK7   BANK8   BANK9  BANK10  BANK1
      +1  BANK12  BANK13  BANK14  BANK15
  2613 ;;      Params:         0       0       0       0       0       0       0       0       0       0       0       0       
      +0       0       0       0       0
  2614 ;;      Locals:         1       0       0       0       0       0       0       0       0       0       0       0       
      +0       0       0       0       0
  2615 ;;      Temps:          0       0       0       0       0       0       0       0       0       0       0       0       
      +0       0       0       0       0
  2616 ;;      Totals:         1       0       0       0       0       0       0       0       0       0       0       0       
      +0       0       0       0       0
  2617 ;;Total ram usage:        1 bytes
  2618 ;; Hardware stack levels used: 1
  2619 ;; This function calls:
  2620 ;;		Nothing
  2621 ;; This function is called by:
  2622 ;;		_InterruptMangaer
  2623 ;; This function uses a non-reentrant model
  2624 ;;
  2625                           
  2626                           	psect	text17
  2627   00191C                     __ptext17:
  2628                           	callstack 0
  2629   00191C                     _RB7_ISR:
  2630                           	callstack 24
  2631                           
  2632                           ;incstack = 0
  2633                           ;RB7_ISR@n stored from wreg
  2634   00191C  6E63               	movwf	RB7_ISR@n^0,c
  2635   00191E                     
  2636                           ;MCAL_Layer/Interrupt/mcal_external_interrupt.c: 172:     (INTCONbits.RBIF = 0);
  2637   00191E  90F2               	bcf	242,0,c	;volatile
  2638   001920                     
  2639                           ;MCAL_Layer/Interrupt/mcal_external_interrupt.c: 176:    if(!n){
  2640   001920  5063               	movf	RB7_ISR@n^0,w,c
  2641   001922  A4D8               	btfss	status,2,c
  2642   001924  EF96  F00C         	goto	i2u46_41
  2643   001928  EF98  F00C         	goto	i2u46_40
  2644   00192C                     i2u46_41:
  2645   00192C  EF9A  F00C         	goto	i2l2121
  2646   001930                     i2u46_40:
  2647   001930  EF9A  F00C         	goto	i2l685
  2648   001934                     i2l2121:
  2649   001934                     i2l685:
  2650   001934  0012               	return		;funcret
  2651   001936                     __end_of_RB7_ISR:
  2652                           	callstack 0
  2653                           
  2654 ;; *************** function _RB6_ISR *****************
  2655 ;; Defined at:
  2656 ;;		line 145 in file "MCAL_Layer/Interrupt/mcal_external_interrupt.c"
  2657 ;; Parameters:    Size  Location     Type
  2658 ;;  n               1    wreg     unsigned char 
  2659 ;; Auto vars:     Size  Location     Type
  2660 ;;  n               1    0[COMRAM] unsigned char 
  2661 ;; Return value:  Size  Location     Type
  2662 ;;                  1    wreg      void 
  2663 ;; Registers used:
  2664 ;;		wreg, status,2
  2665 ;; Tracked objects:
  2666 ;;		On entry : 0/0
  2667 ;;		On exit  : 0/0
  2668 ;;		Unchanged: 0/0
  2669 ;; Data sizes:     COMRAM   BANK0   BANK1   BANK2   BANK3   BANK4   BANK5   BANK6   BANK7   BANK8   BANK9  BANK10  BANK1
      +1  BANK12  BANK13  BANK14  BANK15
  2670 ;;      Params:         0       0       0       0       0       0       0       0       0       0       0       0       
      +0       0       0       0       0
  2671 ;;      Locals:         1       0       0       0       0       0       0       0       0       0       0       0       
      +0       0       0       0       0
  2672 ;;      Temps:          0       0       0       0       0       0       0       0       0       0       0       0       
      +0       0       0       0       0
  2673 ;;      Totals:         1       0       0       0       0       0       0       0       0       0       0       0       
      +0       0       0       0       0
  2674 ;;Total ram usage:        1 bytes
  2675 ;; Hardware stack levels used: 1
  2676 ;; This function calls:
  2677 ;;		Nothing
  2678 ;; This function is called by:
  2679 ;;		_InterruptMangaer
  2680 ;; This function uses a non-reentrant model
  2681 ;;
  2682                           
  2683                           	psect	text18
  2684   001936                     __ptext18:
  2685                           	callstack 0
  2686   001936                     _RB6_ISR:
  2687                           	callstack 24
  2688                           
  2689                           ;incstack = 0
  2690                           ;RB6_ISR@n stored from wreg
  2691   001936  6E63               	movwf	RB6_ISR@n^0,c
  2692   001938                     
  2693                           ;MCAL_Layer/Interrupt/mcal_external_interrupt.c: 147:     (INTCONbits.RBIF = 0);
  2694   001938  90F2               	bcf	242,0,c	;volatile
  2695   00193A                     
  2696                           ;MCAL_Layer/Interrupt/mcal_external_interrupt.c: 151:     if(!n){
  2697   00193A  5063               	movf	RB6_ISR@n^0,w,c
  2698   00193C  A4D8               	btfss	status,2,c
  2699   00193E  EFA3  F00C         	goto	i2u45_41
  2700   001942  EFA5  F00C         	goto	i2u45_40
  2701   001946                     i2u45_41:
  2702   001946  EFA7  F00C         	goto	i2l2107
  2703   00194A                     i2u45_40:
  2704   00194A  EFA7  F00C         	goto	i2l674
  2705   00194E                     i2l2107:
  2706   00194E                     i2l674:
  2707   00194E  0012               	return		;funcret
  2708   001950                     __end_of_RB6_ISR:
  2709                           	callstack 0
  2710                           
  2711 ;; *************** function _RB5_ISR *****************
  2712 ;; Defined at:
  2713 ;;		line 121 in file "MCAL_Layer/Interrupt/mcal_external_interrupt.c"
  2714 ;; Parameters:    Size  Location     Type
  2715 ;;  n               1    wreg     unsigned char 
  2716 ;; Auto vars:     Size  Location     Type
  2717 ;;  n               1    0[COMRAM] unsigned char 
  2718 ;; Return value:  Size  Location     Type
  2719 ;;                  1    wreg      void 
  2720 ;; Registers used:
  2721 ;;		wreg, status,2
  2722 ;; Tracked objects:
  2723 ;;		On entry : 0/0
  2724 ;;		On exit  : 0/0
  2725 ;;		Unchanged: 0/0
  2726 ;; Data sizes:     COMRAM   BANK0   BANK1   BANK2   BANK3   BANK4   BANK5   BANK6   BANK7   BANK8   BANK9  BANK10  BANK1
      +1  BANK12  BANK13  BANK14  BANK15
  2727 ;;      Params:         0       0       0       0       0       0       0       0       0       0       0       0       
      +0       0       0       0       0
  2728 ;;      Locals:         1       0       0       0       0       0       0       0       0       0       0       0       
      +0       0       0       0       0
  2729 ;;      Temps:          0       0       0       0       0       0       0       0       0       0       0       0       
      +0       0       0       0       0
  2730 ;;      Totals:         1       0       0       0       0       0       0       0       0       0       0       0       
      +0       0       0       0       0
  2731 ;;Total ram usage:        1 bytes
  2732 ;; Hardware stack levels used: 1
  2733 ;; This function calls:
  2734 ;;		Nothing
  2735 ;; This function is called by:
  2736 ;;		_InterruptMangaer
  2737 ;; This function uses a non-reentrant model
  2738 ;;
  2739                           
  2740                           	psect	text19
  2741   001950                     __ptext19:
  2742                           	callstack 0
  2743   001950                     _RB5_ISR:
  2744                           	callstack 24
  2745                           
  2746                           ;incstack = 0
  2747                           ;RB5_ISR@n stored from wreg
  2748   001950  6E63               	movwf	RB5_ISR@n^0,c
  2749   001952                     
  2750                           ;MCAL_Layer/Interrupt/mcal_external_interrupt.c: 123:     (INTCONbits.RBIF = 0);
  2751   001952  90F2               	bcf	242,0,c	;volatile
  2752   001954                     
  2753                           ;MCAL_Layer/Interrupt/mcal_external_interrupt.c: 127:     if(!n){
  2754   001954  5063               	movf	RB5_ISR@n^0,w,c
  2755   001956  A4D8               	btfss	status,2,c
  2756   001958  EFB0  F00C         	goto	i2u44_41
  2757   00195C  EFB2  F00C         	goto	i2u44_40
  2758   001960                     i2u44_41:
  2759   001960  EFB4  F00C         	goto	i2l2093
  2760   001964                     i2u44_40:
  2761   001964  EFB4  F00C         	goto	i2l663
  2762   001968                     i2l2093:
  2763   001968                     i2l663:
  2764   001968  0012               	return		;funcret
  2765   00196A                     __end_of_RB5_ISR:
  2766                           	callstack 0
  2767                           
  2768 ;; *************** function _RB4_ISR *****************
  2769 ;; Defined at:
  2770 ;;		line 95 in file "MCAL_Layer/Interrupt/mcal_external_interrupt.c"
  2771 ;; Parameters:    Size  Location     Type
  2772 ;;  n               1    wreg     unsigned char 
  2773 ;; Auto vars:     Size  Location     Type
  2774 ;;  n               1    0[COMRAM] unsigned char 
  2775 ;; Return value:  Size  Location     Type
  2776 ;;                  1    wreg      void 
  2777 ;; Registers used:
  2778 ;;		wreg, status,2
  2779 ;; Tracked objects:
  2780 ;;		On entry : 0/0
  2781 ;;		On exit  : 0/0
  2782 ;;		Unchanged: 0/0
  2783 ;; Data sizes:     COMRAM   BANK0   BANK1   BANK2   BANK3   BANK4   BANK5   BANK6   BANK7   BANK8   BANK9  BANK10  BANK1
      +1  BANK12  BANK13  BANK14  BANK15
  2784 ;;      Params:         0       0       0       0       0       0       0       0       0       0       0       0       
      +0       0       0       0       0
  2785 ;;      Locals:         1       0       0       0       0       0       0       0       0       0       0       0       
      +0       0       0       0       0
  2786 ;;      Temps:          0       0       0       0       0       0       0       0       0       0       0       0       
      +0       0       0       0       0
  2787 ;;      Totals:         1       0       0       0       0       0       0       0       0       0       0       0       
      +0       0       0       0       0
  2788 ;;Total ram usage:        1 bytes
  2789 ;; Hardware stack levels used: 1
  2790 ;; This function calls:
  2791 ;;		Nothing
  2792 ;; This function is called by:
  2793 ;;		_InterruptMangaer
  2794 ;; This function uses a non-reentrant model
  2795 ;;
  2796                           
  2797                           	psect	text20
  2798   001900                     __ptext20:
  2799                           	callstack 0
  2800   001900                     _RB4_ISR:
  2801                           	callstack 24
  2802                           
  2803                           ;incstack = 0
  2804                           ;RB4_ISR@n stored from wreg
  2805   001900  6E63               	movwf	RB4_ISR@n^0,c
  2806   001902                     
  2807                           ;MCAL_Layer/Interrupt/mcal_external_interrupt.c: 97:     (INTCONbits.RBIF = 0);
  2808   001902  90F2               	bcf	242,0,c	;volatile
  2809   001904                     
  2810                           ;MCAL_Layer/Interrupt/mcal_external_interrupt.c: 101:     if(!n){
  2811   001904  5063               	movf	RB4_ISR@n^0,w,c
  2812   001906  A4D8               	btfss	status,2,c
  2813   001908  EF88  F00C         	goto	i2u43_41
  2814   00190C  EF8A  F00C         	goto	i2u43_40
  2815   001910                     i2u43_41:
  2816   001910  EF8C  F00C         	goto	i2l2079
  2817   001914                     i2u43_40:
  2818   001914  EF8C  F00C         	goto	i2l647
  2819   001918                     i2l2079:
  2820   001918                     i2l647:
  2821                           
  2822                           ;MCAL_Layer/Interrupt/mcal_external_interrupt.c: 118:         (INTCONbits.RBIF = 0);
  2823   001918  90F2               	bcf	242,0,c	;volatile
  2824   00191A  0012               	return		;funcret
  2825   00191C                     __end_of_RB4_ISR:
  2826                           	callstack 0
  2827                           
  2828 ;; *************** function _INT2_ISR *****************
  2829 ;; Defined at:
  2830 ;;		line 81 in file "MCAL_Layer/Interrupt/mcal_external_interrupt.c"
  2831 ;; Parameters:    Size  Location     Type
  2832 ;;		None
  2833 ;; Auto vars:     Size  Location     Type
  2834 ;;		None
  2835 ;; Return value:  Size  Location     Type
  2836 ;;                  1    wreg      void 
  2837 ;; Registers used:
  2838 ;;		None
  2839 ;; Tracked objects:
  2840 ;;		On entry : 0/0
  2841 ;;		On exit  : 0/0
  2842 ;;		Unchanged: 0/0
  2843 ;; Data sizes:     COMRAM   BANK0   BANK1   BANK2   BANK3   BANK4   BANK5   BANK6   BANK7   BANK8   BANK9  BANK10  BANK1
      +1  BANK12  BANK13  BANK14  BANK15
  2844 ;;      Params:         0       0       0       0       0       0       0       0       0       0       0       0       
      +0       0       0       0       0
  2845 ;;      Locals:         0       0       0       0       0       0       0       0       0       0       0       0       
      +0       0       0       0       0
  2846 ;;      Temps:          0       0       0       0       0       0       0       0       0       0       0       0       
      +0       0       0       0       0
  2847 ;;      Totals:         0       0       0       0       0       0       0       0       0       0       0       0       
      +0       0       0       0       0
  2848 ;;Total ram usage:        0 bytes
  2849 ;; Hardware stack levels used: 1
  2850 ;; This function calls:
  2851 ;;		Nothing
  2852 ;; This function is called by:
  2853 ;;		_InterruptMangaer
  2854 ;; This function uses a non-reentrant model
  2855 ;;
  2856                           
  2857                           	psect	text21
  2858   001994                     __ptext21:
  2859                           	callstack 0
  2860   001994                     _INT2_ISR:
  2861                           	callstack 24
  2862   001994                     
  2863                           ;MCAL_Layer/Interrupt/mcal_external_interrupt.c: 83:     (INTCON3bits.INT2IF = 0);
  2864   001994  92F0               	bcf	240,1,c	;volatile
  2865   001996  0012               	return		;funcret
  2866   001998                     __end_of_INT2_ISR:
  2867                           	callstack 0
  2868                           
  2869 ;; *************** function _INT1_ISR *****************
  2870 ;; Defined at:
  2871 ;;		line 67 in file "MCAL_Layer/Interrupt/mcal_external_interrupt.c"
  2872 ;; Parameters:    Size  Location     Type
  2873 ;;		None
  2874 ;; Auto vars:     Size  Location     Type
  2875 ;;		None
  2876 ;; Return value:  Size  Location     Type
  2877 ;;                  1    wreg      void 
  2878 ;; Registers used:
  2879 ;;		None
  2880 ;; Tracked objects:
  2881 ;;		On entry : 0/0
  2882 ;;		On exit  : 0/0
  2883 ;;		Unchanged: 0/0
  2884 ;; Data sizes:     COMRAM   BANK0   BANK1   BANK2   BANK3   BANK4   BANK5   BANK6   BANK7   BANK8   BANK9  BANK10  BANK1
      +1  BANK12  BANK13  BANK14  BANK15
  2885 ;;      Params:         0       0       0       0       0       0       0       0       0       0       0       0       
      +0       0       0       0       0
  2886 ;;      Locals:         0       0       0       0       0       0       0       0       0       0       0       0       
      +0       0       0       0       0
  2887 ;;      Temps:          0       0       0       0       0       0       0       0       0       0       0       0       
      +0       0       0       0       0
  2888 ;;      Totals:         0       0       0       0       0       0       0       0       0       0       0       0       
      +0       0       0       0       0
  2889 ;;Total ram usage:        0 bytes
  2890 ;; Hardware stack levels used: 1
  2891 ;; This function calls:
  2892 ;;		Nothing
  2893 ;; This function is called by:
  2894 ;;		_InterruptMangaer
  2895 ;; This function uses a non-reentrant model
  2896 ;;
  2897                           
  2898                           	psect	text22
  2899   001998                     __ptext22:
  2900                           	callstack 0
  2901   001998                     _INT1_ISR:
  2902                           	callstack 24
  2903   001998                     
  2904                           ;MCAL_Layer/Interrupt/mcal_external_interrupt.c: 69:     (INTCON3bits.INT1IF = 0);
  2905   001998  90F0               	bcf	240,0,c	;volatile
  2906   00199A  0012               	return		;funcret
  2907   00199C                     __end_of_INT1_ISR:
  2908                           	callstack 0
  2909                           
  2910 ;; *************** function _INT0_ISR *****************
  2911 ;; Defined at:
  2912 ;;		line 53 in file "MCAL_Layer/Interrupt/mcal_external_interrupt.c"
  2913 ;; Parameters:    Size  Location     Type
  2914 ;;		None
  2915 ;; Auto vars:     Size  Location     Type
  2916 ;;		None
  2917 ;; Return value:  Size  Location     Type
  2918 ;;                  1    wreg      void 
  2919 ;; Registers used:
  2920 ;;		None
  2921 ;; Tracked objects:
  2922 ;;		On entry : 0/0
  2923 ;;		On exit  : 0/0
  2924 ;;		Unchanged: 0/0
  2925 ;; Data sizes:     COMRAM   BANK0   BANK1   BANK2   BANK3   BANK4   BANK5   BANK6   BANK7   BANK8   BANK9  BANK10  BANK1
      +1  BANK12  BANK13  BANK14  BANK15
  2926 ;;      Params:         0       0       0       0       0       0       0       0       0       0       0       0       
      +0       0       0       0       0
  2927 ;;      Locals:         0       0       0       0       0       0       0       0       0       0       0       0       
      +0       0       0       0       0
  2928 ;;      Temps:          0       0       0       0       0       0       0       0       0       0       0       0       
      +0       0       0       0       0
  2929 ;;      Totals:         0       0       0       0       0       0       0       0       0       0       0       0       
      +0       0       0       0       0
  2930 ;;Total ram usage:        0 bytes
  2931 ;; Hardware stack levels used: 1
  2932 ;; This function calls:
  2933 ;;		Nothing
  2934 ;; This function is called by:
  2935 ;;		_InterruptMangaer
  2936 ;; This function uses a non-reentrant model
  2937 ;;
  2938                           
  2939                           	psect	text23
  2940   00199C                     __ptext23:
  2941                           	callstack 0
  2942   00199C                     _INT0_ISR:
  2943                           	callstack 24
  2944   00199C                     
  2945                           ;MCAL_Layer/Interrupt/mcal_external_interrupt.c: 55:     (INTCONbits.INT0IF = 0);
  2946   00199C  92F2               	bcf	242,1,c	;volatile
  2947   00199E  0012               	return		;funcret
  2948   0019A0                     __end_of_INT0_ISR:
  2949                           	callstack 0
  2950                           
  2951                           	psect	rparam
  2952   000000                     
  2953                           	psect	temp
  2954   000072                     btemp:
  2955                           	callstack 0
  2956   000072                     	ds	1
  2957   000000                     int$flags	set	btemp
  2958   000000                     wtemp8	set	btemp+1
  2959   000000                     ttemp5	set	btemp+1
  2960   000000                     ttemp6	set	btemp+4
  2961   000000                     ttemp7	set	btemp+8
  2962                           
  2963                           	psect	config
  2964                           
  2965                           ; Padding undefined space
  2966   300000                     	org	3145728
  2967   300000  FF                 	db	255
  2968                           
  2969                           ;Config register CONFIG1H @ 0x300001
  2970                           ;	Oscillator Selection bits
  2971                           ;	OSC = HS, HS oscillator
  2972                           ;	Fail-Safe Clock Monitor Enable bit
  2973                           ;	FCMEN = OFF, Fail-Safe Clock Monitor disabled
  2974                           ;	Internal/External Oscillator Switchover bit
  2975                           ;	IESO = OFF, Oscillator Switchover mode disabled
  2976   300001                     	org	3145729
  2977   300001  02                 	db	2
  2978                           
  2979                           ;Config register CONFIG2L @ 0x300002
  2980                           ;	Power-up Timer Enable bit
  2981                           ;	PWRT = OFF, PWRT disabled
  2982                           ;	Brown-out Reset Enable bits
  2983                           ;	BOREN = OFF, Brown-out Reset disabled in hardware and software
  2984                           ;	Brown Out Reset Voltage bits
  2985                           ;	BORV = 1, 
  2986   300002                     	org	3145730
  2987   300002  09                 	db	9
  2988                           
  2989                           ;Config register CONFIG2H @ 0x300003
  2990                           ;	Watchdog Timer Enable bit
  2991                           ;	WDT = OFF, WDT disabled (control is placed on the SWDTEN bit)
  2992                           ;	Watchdog Timer Postscale Select bits
  2993                           ;	WDTPS = 32768, 1:32768
  2994   300003                     	org	3145731
  2995   300003  1E                 	db	30
  2996                           
  2997                           ; Padding undefined space
  2998   300004                     	org	3145732
  2999   300004  FF                 	db	255
  3000                           
  3001                           ;Config register CONFIG3H @ 0x300005
  3002                           ;	CCP2 MUX bit
  3003                           ;	CCP2MX = PORTC, CCP2 input/output is multiplexed with RC1
  3004                           ;	PORTB A/D Enable bit
  3005                           ;	PBADEN = OFF, PORTB<4:0> pins are configured as digital I/O on Reset
  3006                           ;	Low-Power Timer1 Oscillator Enable bit
  3007                           ;	LPT1OSC = OFF, Timer1 configured for higher power operation
  3008                           ;	MCLR Pin Enable bit
  3009                           ;	MCLRE = ON, MCLR pin enabled; RE3 input pin disabled
  3010   300005                     	org	3145733
  3011   300005  81                 	db	129
  3012                           
  3013                           ;Config register CONFIG4L @ 0x300006
  3014                           ;	Stack Full/Underflow Reset Enable bit
  3015                           ;	STVREN = ON, Stack full/underflow will cause Reset
  3016                           ;	Single-Supply ICSP Enable bit
  3017                           ;	LVP = OFF, Single-Supply ICSP disabled
  3018                           ;	Extended Instruction Set Enable bit
  3019                           ;	XINST = OFF, Instruction set extension and Indexed Addressing mode disabled (Legacy mo
      +                          de)
  3020                           ;	Background Debugger Enable bit
  3021                           ;	DEBUG = 0x1, unprogrammed default
  3022   300006                     	org	3145734
  3023   300006  81                 	db	129
  3024                           
  3025                           ; Padding undefined space
  3026   300007                     	org	3145735
  3027   300007  FF                 	db	255
  3028                           
  3029                           ;Config register CONFIG5L @ 0x300008
  3030                           ;	Code Protection bit
  3031                           ;	CP0 = OFF, Block 0 (000800-003FFFh) not code-protected
  3032                           ;	Code Protection bit
  3033                           ;	CP1 = OFF, Block 1 (004000-007FFFh) not code-protected
  3034                           ;	Code Protection bit
  3035                           ;	CP2 = OFF, Block 2 (008000-00BFFFh) not code-protected
  3036                           ;	Code Protection bit
  3037                           ;	CP3 = OFF, Block 3 (00C000-00FFFFh) not code-protected
  3038   300008                     	org	3145736
  3039   300008  0F                 	db	15
  3040                           
  3041                           ;Config register CONFIG5H @ 0x300009
  3042                           ;	Boot Block Code Protection bit
  3043                           ;	CPB = OFF, Boot block (000000-0007FFh) not code-protected
  3044                           ;	Data EEPROM Code Protection bit
  3045                           ;	CPD = OFF, Data EEPROM not code-protected
  3046   300009                     	org	3145737
  3047   300009  C0                 	db	192
  3048                           
  3049                           ;Config register CONFIG6L @ 0x30000A
  3050                           ;	Write Protection bit
  3051                           ;	WRT0 = OFF, Block 0 (000800-003FFFh) not write-protected
  3052                           ;	Write Protection bit
  3053                           ;	WRT1 = OFF, Block 1 (004000-007FFFh) not write-protected
  3054                           ;	Write Protection bit
  3055                           ;	WRT2 = OFF, Block 2 (008000-00BFFFh) not write-protected
  3056                           ;	Write Protection bit
  3057                           ;	WRT3 = OFF, Block 3 (00C000-00FFFFh) not write-protected
  3058   30000A                     	org	3145738
  3059   30000A  0F                 	db	15
  3060                           
  3061                           ;Config register CONFIG6H @ 0x30000B
  3062                           ;	Configuration Register Write Protection bit
  3063                           ;	WRTC = OFF, Configuration registers (300000-3000FFh) not write-protected
  3064                           ;	Boot Block Write Protection bit
  3065                           ;	WRTB = OFF, Boot Block (000000-0007FFh) not write-protected
  3066                           ;	Data EEPROM Write Protection bit
  3067                           ;	WRTD = OFF, Data EEPROM not write-protected
  3068   30000B                     	org	3145739
  3069   30000B  E0                 	db	224
  3070                           
  3071                           ;Config register CONFIG7L @ 0x30000C
  3072                           ;	Table Read Protection bit
  3073                           ;	EBTR0 = OFF, Block 0 (000800-003FFFh) not protected from table reads executed in other
      +                           blocks
  3074                           ;	Table Read Protection bit
  3075                           ;	EBTR1 = OFF, Block 1 (004000-007FFFh) not protected from table reads executed in other
      +                           blocks
  3076                           ;	Table Read Protection bit
  3077                           ;	EBTR2 = OFF, Block 2 (008000-00BFFFh) not protected from table reads executed in other
      +                           blocks
  3078                           ;	Table Read Protection bit
  3079                           ;	EBTR3 = OFF, Block 3 (00C000-00FFFFh) not protected from table reads executed in other
      +                           blocks
  3080   30000C                     	org	3145740
  3081   30000C  0F                 	db	15
  3082                           
  3083                           ;Config register CONFIG7H @ 0x30000D
  3084                           ;	Boot Block Table Read Protection bit
  3085                           ;	EBTRB = OFF, Boot Block (000000-0007FFh) not protected from table reads executed in ot
      +                          her blocks
  3086   30000D                     	org	3145741
  3087   30000D  40                 	db	64
  3088                           tosu	equ	0xFFF
  3089                           tosh	equ	0xFFE
  3090                           tosl	equ	0xFFD
  3091                           stkptr	equ	0xFFC
  3092                           pclatu	equ	0xFFB
  3093                           pclath	equ	0xFFA
  3094                           pcl	equ	0xFF9
  3095                           tblptru	equ	0xFF8
  3096                           tblptrh	equ	0xFF7
  3097                           tblptrl	equ	0xFF6
  3098                           tablat	equ	0xFF5
  3099                           prodh	equ	0xFF4
  3100                           prodl	equ	0xFF3
  3101                           indf0	equ	0xFEF
  3102                           postinc0	equ	0xFEE
  3103                           postdec0	equ	0xFED
  3104                           preinc0	equ	0xFEC
  3105                           plusw0	equ	0xFEB
  3106                           fsr0h	equ	0xFEA
  3107                           fsr0l	equ	0xFE9
  3108                           wreg	equ	0xFE8
  3109                           indf1	equ	0xFE7
  3110                           postinc1	equ	0xFE6
  3111                           postdec1	equ	0xFE5
  3112                           preinc1	equ	0xFE4
  3113                           plusw1	equ	0xFE3
  3114                           fsr1h	equ	0xFE2
  3115                           fsr1l	equ	0xFE1
  3116                           bsr	equ	0xFE0
  3117                           indf2	equ	0xFDF
  3118                           postinc2	equ	0xFDE
  3119                           postdec2	equ	0xFDD
  3120                           preinc2	equ	0xFDC
  3121                           plusw2	equ	0xFDB
  3122                           fsr2h	equ	0xFDA
  3123                           fsr2l	equ	0xFD9
  3124                           status	equ	0xFD8

Data Sizes:
    Strings     6
    Constant    56
    Data        59
    BSS         39
    Persistent  1
    Stack       0

Auto Spaces:
    Space          Size  Autos    Used
    COMRAM          126     14     113
    BANK0           128     13      13
    BANK1           256      0       0
    BANK2           256      0       0
    BANK3           256      0       0
    BANK4           256      0       0
    BANK5           256      0       0
    BANK6           256      0       0
    BANK7           256      0       0
    BANK8           256      0       0
    BANK9           256      0       0
    BANK10          256      0       0
    BANK11          256      0       0
    BANK12          256      0       0
    BANK13          256      0       0
    BANK14          256      0       0
    BANK15          128      0       0

Pointer List with Targets:

    ADC_Get_Conversion_Result@adc$adc_isr	PTR FTN()void  size(2) Largest target is 0

    ADC_Init@adc$adc_isr	PTR FTN()void  size(2) Largest target is 0

    ADC_Select_Channel@adc$adc_isr	PTR FTN()void  size(2) Largest target is 0

    f$.$buffer	PTR unsigned char  size(2) Largest target is 0

    f$.$source	PTR const unsigned char  size(2) Largest target is 0

    gpio_pin_direction_intialize@_pin_config	PTR const struct . size(1) Largest target is 1
		 -> led_initialize@pin_obj(BANK0[1]), relay_initialization@pin_obj(COMRAM[1]), 

    gpio_pin_initialize@_pin_config	PTR const struct . size(1) Largest target is 1
		 -> led_initialize@pin_obj(BANK0[1]), relay_initialization@pin_obj(COMRAM[1]), 

    gpio_pin_toggle_logic@_pin_config	PTR const struct . size(1) Largest target is 1
		 -> led_turn_toggle@pin_obj(COMRAM[1]), 

    gpio_pin_write_logic@_pin_config	PTR const struct . size(1) Largest target is 1
		 -> led_initialize@pin_obj(BANK0[1]), led_turn_off@pin_obj(COMRAM[1]), led_turn_on@pin_obj(COMRAM[1]), relay_initialization@pin_obj(COMRAM[1]), 
		 -> relay_turn_off@pin_obj(COMRAM[1]), relay_turn_on@pin_obj(COMRAM[1]), 

    INT0_INTERRUPTHANDLER	PTR FTN()void  size(2) Largest target is 1
		 -> NULL(), 

    INT1_INTERRUPTHANDLER	PTR FTN()void  size(2) Largest target is 1
		 -> NULL(), 

    INT2_INTERRUPTHANDLER	PTR FTN()void  size(2) Largest target is 1
		 -> NULL(), 

    Interrupt_INTx_Clear_Flag@int_obj$EXT_INTERRUPT_HANDLER	PTR FTN()void  size(2) Largest target is 0

    Interrupt_INTx_Disable@int_obj$EXT_INTERRUPT_HANDLER	PTR FTN()void  size(2) Largest target is 0

    Interrupt_INTx_Edge_Src@int_obj$EXT_INTERRUPT_HANDLER	PTR FTN()void  size(2) Largest target is 0

    Interrupt_INTx_Enable@int_obj$EXT_INTERRUPT_HANDLER	PTR FTN()void  size(2) Largest target is 0

    Interrupt_INTx_Pin_Init@int_obj$EXT_INTERRUPT_HANDLER	PTR FTN()void  size(2) Largest target is 0

    Interrupt_RBx_Init@int_obj$EXT_INTERRUPT_HANDLER_HIGH	PTR FTN()void  size(2) Largest target is 0

    Interrupt_RBx_Init@int_obj$EXT_INTERRUPT_HANDLER_LOW	PTR FTN()void  size(2) Largest target is 0

    ISR_TIMER0	PTR FTN()void  size(2) Largest target is 1
		 -> NULL(), 

    lat_registers	PTR volatile unsigned char [5] size(2) Largest target is 1
		 -> LATA(BITBIGSFRllll[1]), LATB(BITBIGSFRlllh[1]), LATC(BITBIGSFRlllh[1]), LATD(BITBIGSFRlllh[1]), 
		 -> LATE(BITBIGSFRlllh[1]), 

    led_initialize@led	PTR const struct . size(1) Largest target is 1
		 -> led1(COMRAM[1]), 

    led_turn_toggle@led	PTR const struct . size(1) Largest target is 1
		 -> led1(COMRAM[1]), 

    port_registers	PTR volatile unsigned char [5] size(2) Largest target is 1
		 -> PORTA(BITBIGSFRllll[1]), PORTB(BITBIGSFRllll[1]), PORTC(BITBIGSFRllll[1]), PORTD(BITBIGSFRllll[1]), 
		 -> PORTE(BITBIGSFRllll[1]), 

    RB4_INTERRUPTHANDLERHIGH	PTR FTN()void  size(2) Largest target is 1
		 -> NULL(), 

    RB4_INTERRUPTHANDLERLOW	PTR FTN()void  size(2) Largest target is 1
		 -> NULL(), 

    RB5_INTERRUPTHANDLERHIGH	PTR FTN()void  size(2) Largest target is 1
		 -> NULL(), 

    RB5_INTERRUPTHANDLERLOW	PTR FTN()void  size(2) Largest target is 1
		 -> NULL(), 

    RB6_INTERRUPTHANDLERHIGH	PTR FTN()void  size(2) Largest target is 1
		 -> NULL(), 

    RB6_INTERRUPTHANDLERLOW	PTR FTN()void  size(2) Largest target is 1
		 -> NULL(), 

    RB7_INTERRUPTHANDLERHIGH	PTR FTN()void  size(2) Largest target is 1
		 -> NULL(), 

    RB7_INTERRUPTHANDLERLOW	PTR FTN()void  size(2) Largest target is 1
		 -> NULL(), 

    S1273$EXT_INTERRUPT_HANDLER	PTR FTN()void  size(2) Largest target is 0

    S1389$EXT_INTERRUPT_HANDLER_HIGH	PTR FTN()void  size(2) Largest target is 0

    S1389$EXT_INTERRUPT_HANDLER_LOW	PTR FTN()void  size(2) Largest target is 0

    S1844$TIMER0_HANDLER	PTR FTN()void  size(2) Largest target is 0

    S1998$TIMER1_HANDLER	PTR FTN()void  size(2) Largest target is 1
		 -> isr(), 

    S2667$buffer	PTR unsigned char  size(2) Largest target is 0

    S2667$source	PTR const unsigned char  size(2) Largest target is 0

    S714$adc_isr	PTR FTN()void  size(2) Largest target is 0

    Set_Interrupt_Handler@int_obj$EXT_INTERRUPT_HANDLER	PTR FTN()void  size(2) Largest target is 0

    sp__memset	PTR void  size(2) Largest target is 0

    timer$TIMER1_HANDLER	PTR FTN()void  size(2) Largest target is 1
		 -> isr(), 

    TIMER0_INIT@timer$TIMER0_HANDLER	PTR FTN()void  size(2) Largest target is 0

    TIMER0_MODE_SELECT@timer$TIMER0_HANDLER	PTR FTN()void  size(2) Largest target is 0

    TIMER0_PRESCALER_CFG@timer$TIMER0_HANDLER	PTR FTN()void  size(2) Largest target is 0

    TIMER0_Size_SELECT@timer$TIMER0_HANDLER	PTR FTN()void  size(2) Largest target is 0

    TIMER1_INIT@timer	PTR const struct . size(1) Largest target is 6
		 -> timer(COMRAM[6]), 

    TIMER1_INIT@timer$TIMER1_HANDLER	PTR FTN()void  size(2) Largest target is 1
		 -> isr(), 

    TIMER1_MODE_SELECT@timer	PTR const struct . size(1) Largest target is 6
		 -> timer(COMRAM[6]), 

    TIMER1_MODE_SELECT@timer$TIMER1_HANDLER	PTR FTN()void  size(2) Largest target is 1
		 -> isr(), 

    TIMER1_Read_Value@timer	PTR const struct . size(1) Largest target is 6
		 -> timer(COMRAM[6]), 

    TIMER1_Read_Value@val	PTR unsigned short  size(1) Largest target is 2
		 -> value(COMRAM[2]), 

    TIMER1_SIZE_SELECT@timer	PTR const struct . size(1) Largest target is 6
		 -> timer(COMRAM[6]), 

    TIMER1_SIZE_SELECT@timer$TIMER1_HANDLER	PTR FTN()void  size(2) Largest target is 1
		 -> isr(), 

    TMR1_HANDLER	PTR FTN()void  size(2) Largest target is 1
		 -> isr(), NULL(), 

    tris_registers	PTR volatile unsigned char [5] size(2) Largest target is 1
		 -> TRISA(BITBIGSFRllll[1]), TRISB(ABS[1]), TRISC(ABS[1]), TRISD(ABS[1]), 
		 -> TRISE(ABS[1]), 

    vfprintf$0	PTR struct _IO_FILE size(1) Largest target is 12
		 -> sprintf@f(COMRAM[12]), 

    vfprintf$1	PTR const unsigned char  size(1) Largest target is 3
		 -> STR_1(CODE[3]), STR_2(CODE[3]), STR_3(CODE[3]), 

    vfprintf$2	PTR PTR void  size(1) Largest target is 1
		 -> sprintf@ap(COMRAM[1]), 


Critical Paths under _main in COMRAM

    None.

Critical Paths under _InterruptMangaer in COMRAM

    _isr->_led_turn_toggle
    _led_turn_toggle->_gpio_pin_toggle_logic

Critical Paths under _main in BANK0

    _Ecu_initialize->_led_initialize
    _led_initialize->_gpio_pin_initialize
    _gpio_pin_initialize->_gpio_pin_write_logic
    _TIMER1_INIT->_TIMER1_MODE_SELECT
    _TIMER1_INIT->_TIMER1_SIZE_SELECT

Critical Paths under _InterruptMangaer in BANK0

    None.

Critical Paths under _main in BANK1

    None.

Critical Paths under _InterruptMangaer in BANK1

    None.

Critical Paths under _main in BANK2

    None.

Critical Paths under _InterruptMangaer in BANK2

    None.

Critical Paths under _main in BANK3

    None.

Critical Paths under _InterruptMangaer in BANK3

    None.

Critical Paths under _main in BANK4

    None.

Critical Paths under _InterruptMangaer in BANK4

    None.

Critical Paths under _main in BANK5

    None.

Critical Paths under _InterruptMangaer in BANK5

    None.

Critical Paths under _main in BANK6

    None.

Critical Paths under _InterruptMangaer in BANK6

    None.

Critical Paths under _main in BANK7

    None.

Critical Paths under _InterruptMangaer in BANK7

    None.

Critical Paths under _main in BANK8

    None.

Critical Paths under _InterruptMangaer in BANK8

    None.

Critical Paths under _main in BANK9

    None.

Critical Paths under _InterruptMangaer in BANK9

    None.

Critical Paths under _main in BANK10

    None.

Critical Paths under _InterruptMangaer in BANK10

    None.

Critical Paths under _main in BANK11

    None.

Critical Paths under _InterruptMangaer in BANK11

    None.

Critical Paths under _main in BANK12

    None.

Critical Paths under _InterruptMangaer in BANK12

    None.

Critical Paths under _main in BANK13

    None.

Critical Paths under _InterruptMangaer in BANK13

    None.

Critical Paths under _main in BANK14

    None.

Critical Paths under _InterruptMangaer in BANK14

    None.

Critical Paths under _main in BANK15

    None.

Critical Paths under _InterruptMangaer in BANK15

    None.

Call Graph Tables:

 ---------------------------------------------------------------------------------
 (Depth) Function   	        Calls       Base Space   Used Autos Params    Refs
 ---------------------------------------------------------------------------------
 (0) _main                                                 0     0      0    9523
                        _TIMER1_INIT
                  _TIMER1_Read_Value
             _application_initialize
 ---------------------------------------------------------------------------------
 (1) _application_initialize                               0     0      0    8507
                     _Ecu_initialize
 ---------------------------------------------------------------------------------
 (2) _Ecu_initialize                                       0     0      0    8507
                     _led_initialize
 ---------------------------------------------------------------------------------
 (3) _led_initialize                                       4     3      1    8507
                                             10 BANK0      3     2      1
                _gpio_pin_initialize
 ---------------------------------------------------------------------------------
 (4) _gpio_pin_initialize                                  2     1      1    8201
                                              8 BANK0      2     1      1
       _gpio_pin_direction_intialize
               _gpio_pin_write_logic
 ---------------------------------------------------------------------------------
 (5) _gpio_pin_write_logic                                 8     6      2    5983
                                              0 BANK0      8     6      2
 ---------------------------------------------------------------------------------
 (5) _gpio_pin_direction_intialize                         7     6      1     617
                                              0 BANK0      7     6      1
 ---------------------------------------------------------------------------------
 (1) _TIMER1_Read_Value                                    9     7      2     329
                                              0 BANK0      9     7      2
 ---------------------------------------------------------------------------------
 (1) _TIMER1_INIT                                          4     3      1     687
                                              1 BANK0      3     2      1
                 _TIMER1_MODE_SELECT
                 _TIMER1_SIZE_SELECT
 ---------------------------------------------------------------------------------
 (2) _TIMER1_SIZE_SELECT                                   2     1      1     168
                                              0 BANK0      1     0      1
 ---------------------------------------------------------------------------------
 (2) _TIMER1_MODE_SELECT                                   2     1      1     168
                                              0 BANK0      1     0      1
 ---------------------------------------------------------------------------------
 Estimated maximum stack depth 5
 ---------------------------------------------------------------------------------
 (Depth) Function   	        Calls       Base Space   Used Autos Params    Refs
 ---------------------------------------------------------------------------------
 (6) _InterruptMangaer                                     6     6      0     471
                                              8 COMRAM     6     6      0
                           _INT0_ISR
                           _INT1_ISR
                           _INT2_ISR
                            _RB4_ISR
                            _RB5_ISR
                            _RB6_ISR
                            _RB7_ISR
                           _TMR0_ISR
                           _TMR1_ISR
 ---------------------------------------------------------------------------------
 (7) _TMR1_ISR                                             0     0      0     351
                                NULL *
                                _isr *
 ---------------------------------------------------------------------------------
 (8) _isr                                                  0     0      0     351
                    _led_turn_toggle
 ---------------------------------------------------------------------------------
 (9) _led_turn_toggle                                      4     3      1     351
                                              5 COMRAM     3     2      1
              _gpio_pin_toggle_logic
 ---------------------------------------------------------------------------------
 (10) _gpio_pin_toggle_logic                               6     5      1     150
                                              0 COMRAM     5     4      1
 ---------------------------------------------------------------------------------
 (8) NULL(Fake)                                            0     0      0       0
 ---------------------------------------------------------------------------------
 (7) _TMR0_ISR                                             0     0      0       0
 ---------------------------------------------------------------------------------
 (7) _RB7_ISR                                              1     1      0      30
                                              0 COMRAM     1     1      0
 ---------------------------------------------------------------------------------
 (7) _RB6_ISR                                              1     1      0      30
                                              0 COMRAM     1     1      0
 ---------------------------------------------------------------------------------
 (7) _RB5_ISR                                              1     1      0      30
                                              0 COMRAM     1     1      0
 ---------------------------------------------------------------------------------
 (7) _RB4_ISR                                              1     1      0      30
                                              0 COMRAM     1     1      0
 ---------------------------------------------------------------------------------
 (7) _INT2_ISR                                             0     0      0       0
 ---------------------------------------------------------------------------------
 (7) _INT1_ISR                                             0     0      0       0
 ---------------------------------------------------------------------------------
 (7) _INT0_ISR                                             0     0      0       0
 ---------------------------------------------------------------------------------
 Estimated maximum stack depth 10
 ---------------------------------------------------------------------------------

 Call Graph Graphs:

 _main (ROOT)
   _TIMER1_INIT
     _TIMER1_MODE_SELECT
     _TIMER1_SIZE_SELECT
   _TIMER1_Read_Value
   _application_initialize
     _Ecu_initialize
       _led_initialize
         _gpio_pin_initialize
           _gpio_pin_direction_intialize
           _gpio_pin_write_logic

 _InterruptMangaer (ROOT)
   _INT0_ISR
   _INT1_ISR
   _INT2_ISR
   _RB4_ISR
   _RB5_ISR
   _RB6_ISR
   _RB7_ISR
   _TMR0_ISR
   _TMR1_ISR
     NULL(Fake) *
     _isr *
       _led_turn_toggle
         _gpio_pin_toggle_logic

 Address spaces:
Name               Size   Autos  Total    Cost      Usage
BIGRAM             F7F      0       0      46        0.0%
EEDATA             400      0       0       0        0.0%
BITBANK14          100      0       0      33        0.0%
BANK14             100      0       0      34        0.0%
BITBANK13          100      0       0      31        0.0%
BANK13             100      0       0      32        0.0%
BITBANK12          100      0       0      29        0.0%
BANK12             100      0       0      30        0.0%
BITBANK11          100      0       0      27        0.0%
BANK11             100      0       0      28        0.0%
BITBANK10          100      0       0      25        0.0%
BANK10             100      0       0      26        0.0%
BITBANK9           100      0       0      23        0.0%
BANK9              100      0       0      24        0.0%
BITBANK8           100      0       0      21        0.0%
BANK8              100      0       0      22        0.0%
BITBANK7           100      0       0      18        0.0%
BANK7              100      0       0      19        0.0%
BITBANK6           100      0       0      16        0.0%
BANK6              100      0       0      17        0.0%
BITBANK5           100      0       0      14        0.0%
BANK5              100      0       0      15        0.0%
BITBANK4           100      0       0      12        0.0%
BANK4              100      0       0      13        0.0%
BITBANK3           100      0       0      10        0.0%
BANK3              100      0       0      11        0.0%
BITBANK2           100      0       0       8        0.0%
BANK2              100      0       0       9        0.0%
BITBANK1           100      0       0       6        0.0%
BANK1              100      0       0       7        0.0%
BITBANK15           80      0       0      35        0.0%
BANK15              80      0       0      36        0.0%
BITBANK0            80      0       0       4        0.0%
BANK0               80      D       D       5       10.2%
BITCOMRAM           7E      0       0       0        0.0%
COMRAM              7E      E      71       1       89.7%
BITBIGSFRhllhh      18      0       0      38        0.0%
BITBIGSFRlhh        15      0       0      41        0.0%
BITBIGSFRhh          D      0       0      37        0.0%
BITBIGSFRhllll       8      0       0      40        0.0%
BITBIGSFRlhll        7      0       0      42        0.0%
BITBIGSFRllhh        6      0       0      43        0.0%
BITBIGSFRhlllhh      5      0       0      39        0.0%
BITBIGSFRlllh        4      0       0      44        0.0%
BITBIGSFRllll        4      0       0      45        0.0%
BIGSFR               0      0       0     200        0.0%
BITSFR               0      0       0     200        0.0%
SFR                  0      0       0     200        0.0%
STACK                0      0       0       2        0.0%
NULL                 0      0       0       0        0.0%
ABS                  0      0      7E      20        0.0%
DATA                 0      0      7E       3        0.0%
CODE                 0      0       0       0        0.0%


Microchip Technology PIC18 Macro Assembler V2.46 build 20240104201356 
Symbol Table                                                                                   Mon Aug 19 09:00:25 2024

                     ??_InterruptMangaer 006B                        ??_led_turn_toggle 0069  
                  _INT0_INTERRUPTHANDLER 0058                                      l330 1974  
                                    l245 15DC                                      l249 1632  
                                    l516 1434                                      l533 152A  
                                    l550 1832                                      l975 1992  
                                    l998 1542                                      _isr 1982  
                                    _ret 0071                      led_initialize@F3062 0060  
                                    tosl 0FFD                                      wreg 0FE8  
                        __end_of_RB4_ISR 191C                          __end_of_RB5_ISR 196A  
                        __end_of_RB6_ISR 1950                          __end_of_RB7_ISR 1936  
                                   l1000 15C4                                     l1021 176A  
                                   l1013 17C6                                     l1023 1770  
                                   l1031 1716                                     l1015 17EE  
                                   l1025 17A6                                     l1033 171C  
                                   l1035 1752                                     l5121 18E0  
                                   l4331 144C                                     l5123 18EA  
                                   l4333 1454                                     l4341 1528  
                                   l4351 1334                                     l4335 14AC  
                                   l5119 18DC                                     l4601 15BC  
                                   l4361 1406                                     l4353 1354  
                                   l5145 1512                                     l4329 1436  
                                   l4603 15BE                                     l4611 17A8  
                                   l4355 135C                                     l4363 1432  
                                   l4339 14FE                                     l4371 180E  
                                   l4605 15C0                                     l4613 17C2  
                                   l4357 13B4                                     l4349 131E  
                                   l4373 182E                                     l4381 15E0  
                                   l4471 1754                                     l4607 15C2  
                                   l4615 17CE                                     l4367 17F0  
                                   l4383 1616                                     l4473 1766  
                                   l4481 1712                                     l4369 1806  
                                   l4385 1618                                     l4377 15C6  
                                   l4387 162A                                     l4379 15D8  
                                   l4477 1776                                     l4485 1722  
                                   l4469 196A                                     l4581 198C  
                                   l4479 1700                                     l4591 1570  
                                   l4583 152C                                     l4593 158C  
                                   l4585 153E                                     l4595 159A  
                                   l4587 1544                                     l4597 15AC  
                                   l4589 1554                                     l4599 15BA  
                                   ?_isr 0063                                     STR_1 103C  
                                   STR_2 1039                                     _LATA 0F89  
                                   _LATB 0F8A                                     _LATC 0F8B  
                                   u3200 144C                                     _LATD 0F8C  
                                   u3201 1448                                     _LATE 0F8D  
                                   u3230 1334                                     u3214 1472  
                                   u3231 1330                                     u3215 146E  
                                   u3400 1712                                     u3240 1354  
                                   u3224 14CA                                     u3401 170E  
                                   u3241 1350                                     u3225 14C6  
                                   u3305 1626                                     u3410 173C  
                                   u3411 1736                                     u3307 162A  
                                   u3270 141C                                     u3254 137A  
                                   u3271 1416                                     u3255 1376  
                                   u3416 173E                                     u3520 153E  
                                   u3264 13D2                                     u3280 1806  
                                   u3521 153A                                     u3265 13CE  
                                   u3281 1802                                     u3530 17C2  
                                   u3290 15D8                                     u3531 17BE  
                                   u3291 15D4                                     u3380 1766  
                                   u3276 141E                                     u3381 1762  
                                   u3390 1790                                     u3391 178A  
                                   u3396 1792                                     _led1 003B  
                                   _led2 0034                                     _led3 0033  
                                   _main 18DC                                     fsr2h 0FDA  
                                   indf2 0FDF                                     fsr1l 0FE1  
                                   fsr2l 0FD9                                     btemp 0072  
                 __end_of_led_initialize 1634                                     prodh 0FF4  
                                   prodl 0FF3                                     start 000E  
                           ___param_bank 0000                   ?_gpio_pin_toggle_logic 0063  
                   _gpio_pin_write_logic 1436                                    ??_isr 006B  
                       __end_of_INT0_ISR 19A0                         __end_of_INT1_ISR 199C  
                       __end_of_INT2_ISR 1998                                    ?_main 0063  
               ??_application_initialize 008D                                    _EEADR 0FA9  
                                  _RB4_F 0032                                    _RB5_F 0031  
                                  _RB6_F 0030                                    _RB7_F 002F  
                                  i2l270 169C                                    i2l266 1648  
                                  i2l631 199E                                    i2l641 1996  
                                  i2l545 16FE                                    i2l636 199A  
                                  i2l652 191A                                    i2l830 107A  
                                  i2l647 1918                                    i2l663 1968  
                                  i2l840 1186                                    i2l832 109A  
                                  i2l674 194E                                    i2l850 12DA  
                                  i2l842 11CA                                    i2l834 10BA  
                                  i2l852 12FA                                    i2l844 120E  
                                  i2l836 10FE                                    i2l685 1934  
                                  i2l846 1252                                    i2l838 1142  
                                  i2l855 1302                                    i2l960 198A  
                                  i2l848 1296                                    i2l929 1980  
                    relay_turn_off@F3065 005A                                    _TMR0H 0FD7  
                                  _TMR1H 0FCF                                    _TMR0L 0FD6  
                                  _TMR1L 0FCE                                    _PORTA 0F80  
                                  _PORTB 0F81                                    _PORTC 0F82  
                                  _PORTD 0F83                                    _PORTE 0F84  
                                  _TRISA 0F92                                    _TRISB 0F93  
                                  _TRISC 0F94                                    _TRISD 0F95  
                                  _TRISE 0F96                         __end_of_TMR0_ISR 1982  
                       __end_of_TMR1_ISR 18DC               __end_of_TIMER1_MODE_SELECT 17A8  
                                  _value 0061                                    _timer 0035  
                                  pclath 0FFA                                    pclatu 0FFB  
                                  tablat 0FF5                                    ttemp5 0073  
                                  ttemp6 0076                                    ttemp7 007A  
                                  status 0FD8                                    wtemp8 0073  
                        ?_led_initialize 008A                  _RB4_INTERRUPTHANDLERLOW 0050  
                _RB7_INTERRUPTHANDLERLOW 0044                          __initialization 1870  
                           __end_of_main 1900                    ?_gpio_pin_write_logic 0080  
                 TIMER1_Read_Value@h_val 0088                   TIMER1_Read_Value@l_val 0087  
                 TIMER1_Read_Value@timer 0080                            _lat_registers 001B  
                           ?_TIMER1_INIT 0081                                   ??_main 008D  
                         _Ecu_initialize 196A                            __activetblptr 0003  
                       led_turn_on@F3067 005F                                ??_RB4_ISR 0063  
                              ??_RB5_ISR 0063                                ??_RB6_ISR 0063  
                              ??_RB7_ISR 0063                                   _ADRESH 0FC4  
                                 _EEADRH 0FAA                                   _ADRESL 0FC3  
                                 _EEDATA 0FA8                                   _EECON2 0FA7  
                                 i2l1040 18DA                                   i2l2101 193A  
                                 i2l2121 1934                                   i2l2113 191E  
                                 i2l2107 194E                                   i2l2115 1920  
                                 i2l2053 199C                                   i2l2071 1902  
                                 i2l2065 1994                                   i2l2073 1904  
                                 i2l2161 197C                                   i2l2059 1998  
                                 i2l2093 1968                                   i2l2085 1952  
                                 i2l2157 1976                                   i2l2079 1918  
                                 i2l2087 1954                                   i2l2159 1978  
                                 i2l2099 1938                                   i2l4301 1290  
                                 i2l4221 1068                                   i2l4311 12D4  
                                 i2l4303 12A4                                   i2l4231 10B6  
                                 i2l4223 1076                                   i2l4313 12E8  
                                 i2l4305 12B2                                   i2l4241 10F8  
                                 i2l4233 10C8                                   i2l4225 1088  
                                 i2l3443 169E                                   i2l4315 12F6  
                                 i2l4307 12C0                                   i2l4251 113C  
                                 i2l4243 110C                                   i2l4235 10D6  
                                 i2l4227 1096                                   i2l4219 105A  
                                 i2l3445 16AE                                   i2l4317 12FE  
                                 i2l4309 12D0                                   i2l4261 1180  
                                 i2l4253 1150                                   i2l4245 111A  
                                 i2l4237 10E4                                   i2l4229 10A8  
                                 i2l3447 16B2                                   i2l3471 1682  
                                 i2l4271 11C4                                   i2l4263 1194  
                                 i2l4255 115E                                   i2l4247 1128  
                                 i2l4239 10F4                                   i2l3473 1684  
                                 i2l3465 1634                                   i2l4281 1208  
                                 i2l4273 11D8                                   i2l4265 11A2  
                                 i2l4257 116C                                   i2l4249 1138  
                                 i2l3475 1694                                   i2l3467 1644  
                                 i2l4291 124C                                   i2l4283 121C  
                                 i2l4275 11E6                                   i2l4267 11B0  
                                 i2l4259 117C                                   i2l3469 164C  
                                 i2l4293 1260                                   i2l4285 122A  
                                 i2l4277 11F4                                   i2l4269 11C0  
                                 i2l3559 1982                                   i2l3671 18A6  
                                 i2l4295 126E                                   i2l4287 1238  
                                 i2l4279 1204                                   i2l3673 18A8  
                                 i2l4297 127C                                   i2l4289 1248  
                                 i2l3675 18AC                                   i2l4299 128C  
                                 i2l3677 18B0                                   i2l3679 18C2  
                  _INT1_INTERRUPTHANDLER 0056         gpio_pin_toggle_logic@_pin_config 0063  
                 __end_of_Ecu_initialize 1976                                   clear_0 1896  
                  led_initialize@pin_obj 008C                                   isa$std 0001  
                                 _preval 003E  gpio_pin_direction_intialize@_pin_config 0080  
                           __pdataCOMRAM 0001                             __mediumconst 0000  
                                 tblptrh 0FF7                                   tblptrl 0FF6  
                                 tblptru 0FF8               __end_of_TIMER1_SIZE_SELECT 1754  
                             __accesstop 0080                  __end_of__initialization 189C  
                              ?_INT0_ISR 0063                                ?_INT1_ISR 0063  
                              ?_INT2_ISR 0063                 _RB4_INTERRUPTHANDLERHIGH 0052  
                          ___rparam_used 0001                 _RB7_INTERRUPTHANDLERHIGH 0046  
                      led_initialize@led 008A                          _led_turn_toggle 1634  
                 ??_gpio_pin_write_logic 0082                           __pcstackCOMRAM 0063  
                              ?_TMR0_ISR 0063                                ?_TMR1_ISR 0063  
                        ?_Ecu_initialize 0063                               ??_INT0_ISR 0063  
                             ??_INT1_ISR 0063                               ??_INT2_ISR 0063  
                 _application_initialize 198C                               __pnvCOMRAM 0071  
                ??_gpio_pin_toggle_logic 0064                               ??_TMR0_ISR 0063  
                             ??_TMR1_ISR 006B                        led_turn_off@F3072 005E  
                  _INT2_INTERRUPTHANDLER 0054                                  _RB4_ISR 1900  
                                _RB5_ISR 1950                                  _RB6_ISR 1936  
                                _RB7_ISR 191C                            _keypad_values 0001  
                   led_turn_toggle@F3077 005D                                  i2u43_40 1914  
                                i2u43_41 1910                                  i2u44_40 1964  
                                i2u44_41 1960                                  i2u45_40 194A  
                                i2u45_41 1946                                  i2u46_40 1930  
                                i2u46_41 192C                         ??_led_initialize 008B  
                __end_of_led_turn_toggle 169E                           _tris_registers 0025  
                     _TIMER1_MODE_SELECT 1754                                  __Hparam 0000  
                                __Lparam 0000                      _gpio_pin_initialize 17F0  
                    ?_TIMER1_MODE_SELECT 0080                             __psmallconst 1000  
                                __pcinit 1870                                  __ramtop 1000  
                             _customChar 1031                                  __ptext0 18DC  
                                __ptext1 198C                                  __ptext2 196A  
                                __ptext3 15C6                                  __ptext4 17F0  
                                __ptext5 1436                                  __ptext6 131E  
                                __ptext7 17A8                                  __ptext8 152C  
                                __ptext9 1700                                _T0CONbits 0FD5  
                              _T1CONbits 0FCD                                  _preload 0040  
                   ?_gpio_pin_initialize 0088                     ??_TIMER1_MODE_SELECT 0081  
                         __pintcode_body 1040                     end_of_initialization 189C  
                                int_func 1040                  _RB5_INTERRUPTHANDLERLOW 004C  
                                postdec1 0FE5                                  postdec2 0FDD  
                                postinc0 0FEE                                  postinc2 0FDE  
                              _PORTBbits 0F81                         _InterruptMangaer 0008  
   __end_of_gpio_pin_direction_intialize 1436             _gpio_pin_direction_intialize 131E  
                  ??_gpio_pin_initialize 0089                         ?_led_turn_toggle 0068  
                       ??_Ecu_initialize 008D                       relay_turn_on@F3060 005B  
                   TIMER1_Read_Value@ret 0086                     TIMER1_Read_Value@val 0081  
                     _TIMER1_SIZE_SELECT 1700                            __pidataCOMRAM 1834  
                    ?_TIMER1_SIZE_SELECT 0080                      start_initialization 1870  
                 led_turn_toggle@pin_obj 006A                              __end_of_isr 198C  
          ?_gpio_pin_direction_intialize 0080                  ?_application_initialize 0063  
                   ??_TIMER1_SIZE_SELECT 0081                 _RB6_INTERRUPTHANDLERHIGH 004A  
          __end_of_gpio_pin_toggle_logic 1700                                 ?_RB4_ISR 0063  
                               ?_RB5_ISR 0063                                 ?_RB6_ISR 0063  
                               ?_RB7_ISR 0063                              __pbssCOMRAM 003C  
                          __pcstackBANK0 0080                                 RB4_ISR@n 0063  
                               RB5_ISR@n 0063                                 RB6_ISR@n 0063  
         __end_of_application_initialize 1994                                 RB7_ISR@n 0063  
        gpio_pin_direction_intialize@ret 0086                                __pintcode 0008  
        gpio_pin_write_logic@_pin_config 0080                gpio_pin_write_logic@logic 0081  
                          ??_TIMER1_INIT 0082                              __smallconst 1000  
                    __end_of_customChar2 1031                      __end_of_customChar3 1029  
                    __end_of_customChar4 1021                      __end_of_customChar5 1019  
                    __end_of_customChar6 1011                      __end_of_customChar7 1009  
         ??_gpio_pin_direction_intialize 0081                                 _INT0_ISR 199C  
                               _INT1_ISR 1998                                 _INT2_ISR 1994  
               __end_of_InterruptMangaer 131E                                 _PIE1bits 0F9D  
                               i2u210_40 1644                                 i2u210_41 1640  
                               i2u211_45 1692                                 i2u211_47 1694  
                               i2u300_40 11B0                                 i2u300_41 11AC  
                               i2u301_40 11C0                                 i2u301_41 11BC  
                               i2u206_40 16AE                                 i2u310_40 1260  
                               i2u302_40 11D8                                 i2u206_41 16AA  
                               i2u310_41 125C                                 i2u302_41 11D4  
                               i2u311_40 126E                                 i2u303_40 11E6  
                               i2u311_41 126A                                 i2u303_41 11E2  
                               i2u207_44 16D0                                 i2u207_45 16CC  
                               i2u312_40 127C                                 i2u304_40 11F4  
                               i2u312_41 1278                                 i2u304_41 11F0  
                               i2u233_40 18C2                                 i2u313_40 128C  
                               i2u305_40 1204                                 i2u233_41 18BE  
                               i2u313_41 1288                                 i2u305_41 1200  
                               i2u314_40 12A4                                 i2u306_40 121C  
                               i2u314_41 12A0                                 i2u306_41 1218  
                               i2u234_48 18C8                                 i2u315_40 12B2  
                               i2u307_40 122A                                 i2u234_49 18DA  
                               i2u315_41 12AE                                 i2u307_41 1226  
                               i2u316_40 12C0                                 i2u308_40 1238  
                               i2u316_41 12BC                                 i2u308_41 1234  
                               i2u317_40 12D0                                 i2u309_40 1248  
                               i2u317_41 12CC                                 i2u309_41 1244  
                               i2u318_40 12E8                                 i2u318_41 12E4  
                               i2u319_40 12F6                                 i2u319_41 12F2  
                               i2u280_40 1068                                 i2u280_41 1064  
                               i2u281_40 1076                                 i2u281_41 1072  
                               _PIR1bits 0F9E                                 i2u290_40 110C  
                               i2u282_40 1088                                 i2u290_41 1108  
                               i2u282_41 1084                                 i2u291_40 111A  
                               i2u283_40 1096                                 i2u291_41 1116  
                               i2u283_41 1092                                 i2u292_40 1128  
                               i2u284_40 10A8                                 i2u292_41 1124  
                               i2u284_41 10A4                                 i2u293_40 1138  
                               i2u285_40 10B6                                 i2u293_41 1134  
                               i2u285_41 10B2                                 i2u294_40 1150  
                               i2u286_40 10C8                                 i2u294_41 114C  
                               i2u286_41 10C4                                 i2u295_40 115E  
                               i2u287_40 10D6                                 i2u295_41 115A  
                               i2u287_41 10D2                                 i2u296_40 116C  
                               i2u288_40 10E4                                 i2u296_41 1168  
                               i2u288_41 10E0                                 i2u297_40 117C  
                               i2u289_40 10F4                                 i2u297_41 1178  
                               i2u289_41 10F0                                 i2u298_40 1194  
                               i2u298_41 1190                                 i2u299_40 11A2  
                               i2u299_41 119E                                 _TMR0_ISR 1976  
                               _TMR1_ISR 18A6                               _ADCON0bits 0FC2  
                             _ADCON1bits 0FC1                               _ADCON2bits 0FC0  
                 gpio_pin_initialize@ret 0089                      __end_of_TIMER1_INIT 15C6  
                gpio_pin_write_logic@ret 0087                              _INTCON2bits 0FF1  
                            _INTCON3bits 0FF0                                copy_data0 1884  
                TIMER1_MODE_SELECT@timer 0080                relay_initialization@F3055 005C  
                             _EECON1bits 0FA6                                 __Hrparam 0000  
                _RB6_INTERRUPTHANDLERLOW 0048                                 __Lrparam 0000  
            __end_of_gpio_pin_initialize 1834           gpio_pin_initialize@_pin_config 0088  
                           _TMR1_HANDLER 003C                              _customChar2 1029  
                            _customChar3 1021                              _customChar4 1019  
                            _customChar5 1011                              _customChar6 1009  
                            _customChar7 1001                                 __ptext10 1754  
                               __ptext20 1900                                 __ptext12 18A6  
                               __ptext21 1994                                 __ptext13 1982  
                               __ptext22 1998                                 __ptext14 1634  
                               __ptext23 199C                                 __ptext15 169E  
                               __ptext16 1976                                 __ptext17 191C  
                               __ptext18 1936                                 __ptext19 1950  
                     led_turn_toggle@led 0068                         TIMER1_INIT@timer 0081  
                     __end_of_customChar 1039                                 isa$xinst 0000  
                               int$flags 0072                              _TIMER1_INIT 152C  
                             _INTCONbits 0FF2             __end_of_gpio_pin_write_logic 152C  
                               intlevel2 0000                 _RB5_INTERRUPTHANDLERHIGH 004E  
                             _ISR_TIMER0 0042                        _TIMER1_Read_Value 17A8  
                  _gpio_pin_toggle_logic 169E                       ?_TIMER1_Read_Value 0080  
                    ??_TIMER1_Read_Value 0082                           _port_registers 0011  
                TIMER1_SIZE_SELECT@timer 0080                __end_of_TIMER1_Read_Value 17F0  
                      ?_InterruptMangaer 0063                           _led_initialize 15C6  
