

Microchip MPLAB XC8 Assembler V2.46 build 20240104201356 
                                                                                               Sun Sep 15 08:22:24 2024

Microchip MPLAB XC8 C Compiler v2.46 (Free license) build 20240104201356 Og1 
     1                           	processor	18F4620
     2                           	fnconf	rparam,??,?,0
     3                           	pagewidth 120
     4                           	opt	flic
     5                           	psect	idataCOMRAM,global,class=CODE,delta=1,noexec
     6                           	psect	idataBANK0,global,class=CODE,delta=1,noexec
     7                           	psect	nvCOMRAM,global,class=COMRAM,space=1,delta=1,lowdata,noexec
     8                           	psect	smallconst,global,reloc=2,class=SMALLCONST,delta=1,noexec
     9                           	psect	cinit,global,reloc=2,class=CODE,delta=1
    10                           	psect	bssCOMRAM,global,class=COMRAM,space=1,delta=1,lowdata,noexec
    11                           	psect	dataCOMRAM,global,class=COMRAM,space=1,delta=1,lowdata,noexec
    12                           	psect	dataBANK0,global,class=BANK0,space=1,delta=1,lowdata,noexec
    13                           	psect	cstackCOMRAM,global,class=COMRAM,space=1,delta=1,lowdata,noexec
    14                           	psect	text0,global,reloc=2,class=CODE,delta=1
    15                           	psect	text1,global,reloc=2,class=CODE,delta=1
    16                           	psect	text2,global,reloc=2,class=CODE,delta=1
    17                           	psect	text3,global,reloc=2,class=CODE,delta=1
    18                           	psect	text4,global,reloc=2,class=CODE,delta=1
    19                           	psect	text5,global,reloc=2,class=CODE,delta=1
    20                           	psect	text6,global,reloc=2,class=CODE,delta=1
    21                           	psect	text7,global,reloc=2,class=CODE,delta=1
    22                           	psect	text8,global,reloc=2,class=CODE,delta=1,group=1
    23                           	psect	text9,global,reloc=2,class=CODE,delta=1,inline
    24                           	psect	intcode,global,reloc=2,class=CODE,delta=1
    25                           	psect	intcode_body,global,reloc=2,class=CODE,delta=1
    26                           	psect	text11,global,reloc=2,class=CODE,delta=1
    27                           	psect	text12,global,reloc=2,class=CODE,delta=1
    28                           	psect	text13,global,reloc=2,class=CODE,delta=1
    29                           	psect	text14,global,reloc=2,class=CODE,delta=1
    30                           	psect	text15,global,reloc=2,class=CODE,delta=1
    31                           	psect	text16,global,reloc=2,class=CODE,delta=1
    32                           	psect	text17,global,reloc=2,class=CODE,delta=1
    33                           	psect	text18,global,reloc=2,class=CODE,delta=1
    34                           	psect	text19,global,reloc=2,class=CODE,delta=1
    35                           	psect	text20,global,reloc=2,class=CODE,delta=1
    36                           	psect	text21,global,reloc=2,class=CODE,delta=1
    37                           	psect	text22,global,reloc=2,class=CODE,delta=1
    38                           	psect	text23,global,reloc=2,class=CODE,delta=1
    39                           	psect	text24,global,reloc=2,class=CODE,delta=1
    40                           	psect	text25,global,reloc=2,class=CODE,delta=1
    41                           	psect	text26,global,reloc=2,class=CODE,delta=1
    42                           	psect	text27,global,reloc=2,class=CODE,delta=1
    43                           	psect	intsave_regs,global,class=BIGRAM,space=1,delta=1,noexec
    44                           	psect	rparam,global,class=COMRAM,space=1,delta=1,noexec
    45                           	psect	temp,global,ovrld,common,class=COMRAM,space=1,delta=1,lowdata
    46                           	psect	config,global,abs,ovrld,class=CONFIG,space=4,delta=1,noexec
    47   000000                     
    48                           ; Generated 17/10/2023 GMT
    49                           ; 
    50                           ; Copyright © 2023, Microchip Technology Inc. and its subsidiaries ("Microchip")
    51                           ; All rights reserved.
    52                           ; 
    53                           ; This software is developed by Microchip Technology Inc. and its subsidiaries ("Microch
      +                          ip").
    54                           ; 
    55                           ; Redistribution and use in source and binary forms, with or without modification, are
    56                           ; permitted provided that the following conditions are met:
    57                           ; 
    58                           ;     1. Redistributions of source code must retain the above copyright notice, this lis
      +                          t of
    59                           ;        conditions and the following disclaimer.
    60                           ; 
    61                           ;     2. Redistributions in binary form must reproduce the above copyright notice, this 
      +                          list
    62                           ;        of conditions and the following disclaimer in the documentation and/or other
    63                           ;        materials provided with the distribution. Publication is not required when
    64                           ;        this file is used in an embedded application.
    65                           ; 
    66                           ;     3. Microchip's name may not be used to endorse or promote products derived from th
      +                          is
    67                           ;        software without specific prior written permission.
    68                           ; 
    69                           ; THIS SOFTWARE IS PROVIDED BY MICROCHIP "AS IS" AND ANY EXPRESS OR IMPLIED WARRANTIES,
    70                           ; INCLUDING, BUT NOT LIMITED TO, THE IMPLIED WARRANTIES OF MERCHANTABILITY AND FITNESS F
      +                          OR
    71                           ; PURPOSE ARE DISCLAIMED.  IN NO EVENT SHALL MICROCHIP BE LIABLE FOR ANY DIRECT, INDIREC
      +                          T,
    72                           ; INCIDENTAL, SPECIAL, EXEMPLARY, OR CONSEQUENTIAL DAMAGES (INCLUDING BUT NOT LIMITED TO
    73                           ; PROCUREMENT OF SUBSTITUTE GOODS OR SERVICES; LOSS OF USE, DATA OR PROFITS; OR BUSINESS
    74                           ; INTERRUPTION) HOWSOEVER CAUSED AND ON ANY THEORY OF LIABILITY, WHETHER IN CONTRACT, ST
      +                          RICT
    75                           ; LIABILITY, OR TORT (INCLUDING NEGLIGENCE OR OTHERWISE) ARISING IN ANY WAY OUT OF THE U
      +                          SE OF
    76                           ; THIS SOFTWARE, EVEN IF ADVISED OF THE POSSIBILITY OF SUCH DAMAGE.
    77                           ; 
    78                           ; 
    79                           ; Code-generator required, PIC18F4620 Definitions
    80                           ; 
    81                           ; SFR Addresses
    82   000000                     
    83                           	psect	idataCOMRAM
    84   00198A                     __pidataCOMRAM:
    85                           	callstack 0
    86                           
    87                           ;initializer for _tris_registers
    88   00198A  92                 	db	146
    89   00198B  0F                 	db	15
    90   00198C  93                 	db	147
    91   00198D  0F                 	db	15
    92   00198E  94                 	db	148
    93   00198F  0F                 	db	15
    94   001990  95                 	db	149
    95   001991  0F                 	db	15
    96   001992  96                 	db	150
    97   001993  0F                 	db	15
    98                           
    99                           ;initializer for _ch
   100   001994  41                 	db	65
   101                           
   102                           ;initializer for _RB7_F
   103   001995  01                 	db	1
   104                           
   105                           ;initializer for _RB6_F
   106   001996  01                 	db	1
   107                           
   108                           ;initializer for _RB5_F
   109   001997  01                 	db	1
   110                           
   111                           ;initializer for _RB4_F
   112   001998  01                 	db	1
   113                           
   114                           ;initializer for _led2
   115   001999  0A                 	db	10
   116                           
   117                           ;initializer for _led1
   118   00199A  12                 	db	18
   119                           
   120                           	psect	idataBANK0
   121   0018FC                     __pidataBANK0:
   122                           	callstack 0
   123                           
   124                           ;initializer for _keypad_values
   125   0018FC  37                 	db	55
   126   0018FD  38                 	db	56
   127   0018FE  39                 	db	57
   128   0018FF  2F                 	db	47
   129   001900  34                 	db	52
   130   001901  35                 	db	53
   131   001902  36                 	db	54
   132   001903  2A                 	db	42
   133   001904  31                 	db	49
   134   001905  32                 	db	50
   135   001906  33                 	db	51
   136   001907  2D                 	db	45
   137   001908  23                 	db	35
   138   001909  30                 	db	48
   139   00190A  3D                 	db	61
   140   00190B  2B                 	db	43
   141                           
   142                           ;initializer for _port_registers
   143   00190C  80                 	db	128
   144   00190D  0F                 	db	15
   145   00190E  81                 	db	129
   146   00190F  0F                 	db	15
   147   001910  82                 	db	130
   148   001911  0F                 	db	15
   149   001912  83                 	db	131
   150   001913  0F                 	db	15
   151   001914  84                 	db	132
   152   001915  0F                 	db	15
   153                           
   154                           ;initializer for _lat_registers
   155   001916  89                 	db	137
   156   001917  0F                 	db	15
   157   001918  8A                 	db	138
   158   001919  0F                 	db	15
   159   00191A  8B                 	db	139
   160   00191B  0F                 	db	15
   161   00191C  8C                 	db	140
   162   00191D  0F                 	db	15
   163   00191E  8D                 	db	141
   164   00191F  0F                 	db	15
   165   000000                     _TMR3L	set	4018
   166   000000                     _TMR3H	set	4019
   167   000000                     _TMR2	set	4044
   168   000000                     _TMR1L	set	4046
   169   000000                     _TMR1H	set	4047
   170   000000                     _T1CONbits	set	4045
   171   000000                     _TMR0L	set	4054
   172   000000                     _TMR0H	set	4055
   173   000000                     _T0CONbits	set	4053
   174   000000                     _T2CONbits	set	4042
   175   000000                     _INTCON2bits	set	4081
   176   000000                     _INTCON3bits	set	4080
   177   000000                     _SSPBUF	set	4041
   178   000000                     _SSPSTATbits	set	4039
   179   000000                     _SSPADD	set	4040
   180   000000                     _SSPCON2bits	set	4037
   181   000000                     _SSPCON1bits	set	4038
   182   000000                     _SPBRGH	set	4016
   183   000000                     _SPBRG	set	4015
   184   000000                     _BAUDCONbits	set	4024
   185   000000                     _RCREG	set	4014
   186   000000                     _TXREG	set	4013
   187   000000                     _TXSTAbits	set	4012
   188   000000                     _TRISCbits	set	3988
   189   000000                     _RCSTAbits	set	4011
   190   000000                     _EECON2	set	4007
   191   000000                     _ADRESH	set	4036
   192   000000                     _ADRESL	set	4035
   193   000000                     _INTCONbits	set	4082
   194   000000                     _TRISD	set	3989
   195   000000                     _PR2	set	4043
   196   000000                     _TRISB	set	3987
   197   000000                     _TRISE	set	3990
   198                           
   199                           	psect	nvCOMRAM
   200   000077                     __pnvCOMRAM:
   201                           	callstack 0
   202   000077                     _ret:
   203                           	callstack 0
   204   000077                     	ds	1
   205   000000                     _PORTBbits	set	3969
   206   000000                     _TRISC	set	3988
   207   000000                     _PIE1bits	set	3997
   208   000000                     _ADCON0bits	set	4034
   209   000000                     _PORTE	set	3972
   210   000000                     _PORTD	set	3971
   211   000000                     _PORTC	set	3970
   212   000000                     _PORTB	set	3969
   213   000000                     _PORTA	set	3968
   214   000000                     _LATA	set	3977
   215   000000                     _TRISA	set	3986
   216   000000                     _PIR1bits	set	3998
   217   000000                     _PIE2bits	set	4000
   218   000000                     _CCP2CONbits	set	4026
   219   000000                     _CCP1CONbits	set	4029
   220   000000                     _ADCON2bits	set	4032
   221   000000                     _ADCON1bits	set	4033
   222   000000                     _CCPR1L	set	4030
   223   000000                     _CCPR2L	set	4027
   224   000000                     _EECON1bits	set	4006
   225   000000                     _EEDATA	set	4008
   226   000000                     _EEADR	set	4009
   227   000000                     _EEADRH	set	4010
   228   000000                     _T3CONbits	set	4017
   229   000000                     _PIR2bits	set	4001
   230   000000                     _LATE	set	3981
   231   000000                     _LATD	set	3980
   232   000000                     _LATC	set	3979
   233   000000                     _LATB	set	3978
   234                           
   235                           	psect	smallconst
   236   001000                     __psmallconst:
   237                           	callstack 0
   238   001000  00                 	db	0
   239   001001                     STR_2:
   240   001001  25                 	db	37
   241   001002  69                 	db	105	;'i'
   242   001003  00                 	db	0
   243   001004  25                 	db	37
   244   001005  75                 	db	117	;'u'
   245   001006  00                 	db	0
   246   001007  00                 	db	0	; dummy byte at the end
   247   000000                     
   248                           ; #config settings
   249                           
   250                           	psect	cinit
   251   00172A                     __pcinit:
   252                           	callstack 0
   253   00172A                     start_initialization:
   254                           	callstack 0
   255   00172A                     __initialization:
   256                           	callstack 0
   257                           
   258                           ; Initialize objects allocated to BANK0 (36 bytes)
   259                           ; load TBLPTR registers with __pidataBANK0
   260   00172A  0EFC               	movlw	low __pidataBANK0
   261   00172C  6EF6               	movwf	tblptrl,c
   262   00172E  0E18               	movlw	high __pidataBANK0
   263   001730  6EF7               	movwf	tblptrh,c
   264   001732  0E00               	movlw	low (__pidataBANK0 shr (0+16))
   265   001734  6EF8               	movwf	tblptru,c
   266   001736  EE00  F080         	lfsr	0,__pdataBANK0
   267   00173A  EE10 F024          	lfsr	1,36
   268   00173E                     copy_data0:
   269   00173E  0009               	tblrd		*+
   270   001740  CFF5 FFEE          	movff	tablat,postinc0
   271   001744  50E5               	movf	postdec1,w,c
   272   001746  50E1               	movf	fsr1l,w,c
   273   001748  E1FA               	bnz	copy_data0
   274                           
   275                           ; Initialize objects allocated to COMRAM (17 bytes)
   276                           ; load TBLPTR registers with __pidataCOMRAM
   277   00174A  0E8A               	movlw	low __pidataCOMRAM
   278   00174C  6EF6               	movwf	tblptrl,c
   279   00174E  0E19               	movlw	high __pidataCOMRAM
   280   001750  6EF7               	movwf	tblptrh,c
   281   001752  0E00               	movlw	low (__pidataCOMRAM shr (0+16))
   282   001754  6EF8               	movwf	tblptru,c
   283   001756  EE00  F066         	lfsr	0,__pdataCOMRAM
   284   00175A  EE10 F011          	lfsr	1,17
   285   00175E                     copy_data1:
   286   00175E  0009               	tblrd		*+
   287   001760  CFF5 FFEE          	movff	tablat,postinc0
   288   001764  50E5               	movf	postdec1,w,c
   289   001766  50E1               	movf	fsr1l,w,c
   290   001768  E1FA               	bnz	copy_data1
   291                           
   292                           ; Clear objects allocated to COMRAM (79 bytes)
   293   00176A  EE00  F001         	lfsr	0,__pbssCOMRAM
   294   00176E  0E4F               	movlw	79
   295   001770                     clear_0:
   296   001770  6AEE               	clrf	postinc0,c
   297   001772  06E8               	decf	wreg,f,c
   298   001774  E1FD               	bnz	clear_0
   299   001776                     end_of_initialization:
   300                           	callstack 0
   301   001776                     __end_of__initialization:
   302                           	callstack 0
   303   001776  9078               	bcf	int$flags,0,c	;clear compiler interrupt flag (level 1)
   304   001778  9278               	bcf	int$flags,1,c	;clear compiler interrupt flag (level 2)
   305   00177A  0100               	movlb	0
   306   00177C  EF2C  F00B         	goto	_main	;jump to C main() function
   307                           
   308                           	psect	bssCOMRAM
   309   000001                     __pbssCOMRAM:
   310                           	callstack 0
   311   000001                     _slave1:
   312                           	callstack 0
   313   000001                     	ds	2
   314   000003                     _slave2:
   315                           	callstack 0
   316   000003                     	ds	2
   317   000005                     _TMR3_HANDLER:
   318                           	callstack 0
   319   000005                     	ds	2
   320   000007                     _preval@hal_timer3$F3849:
   321                           	callstack 0
   322   000007                     	ds	2
   323   000009                     _TMR2_HANDLER:
   324                           	callstack 0
   325   000009                     	ds	2
   326   00000B                     _TMR1_HANDLER:
   327                           	callstack 0
   328   00000B                     	ds	2
   329   00000D                     _preval:
   330                           	callstack 0
   331   00000D                     	ds	2
   332   00000F                     _preload:
   333                           	callstack 0
   334   00000F                     	ds	2
   335   000011                     _ISR_TIMER0:
   336                           	callstack 0
   337   000011                     	ds	2
   338   000013                     _RB7_INTERRUPTHANDLERLOW:
   339                           	callstack 0
   340   000013                     	ds	2
   341   000015                     _RB7_INTERRUPTHANDLERHIGH:
   342                           	callstack 0
   343   000015                     	ds	2
   344   000017                     _RB6_INTERRUPTHANDLERLOW:
   345                           	callstack 0
   346   000017                     	ds	2
   347   000019                     _RB6_INTERRUPTHANDLERHIGH:
   348                           	callstack 0
   349   000019                     	ds	2
   350   00001B                     _RB5_INTERRUPTHANDLERLOW:
   351                           	callstack 0
   352   00001B                     	ds	2
   353   00001D                     _RB5_INTERRUPTHANDLERHIGH:
   354                           	callstack 0
   355   00001D                     	ds	2
   356   00001F                     _RB4_INTERRUPTHANDLERLOW:
   357                           	callstack 0
   358   00001F                     	ds	2
   359   000021                     _RB4_INTERRUPTHANDLERHIGH:
   360                           	callstack 0
   361   000021                     	ds	2
   362   000023                     _INT2_INTERRUPTHANDLER:
   363                           	callstack 0
   364   000023                     	ds	2
   365   000025                     _INT1_INTERRUPTHANDLER:
   366                           	callstack 0
   367   000025                     	ds	2
   368   000027                     _INT0_INTERRUPTHANDLER:
   369                           	callstack 0
   370   000027                     	ds	2
   371   000029                     _I2C_Report_Receive_Overflow_InterruptHandle:
   372                           	callstack 0
   373   000029                     	ds	2
   374   00002B                     _I2C_DefaultInterruptHandle:
   375                           	callstack 0
   376   00002B                     	ds	2
   377   00002D                     _I2C_Report_Write_Collision_InterruptHandler:
   378                           	callstack 0
   379   00002D                     	ds	2
   380   00002F                     _EUSART_OverrunErrorHandler:
   381                           	callstack 0
   382   00002F                     	ds	2
   383   000031                     _EUSART_FramingErrorHandler:
   384                           	callstack 0
   385   000031                     	ds	2
   386   000033                     _EUSART_RxInterruptHandler:
   387                           	callstack 0
   388   000033                     	ds	2
   389   000035                     _EUSART_TxInterruptHandler:
   390                           	callstack 0
   391   000035                     	ds	2
   392   000037                     _Interrupt_Handler_CCP2:
   393                           	callstack 0
   394   000037                     	ds	2
   395   000039                     _Interrupt_Handler_CCP1:
   396                           	callstack 0
   397   000039                     	ds	2
   398   00003B                     _chara:
   399                           	callstack 0
   400   00003B                     	ds	1
   401   00003C                     _preval@hal_timer2$F3712:
   402                           	callstack 0
   403   00003C                     	ds	1
   404   00003D                     relay_turn_off@F3065:
   405                           	callstack 0
   406   00003D                     	ds	1
   407   00003E                     relay_turn_on@F3060:
   408                           	callstack 0
   409   00003E                     	ds	1
   410   00003F                     relay_initialization@F3055:
   411                           	callstack 0
   412   00003F                     	ds	1
   413   000040                     led_turn_toggle@F3077:
   414                           	callstack 0
   415   000040                     	ds	1
   416   000041                     led_turn_off@F3072:
   417                           	callstack 0
   418   000041                     	ds	1
   419   000042                     led_turn_on@F3067:
   420                           	callstack 0
   421   000042                     	ds	1
   422   000043                     led_initialize@F3062:
   423                           	callstack 0
   424   000043                     	ds	1
   425   000044                     _i2c:
   426                           	callstack 0
   427   000044                     	ds	11
   428   00004F                     _ack:
   429                           	callstack 0
   430   00004F                     	ds	1
   431                           
   432                           	psect	dataCOMRAM
   433   000066                     __pdataCOMRAM:
   434                           	callstack 0
   435   000066                     _tris_registers:
   436                           	callstack 0
   437   000066                     	ds	10
   438   000070                     _ch:
   439                           	callstack 0
   440   000070                     	ds	1
   441   000071                     _RB7_F:
   442                           	callstack 0
   443   000071                     	ds	1
   444   000072                     _RB6_F:
   445                           	callstack 0
   446   000072                     	ds	1
   447   000073                     _RB5_F:
   448                           	callstack 0
   449   000073                     	ds	1
   450   000074                     _RB4_F:
   451                           	callstack 0
   452   000074                     	ds	1
   453   000075                     _led2:
   454                           	callstack 0
   455   000075                     	ds	1
   456   000076                     _led1:
   457                           	callstack 0
   458   000076                     	ds	1
   459                           
   460                           	psect	dataBANK0
   461   000080                     __pdataBANK0:
   462                           	callstack 0
   463   000080                     _keypad_values:
   464                           	callstack 0
   465   000080                     	ds	16
   466   000090                     _port_registers:
   467                           	callstack 0
   468   000090                     	ds	10
   469   00009A                     _lat_registers:
   470                           	callstack 0
   471   00009A                     	ds	10
   472                           
   473                           	psect	cstackCOMRAM
   474   000050                     __pcstackCOMRAM:
   475                           	callstack 0
   476   000050                     RB4_ISR@n:
   477                           	callstack 0
   478   000050                     RB5_ISR@n:
   479                           	callstack 0
   480   000050                     RB6_ISR@n:
   481                           	callstack 0
   482   000050                     RB7_ISR@n:
   483                           	callstack 0
   484                           
   485                           ; 1 bytes @ 0x0
   486   000050                     	ds	1
   487   000051                     ??_InterruptMangaer:
   488                           
   489                           ; 1 bytes @ 0x1
   490   000051                     	ds	2
   491   000053                     ?___aldiv:
   492                           	callstack 0
   493   000053                     MSSP_I2C_SEND_START@i2c:
   494                           	callstack 0
   495   000053                     MSSP_I2C_SEND_STOP@i2c:
   496                           	callstack 0
   497   000053                     MSSP_I2C_MASTER_WRITE_BLOCKING@i2c:
   498                           	callstack 0
   499   000053                     MSSP_I2C_Interrupt_Configurations@i2c:
   500                           	callstack 0
   501   000053                     ___aldiv@dividend:
   502                           	callstack 0
   503                           
   504                           ; 4 bytes @ 0x3
   505   000053                     	ds	1
   506   000054                     MSSP_I2C_MASTER_WRITE_BLOCKING@data:
   507                           	callstack 0
   508                           
   509                           ; 1 bytes @ 0x4
   510   000054                     	ds	1
   511   000055                     MSSP_I2C_MASTER_WRITE_BLOCKING@ack:
   512                           	callstack 0
   513                           
   514                           ; 1 bytes @ 0x5
   515   000055                     	ds	1
   516   000056                     send_i2c@i2c:
   517                           	callstack 0
   518                           
   519                           ; 1 bytes @ 0x6
   520   000056                     	ds	1
   521   000057                     send_i2c@add:
   522                           	callstack 0
   523   000057                     ___aldiv@divisor:
   524                           	callstack 0
   525                           
   526                           ; 4 bytes @ 0x7
   527   000057                     	ds	1
   528   000058                     send_i2c@data:
   529                           	callstack 0
   530                           
   531                           ; 1 bytes @ 0x8
   532   000058                     	ds	1
   533   000059                     ??_send_i2c:
   534                           
   535                           ; 1 bytes @ 0x9
   536   000059                     	ds	2
   537   00005B                     ___aldiv@counter:
   538                           	callstack 0
   539                           
   540                           ; 1 bytes @ 0xB
   541   00005B                     	ds	1
   542   00005C                     ___aldiv@sign:
   543                           	callstack 0
   544                           
   545                           ; 1 bytes @ 0xC
   546   00005C                     	ds	1
   547   00005D                     ___aldiv@quotient:
   548                           	callstack 0
   549                           
   550                           ; 4 bytes @ 0xD
   551   00005D                     	ds	4
   552   000061                     MSSP_I2C_INIT@i2c:
   553                           	callstack 0
   554                           
   555                           ; 1 bytes @ 0x11
   556   000061                     	ds	1
   557   000062                     ??_MSSP_I2C_INIT:
   558                           
   559                           ; 1 bytes @ 0x12
   560   000062                     	ds	2
   561   000064                     ??_main:
   562                           
   563                           ; 1 bytes @ 0x14
   564   000064                     	ds	2
   565                           
   566 ;;
   567 ;;Main: autosize = 0, tempsize = 2, incstack = 0, save=0
   568 ;;
   569 ;; *************** function _main *****************
   570 ;; Defined at:
   571 ;;		line 36 in file "application.c"
   572 ;; Parameters:    Size  Location     Type
   573 ;;		None
   574 ;; Auto vars:     Size  Location     Type
   575 ;;		None
   576 ;; Return value:  Size  Location     Type
   577 ;;                  2  1587[None  ] int 
   578 ;; Registers used:
   579 ;;		wreg, fsr2l, fsr2h, status,2, status,0, cstack
   580 ;; Tracked objects:
   581 ;;		On entry : 0/0
   582 ;;		On exit  : 0/0
   583 ;;		Unchanged: 0/0
   584 ;; Data sizes:     COMRAM   BANK0   BANK1   BANK2   BANK3   BANK4   BANK5   BANK6   BANK7   BANK8   BANK9  BANK10  BANK1
      +1  BANK12  BANK13  BANK14  BANK15
   585 ;;      Params:         0       0       0       0       0       0       0       0       0       0       0       0       
      +0       0       0       0       0
   586 ;;      Locals:         0       0       0       0       0       0       0       0       0       0       0       0       
      +0       0       0       0       0
   587 ;;      Temps:          2       0       0       0       0       0       0       0       0       0       0       0       
      +0       0       0       0       0
   588 ;;      Totals:         2       0       0       0       0       0       0       0       0       0       0       0       
      +0       0       0       0       0
   589 ;;Total ram usage:        2 bytes
   590 ;; Hardware stack levels required when called: 5
   591 ;; This function calls:
   592 ;;		_MSSP_I2C_INIT
   593 ;;		_application_initialize
   594 ;;		_send_i2c
   595 ;; This function is called by:
   596 ;;		Startup code after reset
   597 ;; This function uses a non-reentrant model
   598 ;;
   599                           
   600                           	psect	text0
   601   001658                     __ptext0:
   602                           	callstack 0
   603   001658                     _main:
   604                           	callstack 26
   605   001658                     
   606                           ;application.c: 38:     i2c.i2c_clock = 100000;
   607   001658  0E86               	movlw	134
   608   00165A  6E4E               	movwf	(_i2c+10)^0,c
   609   00165C  0EA0               	movlw	160
   610   00165E  6E4D               	movwf	(_i2c+9)^0,c
   611   001660                     
   612                           ;application.c: 39:     i2c.cfg.mode = 0x00;
   613   001660  9046               	bcf	(_i2c+2)^0,0,c
   614                           
   615                           ;application.c: 40:     i2c.cfg.i2c_mode_cfg = 0x08;
   616   001662  0E08               	movlw	8
   617   001664  6E44               	movwf	_i2c^0,c
   618                           
   619                           ;application.c: 41:     i2c.cfg.slave_address = 0x60;
   620   001666  0E60               	movlw	96
   621   001668  6E45               	movwf	(_i2c+1)^0,c
   622   00166A                     
   623                           ;application.c: 42:     i2c.cfg.slew_rate = 0x00;
   624   00166A  9246               	bcf	(_i2c+2)^0,1,c
   625   00166C                     
   626                           ;application.c: 43:     i2c.cfg.smbus = 0x00;
   627   00166C  9446               	bcf	(_i2c+2)^0,2,c
   628   00166E                     
   629                           ;application.c: 44:    i2c.I2C_DefaultInterruptHandler = isr;
   630   00166E  0ED0               	movlw	low _isr
   631   001670  6E49               	movwf	(_i2c+5)^0,c
   632   001672  0E19               	movlw	high _isr
   633   001674  6E4A               	movwf	(_i2c+6)^0,c
   634   001676                     
   635                           ;application.c: 46:     application_initialize();
   636   001676  ECE0  F00C         	call	_application_initialize	;wreg free
   637   00167A                     
   638                           ;application.c: 47:     MSSP_I2C_INIT(&i2c);
   639   00167A  0E44               	movlw	low _i2c
   640   00167C  6E61               	movwf	MSSP_I2C_INIT@i2c^0,c
   641   00167E  ECDF  F009         	call	_MSSP_I2C_INIT	;wreg free
   642   001682                     l5717:
   643                           
   644                           ;application.c: 51:       send_i2c(&i2c,0x60,'A');
   645   001682  0E44               	movlw	low _i2c
   646   001684  6E56               	movwf	send_i2c@i2c^0,c
   647   001686  0E60               	movlw	96
   648   001688  6E57               	movwf	send_i2c@add^0,c
   649   00168A  0E41               	movlw	65
   650   00168C  6E58               	movwf	send_i2c@data^0,c
   651   00168E  ECC0  F00B         	call	_send_i2c	;wreg free
   652   001692                     
   653                           ;application.c: 52:       _delay((unsigned long)((400)*(4000000/4000.0)));
   654   001692  0E03               	movlw	3
   655   001694  6E65               	movwf	(??_main+1)^0,c
   656   001696  0E08               	movlw	8
   657   001698  6E64               	movwf	??_main^0,c
   658   00169A  0E77               	movlw	119
   659   00169C                     u4197:
   660   00169C  2EE8               	decfsz	wreg,f,c
   661   00169E  D7FE               	bra	u4197
   662   0016A0  2E64               	decfsz	??_main^0,f,c
   663   0016A2  D7FC               	bra	u4197
   664   0016A4  2E65               	decfsz	(??_main+1)^0,f,c
   665   0016A6  D7FA               	bra	u4197
   666   0016A8  0000               	nop	
   667   0016AA                     
   668                           ;application.c: 53:       send_i2c(&i2c,0x62,'B');
   669   0016AA  0E44               	movlw	low _i2c
   670   0016AC  6E56               	movwf	send_i2c@i2c^0,c
   671   0016AE  0E62               	movlw	98
   672   0016B0  6E57               	movwf	send_i2c@add^0,c
   673   0016B2  0E42               	movlw	66
   674   0016B4  6E58               	movwf	send_i2c@data^0,c
   675   0016B6  ECC0  F00B         	call	_send_i2c	;wreg free
   676   0016BA                     
   677                           ;application.c: 54:       _delay((unsigned long)((400)*(4000000/4000.0)));
   678   0016BA  0E03               	movlw	3
   679   0016BC  6E65               	movwf	(??_main+1)^0,c
   680   0016BE  0E08               	movlw	8
   681   0016C0  6E64               	movwf	??_main^0,c
   682   0016C2  0E77               	movlw	119
   683   0016C4                     u4207:
   684   0016C4  2EE8               	decfsz	wreg,f,c
   685   0016C6  D7FE               	bra	u4207
   686   0016C8  2E64               	decfsz	??_main^0,f,c
   687   0016CA  D7FC               	bra	u4207
   688   0016CC  2E65               	decfsz	(??_main+1)^0,f,c
   689   0016CE  D7FA               	bra	u4207
   690   0016D0  0000               	nop	
   691   0016D2                     
   692                           ;application.c: 55:       send_i2c(&i2c,0x60,'C');
   693   0016D2  0E44               	movlw	low _i2c
   694   0016D4  6E56               	movwf	send_i2c@i2c^0,c
   695   0016D6  0E60               	movlw	96
   696   0016D8  6E57               	movwf	send_i2c@add^0,c
   697   0016DA  0E43               	movlw	67
   698   0016DC  6E58               	movwf	send_i2c@data^0,c
   699   0016DE  ECC0  F00B         	call	_send_i2c	;wreg free
   700   0016E2                     
   701                           ;application.c: 56:       _delay((unsigned long)((400)*(4000000/4000.0)));
   702   0016E2  0E03               	movlw	3
   703   0016E4  6E65               	movwf	(??_main+1)^0,c
   704   0016E6  0E08               	movlw	8
   705   0016E8  6E64               	movwf	??_main^0,c
   706   0016EA  0E77               	movlw	119
   707   0016EC                     u4217:
   708   0016EC  2EE8               	decfsz	wreg,f,c
   709   0016EE  D7FE               	bra	u4217
   710   0016F0  2E64               	decfsz	??_main^0,f,c
   711   0016F2  D7FC               	bra	u4217
   712   0016F4  2E65               	decfsz	(??_main+1)^0,f,c
   713   0016F6  D7FA               	bra	u4217
   714   0016F8  0000               	nop	
   715   0016FA                     
   716                           ;application.c: 57:       send_i2c(&i2c,0x62,'D');
   717   0016FA  0E44               	movlw	low _i2c
   718   0016FC  6E56               	movwf	send_i2c@i2c^0,c
   719   0016FE  0E62               	movlw	98
   720   001700  6E57               	movwf	send_i2c@add^0,c
   721   001702  0E44               	movlw	68
   722   001704  6E58               	movwf	send_i2c@data^0,c
   723   001706  ECC0  F00B         	call	_send_i2c	;wreg free
   724   00170A                     
   725                           ;application.c: 58:       _delay((unsigned long)((400)*(4000000/4000.0)));
   726   00170A  0E03               	movlw	3
   727   00170C  6E65               	movwf	(??_main+1)^0,c
   728   00170E  0E08               	movlw	8
   729   001710  6E64               	movwf	??_main^0,c
   730   001712  0E77               	movlw	119
   731   001714                     u4227:
   732   001714  2EE8               	decfsz	wreg,f,c
   733   001716  D7FE               	bra	u4227
   734   001718  2E64               	decfsz	??_main^0,f,c
   735   00171A  D7FC               	bra	u4227
   736   00171C  2E65               	decfsz	(??_main+1)^0,f,c
   737   00171E  D7FA               	bra	u4227
   738   001720  0000               	nop	
   739   001722  EF41  F00B         	goto	l5717
   740   001726  EF07  F000         	goto	start
   741   00172A                     __end_of_main:
   742                           	callstack 0
   743                           
   744 ;; *************** function _send_i2c *****************
   745 ;; Defined at:
   746 ;;		line 27 in file "application.c"
   747 ;; Parameters:    Size  Location     Type
   748 ;;  i2c             1    6[COMRAM] PTR struct .
   749 ;;		 -> i2c(11), 
   750 ;;  add             1    7[COMRAM] unsigned char 
   751 ;;  data            1    8[COMRAM] unsigned char 
   752 ;; Auto vars:     Size  Location     Type
   753 ;;		None
   754 ;; Return value:  Size  Location     Type
   755 ;;                  1    wreg      void 
   756 ;; Registers used:
   757 ;;		wreg, fsr2l, fsr2h, status,2, status,0, cstack
   758 ;; Tracked objects:
   759 ;;		On entry : 0/0
   760 ;;		On exit  : 0/0
   761 ;;		Unchanged: 0/0
   762 ;; Data sizes:     COMRAM   BANK0   BANK1   BANK2   BANK3   BANK4   BANK5   BANK6   BANK7   BANK8   BANK9  BANK10  BANK1
      +1  BANK12  BANK13  BANK14  BANK15
   763 ;;      Params:         3       0       0       0       0       0       0       0       0       0       0       0       
      +0       0       0       0       0
   764 ;;      Locals:         0       0       0       0       0       0       0       0       0       0       0       0       
      +0       0       0       0       0
   765 ;;      Temps:          1       0       0       0       0       0       0       0       0       0       0       0       
      +0       0       0       0       0
   766 ;;      Totals:         4       0       0       0       0       0       0       0       0       0       0       0       
      +0       0       0       0       0
   767 ;;Total ram usage:        4 bytes
   768 ;; Hardware stack levels used: 1
   769 ;; Hardware stack levels required when called: 4
   770 ;; This function calls:
   771 ;;		_MSSP_I2C_MASTER_WRITE_BLOCKING
   772 ;;		_MSSP_I2C_SEND_START
   773 ;;		_MSSP_I2C_SEND_STOP
   774 ;; This function is called by:
   775 ;;		_main
   776 ;; This function uses a non-reentrant model
   777 ;;
   778                           
   779                           	psect	text1
   780   001780                     __ptext1:
   781                           	callstack 0
   782   001780                     _send_i2c:
   783                           	callstack 26
   784   001780                     
   785                           ;application.c: 28:     MSSP_I2C_SEND_START(i2c);
   786   001780  C056  F053         	movff	send_i2c@i2c,MSSP_I2C_SEND_START@i2c
   787   001784  EC4C  F00C         	call	_MSSP_I2C_SEND_START	;wreg free
   788   001788                     
   789                           ;application.c: 29:     MSSP_I2C_MASTER_WRITE_BLOCKING(i2c,add,&ack);
   790   001788  C056  F053         	movff	send_i2c@i2c,MSSP_I2C_MASTER_WRITE_BLOCKING@i2c
   791   00178C  C057  F054         	movff	send_i2c@add,MSSP_I2C_MASTER_WRITE_BLOCKING@data
   792   001790  0E4F               	movlw	low _ack
   793   001792  6E55               	movwf	MSSP_I2C_MASTER_WRITE_BLOCKING@ack^0,c
   794   001794  ECE9  F00B         	call	_MSSP_I2C_MASTER_WRITE_BLOCKING	;wreg free
   795   001798                     
   796                           ;application.c: 30:     _delay((unsigned long)((50)*(4000000/4000.0)));
   797   001798  0E41               	movlw	65
   798   00179A  6E59               	movwf	??_send_i2c^0,c
   799   00179C  0EEE               	movlw	238
   800   00179E                     u4237:
   801   00179E  2EE8               	decfsz	wreg,f,c
   802   0017A0  D7FE               	bra	u4237
   803   0017A2  2E59               	decfsz	??_send_i2c^0,f,c
   804   0017A4  D7FC               	bra	u4237
   805   0017A6  D000               	nop2	
   806   0017A8                     
   807                           ;application.c: 31:     MSSP_I2C_MASTER_WRITE_BLOCKING(i2c,data,&ack);
   808   0017A8  C056  F053         	movff	send_i2c@i2c,MSSP_I2C_MASTER_WRITE_BLOCKING@i2c
   809   0017AC  C058  F054         	movff	send_i2c@data,MSSP_I2C_MASTER_WRITE_BLOCKING@data
   810   0017B0  0E4F               	movlw	low _ack
   811   0017B2  6E55               	movwf	MSSP_I2C_MASTER_WRITE_BLOCKING@ack^0,c
   812   0017B4  ECE9  F00B         	call	_MSSP_I2C_MASTER_WRITE_BLOCKING	;wreg free
   813   0017B8                     
   814                           ;application.c: 32:     _delay((unsigned long)((50)*(4000000/4000.0)));
   815   0017B8  0E41               	movlw	65
   816   0017BA  6E59               	movwf	??_send_i2c^0,c
   817   0017BC  0EEE               	movlw	238
   818   0017BE                     u4247:
   819   0017BE  2EE8               	decfsz	wreg,f,c
   820   0017C0  D7FE               	bra	u4247
   821   0017C2  2E59               	decfsz	??_send_i2c^0,f,c
   822   0017C4  D7FC               	bra	u4247
   823   0017C6  D000               	nop2	
   824                           
   825                           ;application.c: 33:     MSSP_I2C_SEND_STOP(i2c);
   826   0017C8  C056  F053         	movff	send_i2c@i2c,MSSP_I2C_SEND_STOP@i2c
   827   0017CC  EC31  F00C         	call	_MSSP_I2C_SEND_STOP	;wreg free
   828   0017D0  0012               	return		;funcret
   829   0017D2                     __end_of_send_i2c:
   830                           	callstack 0
   831                           
   832 ;; *************** function _MSSP_I2C_SEND_STOP *****************
   833 ;; Defined at:
   834 ;;		line 111 in file "MCAL_Layer/I2C/hal_i2c.c"
   835 ;; Parameters:    Size  Location     Type
   836 ;;  i2c             1    3[COMRAM] PTR const struct .
   837 ;;		 -> i2c(11), 
   838 ;; Auto vars:     Size  Location     Type
   839 ;;  ret             1    0        unsigned char 
   840 ;; Return value:  Size  Location     Type
   841 ;;                  1    wreg      unsigned char 
   842 ;; Registers used:
   843 ;;		wreg, status,2
   844 ;; Tracked objects:
   845 ;;		On entry : 0/0
   846 ;;		On exit  : 0/0
   847 ;;		Unchanged: 0/0
   848 ;; Data sizes:     COMRAM   BANK0   BANK1   BANK2   BANK3   BANK4   BANK5   BANK6   BANK7   BANK8   BANK9  BANK10  BANK1
      +1  BANK12  BANK13  BANK14  BANK15
   849 ;;      Params:         1       0       0       0       0       0       0       0       0       0       0       0       
      +0       0       0       0       0
   850 ;;      Locals:         0       0       0       0       0       0       0       0       0       0       0       0       
      +0       0       0       0       0
   851 ;;      Temps:          0       0       0       0       0       0       0       0       0       0       0       0       
      +0       0       0       0       0
   852 ;;      Totals:         1       0       0       0       0       0       0       0       0       0       0       0       
      +0       0       0       0       0
   853 ;;Total ram usage:        1 bytes
   854 ;; Hardware stack levels used: 1
   855 ;; Hardware stack levels required when called: 3
   856 ;; This function calls:
   857 ;;		Nothing
   858 ;; This function is called by:
   859 ;;		_send_i2c
   860 ;; This function uses a non-reentrant model
   861 ;;
   862                           
   863                           	psect	text2
   864   001862                     __ptext2:
   865                           	callstack 0
   866   001862                     _MSSP_I2C_SEND_STOP:
   867                           	callstack 26
   868   001862                     
   869                           ;MCAL_Layer/I2C/hal_i2c.c: 113:     if(i2c == ((void*)0)){
   870   001862  5053               	movf	MSSP_I2C_SEND_STOP@i2c^0,w,c
   871   001864  A4D8               	btfss	status,2,c
   872   001866  EF37  F00C         	goto	u3201
   873   00186A  EF39  F00C         	goto	u3200
   874   00186E                     u3201:
   875   00186E  EF3B  F00C         	goto	l949
   876   001872                     u3200:
   877   001872                     l4869:
   878                           
   879                           ;MCAL_Layer/I2C/hal_i2c.c: 115:     }
   880   001872  EF4B  F00C         	goto	l956
   881   001876                     l949:
   882                           
   883                           ;MCAL_Layer/I2C/hal_i2c.c: 117:         SSPCON2bits.PEN = 1;
   884   001876  84C5               	bsf	197,2,c	;volatile
   885   001878                     l951:
   886   001878  B4C5               	btfsc	197,2,c	;volatile
   887   00187A  EF41  F00C         	goto	u3211
   888   00187E  EF43  F00C         	goto	u3210
   889   001882                     u3211:
   890   001882  EF3C  F00C         	goto	l951
   891   001886                     u3210:
   892   001886                     
   893                           ;MCAL_Layer/I2C/hal_i2c.c: 119:         (PIR1bits.SSPIF = 0);
   894   001886  969E               	bcf	158,3,c	;volatile
   895                           
   896                           ;MCAL_Layer/I2C/hal_i2c.c: 120:         if(SSPSTATbits.P){
   897   001888  A8C7               	btfss	199,4,c	;volatile
   898   00188A  EF49  F00C         	goto	u3221
   899   00188E  EF4B  F00C         	goto	u3220
   900   001892                     u3221:
   901   001892  EF39  F00C         	goto	l4869
   902   001896                     u3220:
   903   001896                     l956:
   904   001896  0012               	return		;funcret
   905   001898                     __end_of_MSSP_I2C_SEND_STOP:
   906                           	callstack 0
   907                           
   908 ;; *************** function _MSSP_I2C_SEND_START *****************
   909 ;; Defined at:
   910 ;;		line 80 in file "MCAL_Layer/I2C/hal_i2c.c"
   911 ;; Parameters:    Size  Location     Type
   912 ;;  i2c             1    3[COMRAM] PTR const struct .
   913 ;;		 -> i2c(11), 
   914 ;; Auto vars:     Size  Location     Type
   915 ;;  ret             1    0        unsigned char 
   916 ;; Return value:  Size  Location     Type
   917 ;;                  1    wreg      unsigned char 
   918 ;; Registers used:
   919 ;;		wreg, status,2
   920 ;; Tracked objects:
   921 ;;		On entry : 0/0
   922 ;;		On exit  : 0/0
   923 ;;		Unchanged: 0/0
   924 ;; Data sizes:     COMRAM   BANK0   BANK1   BANK2   BANK3   BANK4   BANK5   BANK6   BANK7   BANK8   BANK9  BANK10  BANK1
      +1  BANK12  BANK13  BANK14  BANK15
   925 ;;      Params:         1       0       0       0       0       0       0       0       0       0       0       0       
      +0       0       0       0       0
   926 ;;      Locals:         0       0       0       0       0       0       0       0       0       0       0       0       
      +0       0       0       0       0
   927 ;;      Temps:          0       0       0       0       0       0       0       0       0       0       0       0       
      +0       0       0       0       0
   928 ;;      Totals:         1       0       0       0       0       0       0       0       0       0       0       0       
      +0       0       0       0       0
   929 ;;Total ram usage:        1 bytes
   930 ;; Hardware stack levels used: 1
   931 ;; Hardware stack levels required when called: 3
   932 ;; This function calls:
   933 ;;		Nothing
   934 ;; This function is called by:
   935 ;;		_send_i2c
   936 ;; This function uses a non-reentrant model
   937 ;;
   938                           
   939                           	psect	text3
   940   001898                     __ptext3:
   941                           	callstack 0
   942   001898                     _MSSP_I2C_SEND_START:
   943                           	callstack 26
   944   001898                     
   945                           ;MCAL_Layer/I2C/hal_i2c.c: 82:     if(i2c == ((void*)0)){
   946   001898  5053               	movf	MSSP_I2C_SEND_START@i2c^0,w,c
   947   00189A  A4D8               	btfss	status,2,c
   948   00189C  EF52  F00C         	goto	u3171
   949   0018A0  EF54  F00C         	goto	u3170
   950   0018A4                     u3171:
   951   0018A4  EF56  F00C         	goto	l931
   952   0018A8                     u3170:
   953   0018A8                     l4859:
   954                           
   955                           ;MCAL_Layer/I2C/hal_i2c.c: 84:     }
   956   0018A8  EF66  F00C         	goto	l938
   957   0018AC                     l931:
   958                           
   959                           ;MCAL_Layer/I2C/hal_i2c.c: 86:         SSPCON2bits.SEN = 1;
   960   0018AC  80C5               	bsf	197,0,c	;volatile
   961   0018AE                     l933:
   962   0018AE  B0C5               	btfsc	197,0,c	;volatile
   963   0018B0  EF5C  F00C         	goto	u3181
   964   0018B4  EF5E  F00C         	goto	u3180
   965   0018B8                     u3181:
   966   0018B8  EF57  F00C         	goto	l933
   967   0018BC                     u3180:
   968   0018BC                     
   969                           ;MCAL_Layer/I2C/hal_i2c.c: 88:         (PIR1bits.SSPIF = 0);
   970   0018BC  969E               	bcf	158,3,c	;volatile
   971                           
   972                           ;MCAL_Layer/I2C/hal_i2c.c: 89:         if(SSPSTATbits.S){
   973   0018BE  A6C7               	btfss	199,3,c	;volatile
   974   0018C0  EF64  F00C         	goto	u3191
   975   0018C4  EF66  F00C         	goto	u3190
   976   0018C8                     u3191:
   977   0018C8  EF54  F00C         	goto	l4859
   978   0018CC                     u3190:
   979   0018CC                     l938:
   980   0018CC  0012               	return		;funcret
   981   0018CE                     __end_of_MSSP_I2C_SEND_START:
   982                           	callstack 0
   983                           
   984 ;; *************** function _MSSP_I2C_MASTER_WRITE_BLOCKING *****************
   985 ;; Defined at:
   986 ;;		line 129 in file "MCAL_Layer/I2C/hal_i2c.c"
   987 ;; Parameters:    Size  Location     Type
   988 ;;  i2c             1    3[COMRAM] PTR const struct .
   989 ;;		 -> i2c(11), 
   990 ;;  data            1    4[COMRAM] unsigned char 
   991 ;;  ack             1    5[COMRAM] PTR unsigned char 
   992 ;;		 -> ack(1), 
   993 ;; Auto vars:     Size  Location     Type
   994 ;;  ret             1    0        unsigned char 
   995 ;; Return value:  Size  Location     Type
   996 ;;                  1    wreg      unsigned char 
   997 ;; Registers used:
   998 ;;		wreg, fsr2l, fsr2h, status,2
   999 ;; Tracked objects:
  1000 ;;		On entry : 0/0
  1001 ;;		On exit  : 0/0
  1002 ;;		Unchanged: 0/0
  1003 ;; Data sizes:     COMRAM   BANK0   BANK1   BANK2   BANK3   BANK4   BANK5   BANK6   BANK7   BANK8   BANK9  BANK10  BANK1
      +1  BANK12  BANK13  BANK14  BANK15
  1004 ;;      Params:         3       0       0       0       0       0       0       0       0       0       0       0       
      +0       0       0       0       0
  1005 ;;      Locals:         0       0       0       0       0       0       0       0       0       0       0       0       
      +0       0       0       0       0
  1006 ;;      Temps:          0       0       0       0       0       0       0       0       0       0       0       0       
      +0       0       0       0       0
  1007 ;;      Totals:         3       0       0       0       0       0       0       0       0       0       0       0       
      +0       0       0       0       0
  1008 ;;Total ram usage:        3 bytes
  1009 ;; Hardware stack levels used: 1
  1010 ;; Hardware stack levels required when called: 3
  1011 ;; This function calls:
  1012 ;;		Nothing
  1013 ;; This function is called by:
  1014 ;;		_send_i2c
  1015 ;; This function uses a non-reentrant model
  1016 ;;
  1017                           
  1018                           	psect	text4
  1019   0017D2                     __ptext4:
  1020                           	callstack 0
  1021   0017D2                     _MSSP_I2C_MASTER_WRITE_BLOCKING:
  1022                           	callstack 26
  1023   0017D2                     
  1024                           ;MCAL_Layer/I2C/hal_i2c.c: 131:     if(i2c == ((void*)0)){
  1025   0017D2  5053               	movf	MSSP_I2C_MASTER_WRITE_BLOCKING@i2c^0,w,c
  1026   0017D4  A4D8               	btfss	status,2,c
  1027   0017D6  EFEF  F00B         	goto	u3231
  1028   0017DA  EFF1  F00B         	goto	u3230
  1029   0017DE                     u3231:
  1030   0017DE  EFF3  F00B         	goto	l959
  1031   0017E2                     u3230:
  1032   0017E2                     
  1033                           ;MCAL_Layer/I2C/hal_i2c.c: 133:     }
  1034   0017E2  EF0F  F00C         	goto	l966
  1035   0017E6                     l959:
  1036                           
  1037                           ;MCAL_Layer/I2C/hal_i2c.c: 135:         SSPBUF = data;
  1038   0017E6  C054  FFC9         	movff	MSSP_I2C_MASTER_WRITE_BLOCKING@data,4041	;volatile
  1039   0017EA                     l961:
  1040   0017EA  B0C7               	btfsc	199,0,c	;volatile
  1041   0017EC  EFFA  F00B         	goto	u3241
  1042   0017F0  EFFC  F00B         	goto	u3240
  1043   0017F4                     u3241:
  1044   0017F4  EFF5  F00B         	goto	l961
  1045   0017F8                     u3240:
  1046   0017F8                     
  1047                           ;MCAL_Layer/I2C/hal_i2c.c: 137:         (PIR1bits.SSPIF = 0);
  1048   0017F8  969E               	bcf	158,3,c	;volatile
  1049                           
  1050                           ;MCAL_Layer/I2C/hal_i2c.c: 138:         if(SSPCON2bits.ACKSTAT == 0x00){
  1051   0017FA  BCC5               	btfsc	197,6,c	;volatile
  1052   0017FC  EF02  F00C         	goto	u3251
  1053   001800  EF04  F00C         	goto	u3250
  1054   001804                     u3251:
  1055   001804  EF0A  F00C         	goto	l4883
  1056   001808                     u3250:
  1057   001808                     
  1058                           ;MCAL_Layer/I2C/hal_i2c.c: 139:             *ack = 0x00;
  1059   001808  5055               	movf	MSSP_I2C_MASTER_WRITE_BLOCKING@ack^0,w,c
  1060   00180A  6ED9               	movwf	fsr2l,c
  1061   00180C  6ADA               	clrf	fsr2h,c
  1062   00180E  6ADF               	clrf	indf2,c
  1063                           
  1064                           ;MCAL_Layer/I2C/hal_i2c.c: 140:         }
  1065   001810  EF0F  F00C         	goto	l966
  1066   001814                     l4883:
  1067                           
  1068                           ;MCAL_Layer/I2C/hal_i2c.c: 142:             *ack = 0x01;
  1069   001814  5055               	movf	MSSP_I2C_MASTER_WRITE_BLOCKING@ack^0,w,c
  1070   001816  6ED9               	movwf	fsr2l,c
  1071   001818  6ADA               	clrf	fsr2h,c
  1072   00181A  0E01               	movlw	1
  1073   00181C  6EDF               	movwf	indf2,c
  1074   00181E                     l966:
  1075   00181E  0012               	return		;funcret
  1076   001820                     __end_of_MSSP_I2C_MASTER_WRITE_BLOCKING:
  1077                           	callstack 0
  1078                           
  1079 ;; *************** function _application_initialize *****************
  1080 ;; Defined at:
  1081 ;;		line 63 in file "application.c"
  1082 ;; Parameters:    Size  Location     Type
  1083 ;;		None
  1084 ;; Auto vars:     Size  Location     Type
  1085 ;;		None
  1086 ;; Return value:  Size  Location     Type
  1087 ;;                  1    wreg      void 
  1088 ;; Registers used:
  1089 ;;		wreg, status,2, cstack
  1090 ;; Tracked objects:
  1091 ;;		On entry : 0/0
  1092 ;;		On exit  : 0/0
  1093 ;;		Unchanged: 0/0
  1094 ;; Data sizes:     COMRAM   BANK0   BANK1   BANK2   BANK3   BANK4   BANK5   BANK6   BANK7   BANK8   BANK9  BANK10  BANK1
      +1  BANK12  BANK13  BANK14  BANK15
  1095 ;;      Params:         0       0       0       0       0       0       0       0       0       0       0       0       
      +0       0       0       0       0
  1096 ;;      Locals:         0       0       0       0       0       0       0       0       0       0       0       0       
      +0       0       0       0       0
  1097 ;;      Temps:          0       0       0       0       0       0       0       0       0       0       0       0       
      +0       0       0       0       0
  1098 ;;      Totals:         0       0       0       0       0       0       0       0       0       0       0       0       
      +0       0       0       0       0
  1099 ;;Total ram usage:        0 bytes
  1100 ;; Hardware stack levels used: 1
  1101 ;; Hardware stack levels required when called: 4
  1102 ;; This function calls:
  1103 ;;		_Ecu_initialize
  1104 ;; This function is called by:
  1105 ;;		_main
  1106 ;; This function uses a non-reentrant model
  1107 ;;
  1108                           
  1109                           	psect	text5
  1110   0019C0                     __ptext5:
  1111                           	callstack 0
  1112   0019C0                     _application_initialize:
  1113                           	callstack 26
  1114   0019C0                     
  1115                           ;application.c: 64:     ret = Ecu_initialize();
  1116   0019C0  ECF7  F00C         	call	_Ecu_initialize	;wreg free
  1117   0019C4  6E77               	movwf	_ret^0,c
  1118   0019C6  0012               	return		;funcret
  1119   0019C8                     __end_of_application_initialize:
  1120                           	callstack 0
  1121                           
  1122 ;; *************** function _Ecu_initialize *****************
  1123 ;; Defined at:
  1124 ;;		line 42 in file "ECU_Layer/ECU_LAYER.c"
  1125 ;; Parameters:    Size  Location     Type
  1126 ;;		None
  1127 ;; Auto vars:     Size  Location     Type
  1128 ;;		None
  1129 ;; Return value:  Size  Location     Type
  1130 ;;                  1    wreg      unsigned char 
  1131 ;; Registers used:
  1132 ;;		None
  1133 ;; Tracked objects:
  1134 ;;		On entry : 0/0
  1135 ;;		On exit  : 0/0
  1136 ;;		Unchanged: 0/0
  1137 ;; Data sizes:     COMRAM   BANK0   BANK1   BANK2   BANK3   BANK4   BANK5   BANK6   BANK7   BANK8   BANK9  BANK10  BANK1
      +1  BANK12  BANK13  BANK14  BANK15
  1138 ;;      Params:         0       0       0       0       0       0       0       0       0       0       0       0       
      +0       0       0       0       0
  1139 ;;      Locals:         0       0       0       0       0       0       0       0       0       0       0       0       
      +0       0       0       0       0
  1140 ;;      Temps:          0       0       0       0       0       0       0       0       0       0       0       0       
      +0       0       0       0       0
  1141 ;;      Totals:         0       0       0       0       0       0       0       0       0       0       0       0       
      +0       0       0       0       0
  1142 ;;Total ram usage:        0 bytes
  1143 ;; Hardware stack levels used: 1
  1144 ;; Hardware stack levels required when called: 3
  1145 ;; This function calls:
  1146 ;;		Nothing
  1147 ;; This function is called by:
  1148 ;;		_application_initialize
  1149 ;; This function uses a non-reentrant model
  1150 ;;
  1151                           
  1152                           	psect	text6
  1153   0019EE                     __ptext6:
  1154                           	callstack 0
  1155   0019EE                     _Ecu_initialize:
  1156                           	callstack 26
  1157   0019EE  0012               	return		;funcret
  1158   0019F0                     __end_of_Ecu_initialize:
  1159                           	callstack 0
  1160                           
  1161 ;; *************** function _MSSP_I2C_INIT *****************
  1162 ;; Defined at:
  1163 ;;		line 16 in file "MCAL_Layer/I2C/hal_i2c.c"
  1164 ;; Parameters:    Size  Location     Type
  1165 ;;  i2c             1   17[COMRAM] PTR const struct .
  1166 ;;		 -> i2c(11), 
  1167 ;; Auto vars:     Size  Location     Type
  1168 ;;  ret             1    0        unsigned char 
  1169 ;; Return value:  Size  Location     Type
  1170 ;;                  1    wreg      unsigned char 
  1171 ;; Registers used:
  1172 ;;		wreg, fsr2l, fsr2h, status,2, status,0, cstack
  1173 ;; Tracked objects:
  1174 ;;		On entry : 0/0
  1175 ;;		On exit  : 0/0
  1176 ;;		Unchanged: 0/0
  1177 ;; Data sizes:     COMRAM   BANK0   BANK1   BANK2   BANK3   BANK4   BANK5   BANK6   BANK7   BANK8   BANK9  BANK10  BANK1
      +1  BANK12  BANK13  BANK14  BANK15
  1178 ;;      Params:         1       0       0       0       0       0       0       0       0       0       0       0       
      +0       0       0       0       0
  1179 ;;      Locals:         0       0       0       0       0       0       0       0       0       0       0       0       
      +0       0       0       0       0
  1180 ;;      Temps:          2       0       0       0       0       0       0       0       0       0       0       0       
      +0       0       0       0       0
  1181 ;;      Totals:         3       0       0       0       0       0       0       0       0       0       0       0       
      +0       0       0       0       0
  1182 ;;Total ram usage:        3 bytes
  1183 ;; Hardware stack levels used: 1
  1184 ;; Hardware stack levels required when called: 4
  1185 ;; This function calls:
  1186 ;;		_MSSP_I2C_Interrupt_Configurations
  1187 ;;		___aldiv
  1188 ;; This function is called by:
  1189 ;;		_main
  1190 ;; This function uses a non-reentrant model
  1191 ;;
  1192                           
  1193                           	psect	text7
  1194   0013BE                     __ptext7:
  1195                           	callstack 0
  1196   0013BE                     _MSSP_I2C_INIT:
  1197                           	callstack 26
  1198   0013BE                     
  1199                           ;MCAL_Layer/I2C/hal_i2c.c: 18:     if(i2c == ((void*)0)){
  1200   0013BE  5061               	movf	MSSP_I2C_INIT@i2c^0,w,c
  1201   0013C0  A4D8               	btfss	status,2,c
  1202   0013C2  EFE5  F009         	goto	u3451
  1203   0013C6  EFE7  F009         	goto	u3450
  1204   0013CA                     u3451:
  1205   0013CA  EFE9  F009         	goto	l904
  1206   0013CE                     u3450:
  1207   0013CE                     
  1208                           ;MCAL_Layer/I2C/hal_i2c.c: 20:     }
  1209   0013CE  EFA5  F00A         	goto	l923
  1210   0013D2                     l904:
  1211                           
  1212                           ;MCAL_Layer/I2C/hal_i2c.c: 22:         (SSPCON1bits.SSPEN = 0);
  1213   0013D2  9AC6               	bcf	198,5,c	;volatile
  1214   0013D4                     
  1215                           ;MCAL_Layer/I2C/hal_i2c.c: 23:         if(i2c->cfg.mode == 0x00){
  1216   0013D4  5061               	movf	MSSP_I2C_INIT@i2c^0,w,c
  1217   0013D6  6ED9               	movwf	fsr2l,c
  1218   0013D8  6ADA               	clrf	fsr2h,c
  1219   0013DA  0E02               	movlw	2
  1220   0013DC  26D9               	addwf	fsr2l,f,c
  1221   0013DE  B0DF               	btfsc	indf2,0,c
  1222   0013E0  EFF4  F009         	goto	u3461
  1223   0013E4  EFF6  F009         	goto	u3460
  1224   0013E8                     u3461:
  1225   0013E8  EF2C  F00A         	goto	l5063
  1226   0013EC                     u3460:
  1227   0013EC                     
  1228                           ;MCAL_Layer/I2C/hal_i2c.c: 24:             (SSPCON1bits.SSPM = 0x08);
  1229   0013EC  50C6               	movf	198,w,c	;volatile
  1230   0013EE  0BF0               	andlw	-16
  1231   0013F0  0908               	iorlw	8
  1232   0013F2  6EC6               	movwf	198,c	;volatile
  1233   0013F4                     
  1234                           ;MCAL_Layer/I2C/hal_i2c.c: 25:             if(i2c->cfg.master_recieve_mode == 0x01){
  1235   0013F4  5061               	movf	MSSP_I2C_INIT@i2c^0,w,c
  1236   0013F6  6ED9               	movwf	fsr2l,c
  1237   0013F8  6ADA               	clrf	fsr2h,c
  1238   0013FA  0E02               	movlw	2
  1239   0013FC  26D9               	addwf	fsr2l,f,c
  1240   0013FE  A8DF               	btfss	indf2,4,c
  1241   001400  EF04  F00A         	goto	u3471
  1242   001404  EF06  F00A         	goto	u3470
  1243   001408                     u3471:
  1244   001408  EF08  F00A         	goto	l907
  1245   00140C                     u3470:
  1246   00140C  EF09  F00A         	goto	l5061
  1247   001410                     l907:
  1248                           
  1249                           ;MCAL_Layer/I2C/hal_i2c.c: 30:                 (SSPCON2bits.RCEN = 0);
  1250   001410  96C5               	bcf	197,3,c	;volatile
  1251   001412                     l5061:
  1252                           
  1253                           ;MCAL_Layer/I2C/hal_i2c.c: 32:             SSPADD = (uint8)((((i2c->i2c_clock) * 4) / 40
      +                          00000) - 1);
  1254   001412  5061               	movf	MSSP_I2C_INIT@i2c^0,w,c
  1255   001414  6ED9               	movwf	fsr2l,c
  1256   001416  6ADA               	clrf	fsr2h,c
  1257   001418  0E09               	movlw	9
  1258   00141A  26D9               	addwf	fsr2l,f,c
  1259   00141C  CFDE F062          	movff	postinc2,??_MSSP_I2C_INIT
  1260   001420  CFDD F063          	movff	postdec2,??_MSSP_I2C_INIT+1
  1261   001424  90D8               	bcf	status,0,c
  1262   001426  3662               	rlcf	??_MSSP_I2C_INIT^0,f,c
  1263   001428  3663               	rlcf	(??_MSSP_I2C_INIT+1)^0,f,c
  1264   00142A  90D8               	bcf	status,0,c
  1265   00142C  3662               	rlcf	??_MSSP_I2C_INIT^0,f,c
  1266   00142E  3663               	rlcf	(??_MSSP_I2C_INIT+1)^0,f,c
  1267   001430  C062  F053         	movff	??_MSSP_I2C_INIT,___aldiv@dividend
  1268   001434  C063  F054         	movff	??_MSSP_I2C_INIT+1,___aldiv@dividend+1
  1269   001438  6A55               	clrf	(___aldiv@dividend+2)^0,c
  1270   00143A  6A56               	clrf	(___aldiv@dividend+3)^0,c
  1271   00143C  0E00               	movlw	0
  1272   00143E  6E57               	movwf	___aldiv@divisor^0,c
  1273   001440  0E09               	movlw	9
  1274   001442  6E58               	movwf	(___aldiv@divisor+1)^0,c
  1275   001444  0E3D               	movlw	61
  1276   001446  6E59               	movwf	(___aldiv@divisor+2)^0,c
  1277   001448  0E00               	movlw	0
  1278   00144A  6E5A               	movwf	(___aldiv@divisor+3)^0,c
  1279   00144C  ECA6  F00A         	call	___aldiv	;wreg free
  1280   001450  0453               	decf	?___aldiv^0,w,c
  1281   001452  6EC8               	movwf	200,c	;volatile
  1282                           
  1283                           ;MCAL_Layer/I2C/hal_i2c.c: 33:         }
  1284   001454  EF68  F00A         	goto	l5077
  1285   001458                     l5063:
  1286   001458  5061               	movf	MSSP_I2C_INIT@i2c^0,w,c
  1287   00145A  6ED9               	movwf	fsr2l,c
  1288   00145C  6ADA               	clrf	fsr2h,c
  1289   00145E  0E02               	movlw	2
  1290   001460  26D9               	addwf	fsr2l,f,c
  1291   001462  A0DF               	btfss	indf2,0,c
  1292   001464  EF36  F00A         	goto	u3481
  1293   001468  EF38  F00A         	goto	u3480
  1294   00146C                     u3481:
  1295   00146C  EF68  F00A         	goto	l5077
  1296   001470                     u3480:
  1297   001470                     
  1298                           ;MCAL_Layer/I2C/hal_i2c.c: 35:             if(i2c->cfg.general_call == 0x01){
  1299   001470  5061               	movf	MSSP_I2C_INIT@i2c^0,w,c
  1300   001472  6ED9               	movwf	fsr2l,c
  1301   001474  6ADA               	clrf	fsr2h,c
  1302   001476  0E02               	movlw	2
  1303   001478  26D9               	addwf	fsr2l,f,c
  1304   00147A  A6DF               	btfss	indf2,3,c
  1305   00147C  EF42  F00A         	goto	u3491
  1306   001480  EF44  F00A         	goto	u3490
  1307   001484                     u3491:
  1308   001484  EF47  F00A         	goto	l5069
  1309   001488                     u3490:
  1310   001488                     
  1311                           ;MCAL_Layer/I2C/hal_i2c.c: 36:                 SSPCON2bits.GCEN = 1;
  1312   001488  8EC5               	bsf	197,7,c	;volatile
  1313                           
  1314                           ;MCAL_Layer/I2C/hal_i2c.c: 37:             }
  1315   00148A  EF54  F00A         	goto	l912
  1316   00148E                     l5069:
  1317   00148E  5061               	movf	MSSP_I2C_INIT@i2c^0,w,c
  1318   001490  6ED9               	movwf	fsr2l,c
  1319   001492  6ADA               	clrf	fsr2h,c
  1320   001494  0E02               	movlw	2
  1321   001496  26D9               	addwf	fsr2l,f,c
  1322   001498  B6DF               	btfsc	indf2,3,c
  1323   00149A  EF51  F00A         	goto	u3501
  1324   00149E  EF53  F00A         	goto	u3500
  1325   0014A2                     u3501:
  1326   0014A2  EF54  F00A         	goto	l912
  1327   0014A6                     u3500:
  1328   0014A6                     
  1329                           ;MCAL_Layer/I2C/hal_i2c.c: 39:                 SSPCON2bits.GCEN = 0;
  1330   0014A6  9EC5               	bcf	197,7,c	;volatile
  1331   0014A8                     l912:
  1332                           
  1333                           ;MCAL_Layer/I2C/hal_i2c.c: 42:             SSPCON1bits.WCOL = 0;
  1334   0014A8  9EC6               	bcf	198,7,c	;volatile
  1335                           
  1336                           ;MCAL_Layer/I2C/hal_i2c.c: 43:             SSPCON1bits.SSPOV = 0;
  1337   0014AA  9CC6               	bcf	198,6,c	;volatile
  1338   0014AC                     
  1339                           ;MCAL_Layer/I2C/hal_i2c.c: 44:             SSPADD = i2c->cfg.slave_address;
  1340   0014AC  5061               	movf	MSSP_I2C_INIT@i2c^0,w,c
  1341   0014AE  6ED9               	movwf	fsr2l,c
  1342   0014B0  6ADA               	clrf	fsr2h,c
  1343   0014B2  0E01               	movlw	1
  1344   0014B4  26D9               	addwf	fsr2l,f,c
  1345   0014B6  50DF               	movf	indf2,w,c
  1346   0014B8  6EC8               	movwf	200,c	;volatile
  1347   0014BA                     
  1348                           ;MCAL_Layer/I2C/hal_i2c.c: 45:             (SSPCON1bits.CKP = 1);
  1349   0014BA  88C6               	bsf	198,4,c	;volatile
  1350                           
  1351                           ;MCAL_Layer/I2C/hal_i2c.c: 46:             (SSPCON1bits.SSPM = i2c->cfg.i2c_mode_cfg);
  1352   0014BC  5061               	movf	MSSP_I2C_INIT@i2c^0,w,c
  1353   0014BE  6ED9               	movwf	fsr2l,c
  1354   0014C0  6ADA               	clrf	fsr2h,c
  1355   0014C2  50DF               	movf	indf2,w,c
  1356   0014C4  6E62               	movwf	??_MSSP_I2C_INIT^0,c
  1357   0014C6  50C6               	movf	198,w,c	;volatile
  1358   0014C8  1862               	xorwf	??_MSSP_I2C_INIT^0,w,c
  1359   0014CA  0BF0               	andlw	-16
  1360   0014CC  1862               	xorwf	??_MSSP_I2C_INIT^0,w,c
  1361   0014CE  6EC6               	movwf	198,c	;volatile
  1362   0014D0                     l5077:
  1363                           
  1364                           ;MCAL_Layer/I2C/hal_i2c.c: 49:         if(i2c->cfg.slew_rate == 0x01){
  1365   0014D0  5061               	movf	MSSP_I2C_INIT@i2c^0,w,c
  1366   0014D2  6ED9               	movwf	fsr2l,c
  1367   0014D4  6ADA               	clrf	fsr2h,c
  1368   0014D6  0E02               	movlw	2
  1369   0014D8  26D9               	addwf	fsr2l,f,c
  1370   0014DA  A2DF               	btfss	indf2,1,c
  1371   0014DC  EF72  F00A         	goto	u3511
  1372   0014E0  EF74  F00A         	goto	u3510
  1373   0014E4                     u3511:
  1374   0014E4  EF77  F00A         	goto	l5081
  1375   0014E8                     u3510:
  1376   0014E8                     
  1377                           ;MCAL_Layer/I2C/hal_i2c.c: 50:             (SSPSTATbits.SMP = 1);
  1378   0014E8  8EC7               	bsf	199,7,c	;volatile
  1379                           
  1380                           ;MCAL_Layer/I2C/hal_i2c.c: 51:         }
  1381   0014EA  EF84  F00A         	goto	l5085
  1382   0014EE                     l5081:
  1383   0014EE  5061               	movf	MSSP_I2C_INIT@i2c^0,w,c
  1384   0014F0  6ED9               	movwf	fsr2l,c
  1385   0014F2  6ADA               	clrf	fsr2h,c
  1386   0014F4  0E02               	movlw	2
  1387   0014F6  26D9               	addwf	fsr2l,f,c
  1388   0014F8  B2DF               	btfsc	indf2,1,c
  1389   0014FA  EF81  F00A         	goto	u3521
  1390   0014FE  EF83  F00A         	goto	u3520
  1391   001502                     u3521:
  1392   001502  EF84  F00A         	goto	l5085
  1393   001506                     u3520:
  1394   001506                     
  1395                           ;MCAL_Layer/I2C/hal_i2c.c: 53:             (SSPSTATbits.SMP = 1);
  1396   001506  8EC7               	bsf	199,7,c	;volatile
  1397   001508                     l5085:
  1398                           
  1399                           ;MCAL_Layer/I2C/hal_i2c.c: 56:         if(i2c->cfg.smbus == 0x01){
  1400   001508  5061               	movf	MSSP_I2C_INIT@i2c^0,w,c
  1401   00150A  6ED9               	movwf	fsr2l,c
  1402   00150C  6ADA               	clrf	fsr2h,c
  1403   00150E  0E02               	movlw	2
  1404   001510  26D9               	addwf	fsr2l,f,c
  1405   001512  A4DF               	btfss	indf2,2,c
  1406   001514  EF8E  F00A         	goto	u3531
  1407   001518  EF90  F00A         	goto	u3530
  1408   00151C                     u3531:
  1409   00151C  EF91  F00A         	goto	l5089
  1410   001520                     u3530:
  1411   001520                     
  1412                           ;MCAL_Layer/I2C/hal_i2c.c: 57:             (SSPSTATbits.CKE = 1);
  1413   001520  8CC7               	bsf	199,6,c	;volatile
  1414   001522                     l5089:
  1415                           
  1416                           ;MCAL_Layer/I2C/hal_i2c.c: 59:         if(i2c->cfg.smbus == 0x00){
  1417   001522  5061               	movf	MSSP_I2C_INIT@i2c^0,w,c
  1418   001524  6ED9               	movwf	fsr2l,c
  1419   001526  6ADA               	clrf	fsr2h,c
  1420   001528  0E02               	movlw	2
  1421   00152A  26D9               	addwf	fsr2l,f,c
  1422   00152C  B4DF               	btfsc	indf2,2,c
  1423   00152E  EF9B  F00A         	goto	u3541
  1424   001532  EF9D  F00A         	goto	u3540
  1425   001536                     u3541:
  1426   001536  EF9E  F00A         	goto	l5093
  1427   00153A                     u3540:
  1428   00153A                     
  1429                           ;MCAL_Layer/I2C/hal_i2c.c: 60:             (SSPSTATbits.CKE = 1);
  1430   00153A  8CC7               	bsf	199,6,c	;volatile
  1431   00153C                     l5093:
  1432                           
  1433                           ;MCAL_Layer/I2C/hal_i2c.c: 63:         MSSP_I2C_Interrupt_Configurations(i2c);
  1434   00153C  C061  F053         	movff	MSSP_I2C_INIT@i2c,MSSP_I2C_Interrupt_Configurations@i2c
  1435   001540  EC10  F00C         	call	_MSSP_I2C_Interrupt_Configurations	;wreg free
  1436   001544                     
  1437                           ;MCAL_Layer/I2C/hal_i2c.c: 64:         TRISCbits.RC3 = 1;
  1438   001544  8694               	bsf	148,3,c	;volatile
  1439   001546                     
  1440                           ;MCAL_Layer/I2C/hal_i2c.c: 65:         TRISCbits.RC4 = 1;
  1441   001546  8894               	bsf	148,4,c	;volatile
  1442   001548                     
  1443                           ;MCAL_Layer/I2C/hal_i2c.c: 66:         (SSPCON1bits.SSPEN = 1);
  1444   001548  8AC6               	bsf	198,5,c	;volatile
  1445   00154A                     l923:
  1446   00154A  0012               	return		;funcret
  1447   00154C                     __end_of_MSSP_I2C_INIT:
  1448                           	callstack 0
  1449                           
  1450 ;; *************** function ___aldiv *****************
  1451 ;; Defined at:
  1452 ;;		line 7 in file "C:\Program Files\Microchip\xc8\v2.46\pic\sources\c99\common\aldiv.c"
  1453 ;; Parameters:    Size  Location     Type
  1454 ;;  dividend        4    3[COMRAM] long 
  1455 ;;  divisor         4    7[COMRAM] long 
  1456 ;; Auto vars:     Size  Location     Type
  1457 ;;  quotient        4   13[COMRAM] long 
  1458 ;;  sign            1   12[COMRAM] unsigned char 
  1459 ;;  counter         1   11[COMRAM] unsigned char 
  1460 ;; Return value:  Size  Location     Type
  1461 ;;                  4    3[COMRAM] long 
  1462 ;; Registers used:
  1463 ;;		wreg, status,2, status,0
  1464 ;; Tracked objects:
  1465 ;;		On entry : 0/0
  1466 ;;		On exit  : 0/0
  1467 ;;		Unchanged: 0/0
  1468 ;; Data sizes:     COMRAM   BANK0   BANK1   BANK2   BANK3   BANK4   BANK5   BANK6   BANK7   BANK8   BANK9  BANK10  BANK1
      +1  BANK12  BANK13  BANK14  BANK15
  1469 ;;      Params:         8       0       0       0       0       0       0       0       0       0       0       0       
      +0       0       0       0       0
  1470 ;;      Locals:         6       0       0       0       0       0       0       0       0       0       0       0       
      +0       0       0       0       0
  1471 ;;      Temps:          0       0       0       0       0       0       0       0       0       0       0       0       
      +0       0       0       0       0
  1472 ;;      Totals:        14       0       0       0       0       0       0       0       0       0       0       0       
      +0       0       0       0       0
  1473 ;;Total ram usage:       14 bytes
  1474 ;; Hardware stack levels used: 1
  1475 ;; Hardware stack levels required when called: 3
  1476 ;; This function calls:
  1477 ;;		Nothing
  1478 ;; This function is called by:
  1479 ;;		_MSSP_I2C_INIT
  1480 ;; This function uses a non-reentrant model
  1481 ;;
  1482                           
  1483                           	psect	text8
  1484   00154C                     __ptext8:
  1485                           	callstack 0
  1486   00154C                     ___aldiv:
  1487                           	callstack 26
  1488   00154C  0E00               	movlw	0
  1489   00154E  6E5C               	movwf	___aldiv@sign^0,c
  1490   001550  BE5A               	btfsc	(___aldiv@divisor+3)^0,7,c
  1491   001552  EFAF  F00A         	goto	u3260
  1492   001556  EFAD  F00A         	goto	u3261
  1493   00155A                     u3261:
  1494   00155A  EFB9  F00A         	goto	l4895
  1495   00155E                     u3260:
  1496   00155E  1E5A               	comf	(___aldiv@divisor+3)^0,f,c
  1497   001560  1E59               	comf	(___aldiv@divisor+2)^0,f,c
  1498   001562  1E58               	comf	(___aldiv@divisor+1)^0,f,c
  1499   001564  6C57               	negf	___aldiv@divisor^0,c
  1500   001566  0E00               	movlw	0
  1501   001568  2258               	addwfc	(___aldiv@divisor+1)^0,f,c
  1502   00156A  2259               	addwfc	(___aldiv@divisor+2)^0,f,c
  1503   00156C  225A               	addwfc	(___aldiv@divisor+3)^0,f,c
  1504   00156E  0E01               	movlw	1
  1505   001570  6E5C               	movwf	___aldiv@sign^0,c
  1506   001572                     l4895:
  1507   001572  BE56               	btfsc	(___aldiv@dividend+3)^0,7,c
  1508   001574  EFC0  F00A         	goto	u3270
  1509   001578  EFBE  F00A         	goto	u3271
  1510   00157C                     u3271:
  1511   00157C  EFCA  F00A         	goto	l4901
  1512   001580                     u3270:
  1513   001580  1E56               	comf	(___aldiv@dividend+3)^0,f,c
  1514   001582  1E55               	comf	(___aldiv@dividend+2)^0,f,c
  1515   001584  1E54               	comf	(___aldiv@dividend+1)^0,f,c
  1516   001586  6C53               	negf	___aldiv@dividend^0,c
  1517   001588  0E00               	movlw	0
  1518   00158A  2254               	addwfc	(___aldiv@dividend+1)^0,f,c
  1519   00158C  2255               	addwfc	(___aldiv@dividend+2)^0,f,c
  1520   00158E  2256               	addwfc	(___aldiv@dividend+3)^0,f,c
  1521   001590  0E01               	movlw	1
  1522   001592  1A5C               	xorwf	___aldiv@sign^0,f,c
  1523   001594                     l4901:
  1524   001594  0E00               	movlw	0
  1525   001596  6E5D               	movwf	___aldiv@quotient^0,c
  1526   001598  0E00               	movlw	0
  1527   00159A  6E5E               	movwf	(___aldiv@quotient+1)^0,c
  1528   00159C  0E00               	movlw	0
  1529   00159E  6E5F               	movwf	(___aldiv@quotient+2)^0,c
  1530   0015A0  0E00               	movlw	0
  1531   0015A2  6E60               	movwf	(___aldiv@quotient+3)^0,c
  1532   0015A4  5057               	movf	___aldiv@divisor^0,w,c
  1533   0015A6  1058               	iorwf	(___aldiv@divisor+1)^0,w,c
  1534   0015A8  1059               	iorwf	(___aldiv@divisor+2)^0,w,c
  1535   0015AA  105A               	iorwf	(___aldiv@divisor+3)^0,w,c
  1536   0015AC  B4D8               	btfsc	status,2,c
  1537   0015AE  EFDB  F00A         	goto	u3281
  1538   0015B2  EFDD  F00A         	goto	u3280
  1539   0015B6                     u3281:
  1540   0015B6  EF13  F00B         	goto	l4923
  1541   0015BA                     u3280:
  1542   0015BA  0E01               	movlw	1
  1543   0015BC  6E5B               	movwf	___aldiv@counter^0,c
  1544   0015BE  EFE7  F00A         	goto	l4909
  1545   0015C2                     l4907:
  1546   0015C2  90D8               	bcf	status,0,c
  1547   0015C4  3657               	rlcf	___aldiv@divisor^0,f,c
  1548   0015C6  3658               	rlcf	(___aldiv@divisor+1)^0,f,c
  1549   0015C8  3659               	rlcf	(___aldiv@divisor+2)^0,f,c
  1550   0015CA  365A               	rlcf	(___aldiv@divisor+3)^0,f,c
  1551   0015CC  2A5B               	incf	___aldiv@counter^0,f,c
  1552   0015CE                     l4909:
  1553   0015CE  AE5A               	btfss	(___aldiv@divisor+3)^0,7,c
  1554   0015D0  EFEC  F00A         	goto	u3291
  1555   0015D4  EFEE  F00A         	goto	u3290
  1556   0015D8                     u3291:
  1557   0015D8  EFE1  F00A         	goto	l4907
  1558   0015DC                     u3290:
  1559   0015DC                     l4911:
  1560   0015DC  90D8               	bcf	status,0,c
  1561   0015DE  365D               	rlcf	___aldiv@quotient^0,f,c
  1562   0015E0  365E               	rlcf	(___aldiv@quotient+1)^0,f,c
  1563   0015E2  365F               	rlcf	(___aldiv@quotient+2)^0,f,c
  1564   0015E4  3660               	rlcf	(___aldiv@quotient+3)^0,f,c
  1565   0015E6  5057               	movf	___aldiv@divisor^0,w,c
  1566   0015E8  5C53               	subwf	___aldiv@dividend^0,w,c
  1567   0015EA  5058               	movf	(___aldiv@divisor+1)^0,w,c
  1568   0015EC  5854               	subwfb	(___aldiv@dividend+1)^0,w,c
  1569   0015EE  5059               	movf	(___aldiv@divisor+2)^0,w,c
  1570   0015F0  5855               	subwfb	(___aldiv@dividend+2)^0,w,c
  1571   0015F2  505A               	movf	(___aldiv@divisor+3)^0,w,c
  1572   0015F4  5856               	subwfb	(___aldiv@dividend+3)^0,w,c
  1573   0015F6  A0D8               	btfss	status,0,c
  1574   0015F8  EF00  F00B         	goto	u3301
  1575   0015FC  EF02  F00B         	goto	u3300
  1576   001600                     u3301:
  1577   001600  EF0B  F00B         	goto	l4919
  1578   001604                     u3300:
  1579   001604  5057               	movf	___aldiv@divisor^0,w,c
  1580   001606  5E53               	subwf	___aldiv@dividend^0,f,c
  1581   001608  5058               	movf	(___aldiv@divisor+1)^0,w,c
  1582   00160A  5A54               	subwfb	(___aldiv@dividend+1)^0,f,c
  1583   00160C  5059               	movf	(___aldiv@divisor+2)^0,w,c
  1584   00160E  5A55               	subwfb	(___aldiv@dividend+2)^0,f,c
  1585   001610  505A               	movf	(___aldiv@divisor+3)^0,w,c
  1586   001612  5A56               	subwfb	(___aldiv@dividend+3)^0,f,c
  1587   001614  805D               	bsf	___aldiv@quotient^0,0,c
  1588   001616                     l4919:
  1589   001616  90D8               	bcf	status,0,c
  1590   001618  325A               	rrcf	(___aldiv@divisor+3)^0,f,c
  1591   00161A  3259               	rrcf	(___aldiv@divisor+2)^0,f,c
  1592   00161C  3258               	rrcf	(___aldiv@divisor+1)^0,f,c
  1593   00161E  3257               	rrcf	___aldiv@divisor^0,f,c
  1594   001620  2E5B               	decfsz	___aldiv@counter^0,f,c
  1595   001622  EFEE  F00A         	goto	l4911
  1596   001626                     l4923:
  1597   001626  505C               	movf	___aldiv@sign^0,w,c
  1598   001628  B4D8               	btfsc	status,2,c
  1599   00162A  EF19  F00B         	goto	u3311
  1600   00162E  EF1B  F00B         	goto	u3310
  1601   001632                     u3311:
  1602   001632  EF23  F00B         	goto	l4927
  1603   001636                     u3310:
  1604   001636  1E60               	comf	(___aldiv@quotient+3)^0,f,c
  1605   001638  1E5F               	comf	(___aldiv@quotient+2)^0,f,c
  1606   00163A  1E5E               	comf	(___aldiv@quotient+1)^0,f,c
  1607   00163C  6C5D               	negf	___aldiv@quotient^0,c
  1608   00163E  0E00               	movlw	0
  1609   001640  225E               	addwfc	(___aldiv@quotient+1)^0,f,c
  1610   001642  225F               	addwfc	(___aldiv@quotient+2)^0,f,c
  1611   001644  2260               	addwfc	(___aldiv@quotient+3)^0,f,c
  1612   001646                     l4927:
  1613   001646  C05D  F053         	movff	___aldiv@quotient,?___aldiv
  1614   00164A  C05E  F054         	movff	___aldiv@quotient+1,?___aldiv+1
  1615   00164E  C05F  F055         	movff	___aldiv@quotient+2,?___aldiv+2
  1616   001652  C060  F056         	movff	___aldiv@quotient+3,?___aldiv+3
  1617   001656  0012               	return		;funcret
  1618   001658                     __end_of___aldiv:
  1619                           	callstack 0
  1620                           
  1621 ;; *************** function _MSSP_I2C_Interrupt_Configurations *****************
  1622 ;; Defined at:
  1623 ;;		line 193 in file "MCAL_Layer/I2C/hal_i2c.c"
  1624 ;; Parameters:    Size  Location     Type
  1625 ;;  i2c             1    3[COMRAM] PTR const struct .
  1626 ;;		 -> i2c(11), 
  1627 ;; Auto vars:     Size  Location     Type
  1628 ;;		None
  1629 ;; Return value:  Size  Location     Type
  1630 ;;                  1    wreg      void 
  1631 ;; Registers used:
  1632 ;;		wreg, fsr2l, fsr2h, status,2, status,0
  1633 ;; Tracked objects:
  1634 ;;		On entry : 0/0
  1635 ;;		On exit  : 0/0
  1636 ;;		Unchanged: 0/0
  1637 ;; Data sizes:     COMRAM   BANK0   BANK1   BANK2   BANK3   BANK4   BANK5   BANK6   BANK7   BANK8   BANK9  BANK10  BANK1
      +1  BANK12  BANK13  BANK14  BANK15
  1638 ;;      Params:         1       0       0       0       0       0       0       0       0       0       0       0       
      +0       0       0       0       0
  1639 ;;      Locals:         0       0       0       0       0       0       0       0       0       0       0       0       
      +0       0       0       0       0
  1640 ;;      Temps:          0       0       0       0       0       0       0       0       0       0       0       0       
      +0       0       0       0       0
  1641 ;;      Totals:         1       0       0       0       0       0       0       0       0       0       0       0       
      +0       0       0       0       0
  1642 ;;Total ram usage:        1 bytes
  1643 ;; Hardware stack levels used: 1
  1644 ;; Hardware stack levels required when called: 3
  1645 ;; This function calls:
  1646 ;;		Nothing
  1647 ;; This function is called by:
  1648 ;;		_MSSP_I2C_INIT
  1649 ;; This function uses a non-reentrant model
  1650 ;;
  1651                           
  1652                           	psect	text9
  1653   001820                     __ptext9:
  1654                           	callstack 0
  1655   001820                     _MSSP_I2C_Interrupt_Configurations:
  1656                           	callstack 26
  1657   001820                     
  1658                           ;MCAL_Layer/I2C/hal_i2c.c: 194:     I2C_Report_Write_Collision_InterruptHandler = i2c->I
      +                          2C_Report_Write_Collision;
  1659   001820  5053               	movf	MSSP_I2C_Interrupt_Configurations@i2c^0,w,c
  1660   001822  6ED9               	movwf	fsr2l,c
  1661   001824  6ADA               	clrf	fsr2h,c
  1662   001826  0E03               	movlw	3
  1663   001828  26D9               	addwf	fsr2l,f,c
  1664   00182A  CFDE F02D          	movff	postinc2,_I2C_Report_Write_Collision_InterruptHandler
  1665   00182E  CFDD F02E          	movff	postdec2,_I2C_Report_Write_Collision_InterruptHandler+1
  1666                           
  1667                           ;MCAL_Layer/I2C/hal_i2c.c: 195:     I2C_DefaultInterruptHandle = i2c->I2C_DefaultInterru
      +                          ptHandler;
  1668   001832  5053               	movf	MSSP_I2C_Interrupt_Configurations@i2c^0,w,c
  1669   001834  6ED9               	movwf	fsr2l,c
  1670   001836  6ADA               	clrf	fsr2h,c
  1671   001838  0E05               	movlw	5
  1672   00183A  26D9               	addwf	fsr2l,f,c
  1673   00183C  CFDE F02B          	movff	postinc2,_I2C_DefaultInterruptHandle
  1674   001840  CFDD F02C          	movff	postdec2,_I2C_DefaultInterruptHandle+1
  1675                           
  1676                           ;MCAL_Layer/I2C/hal_i2c.c: 196:     I2C_Report_Receive_Overflow_InterruptHandle = i2c->I
      +                          2C_Report_Receive_Overflow;
  1677   001844  5053               	movf	MSSP_I2C_Interrupt_Configurations@i2c^0,w,c
  1678   001846  6ED9               	movwf	fsr2l,c
  1679   001848  6ADA               	clrf	fsr2h,c
  1680   00184A  0E07               	movlw	7
  1681   00184C  26D9               	addwf	fsr2l,f,c
  1682   00184E  CFDE F029          	movff	postinc2,_I2C_Report_Receive_Overflow_InterruptHandle
  1683   001852  CFDD F02A          	movff	postdec2,_I2C_Report_Receive_Overflow_InterruptHandle+1
  1684   001856                     
  1685                           ;MCAL_Layer/I2C/hal_i2c.c: 220:     (INTCONbits.GIEH = 1);
  1686   001856  8EF2               	bsf	242,7,c	;volatile
  1687   001858                     
  1688                           ;MCAL_Layer/I2C/hal_i2c.c: 221:     (INTCONbits.PEIE = 1);
  1689   001858  8CF2               	bsf	242,6,c	;volatile
  1690   00185A                     
  1691                           ;MCAL_Layer/I2C/hal_i2c.c: 222:     (PIE1bits.SSPIE = 1);
  1692   00185A  869D               	bsf	157,3,c	;volatile
  1693   00185C                     
  1694                           ;MCAL_Layer/I2C/hal_i2c.c: 223:     (PIR1bits.SSPIF = 0);
  1695   00185C  969E               	bcf	158,3,c	;volatile
  1696   00185E                     
  1697                           ;MCAL_Layer/I2C/hal_i2c.c: 224:     (PIR2bits.BCLIF = 0);
  1698   00185E  96A1               	bcf	161,3,c	;volatile
  1699   001860  0012               	return		;funcret
  1700   001862                     __end_of_MSSP_I2C_Interrupt_Configurations:
  1701                           	callstack 0
  1702                           
  1703 ;; *************** function _InterruptMangaer *****************
  1704 ;; Defined at:
  1705 ;;		line 38 in file "MCAL_Layer/Interrupt/mcal_interrupt_manager.c"
  1706 ;; Parameters:    Size  Location     Type
  1707 ;;		None
  1708 ;; Auto vars:     Size  Location     Type
  1709 ;;		None
  1710 ;; Return value:  Size  Location     Type
  1711 ;;                  1    wreg      void 
  1712 ;; Registers used:
  1713 ;;		wreg, status,2, status,0, pcl, pclath, pclatu, tosl, cstack
  1714 ;; Tracked objects:
  1715 ;;		On entry : 0/0
  1716 ;;		On exit  : 0/0
  1717 ;;		Unchanged: 0/0
  1718 ;; Data sizes:     COMRAM   BANK0   BANK1   BANK2   BANK3   BANK4   BANK5   BANK6   BANK7   BANK8   BANK9  BANK10  BANK1
      +1  BANK12  BANK13  BANK14  BANK15
  1719 ;;      Params:         0       0       0       0       0       0       0       0       0       0       0       0       
      +0       0       0       0       0
  1720 ;;      Locals:         0       0       0       0       0       0       0       0       0       0       0       0       
      +0       0       0       0       0
  1721 ;;      Temps:          2       0       0       0       0       0       0       0       0       0       0       0       
      +0       0       0       0       0
  1722 ;;      Totals:         2       0       0       0       0       0       0       0       0       0       0       0       
      +0       0       0       0       0
  1723 ;;Total ram usage:        2 bytes
  1724 ;; Hardware stack levels used: 1
  1725 ;; Hardware stack levels required when called: 2
  1726 ;; This function calls:
  1727 ;;		_CCP1_ISR
  1728 ;;		_CCP2_ISR
  1729 ;;		_EUSART_RX_ISR
  1730 ;;		_EUSART_TX_ISR
  1731 ;;		_INT0_ISR
  1732 ;;		_INT1_ISR
  1733 ;;		_INT2_ISR
  1734 ;;		_MSSP_I2C_ISR
  1735 ;;		_RB4_ISR
  1736 ;;		_RB5_ISR
  1737 ;;		_RB6_ISR
  1738 ;;		_RB7_ISR
  1739 ;;		_TMR0_ISR
  1740 ;;		_TMR1_ISR
  1741 ;;		_TMR2_ISR
  1742 ;;		_TMR3_ISR
  1743 ;; This function is called by:
  1744 ;;		Interrupt level 2
  1745 ;; This function uses a non-reentrant model
  1746 ;;
  1747                           
  1748                           	psect	intcode
  1749   000008                     __pintcode:
  1750                           	callstack 0
  1751   000008                     _InterruptMangaer:
  1752                           	callstack 26
  1753                           
  1754                           ;incstack = 0
  1755   000008  8278               	bsf	int$flags,1,c	;set compiler interrupt flag (level 2)
  1756   00000A  ED04  F008         	call	int_func,f	;refresh shadow registers
  1757                           
  1758                           	psect	intcode_body
  1759   001008                     __pintcode_body:
  1760                           	callstack 26
  1761   001008                     int_func:
  1762                           	callstack 26
  1763   001008  0006               	pop		; remove dummy address from shadow register refresh
  1764   00100A  CFFA F051          	movff	pclath,??_InterruptMangaer
  1765   00100E  CFFB F052          	movff	pclatu,??_InterruptMangaer+1
  1766   001012                     
  1767                           ;MCAL_Layer/Interrupt/mcal_interrupt_manager.c: 39:     if((INTCONbits.INT0IE == 1) && (
      +                          INTCONbits.INT0IF == 1)){
  1768   001012  A8F2               	btfss	242,4,c	;volatile
  1769   001014  EF0E  F008         	goto	i2u219_41
  1770   001018  EF10  F008         	goto	i2u219_40
  1771   00101C                     i2u219_41:
  1772   00101C  EF19  F008         	goto	i2l1268
  1773   001020                     i2u219_40:
  1774   001020  A2F2               	btfss	242,1,c	;volatile
  1775   001022  EF15  F008         	goto	i2u220_41
  1776   001026  EF17  F008         	goto	i2u220_40
  1777   00102A                     i2u220_41:
  1778   00102A  EF19  F008         	goto	i2l1268
  1779   00102E                     i2u220_40:
  1780   00102E                     
  1781                           ;MCAL_Layer/Interrupt/mcal_interrupt_manager.c: 40:         INT0_ISR();
  1782   00102E  ECEF  F00C         	call	_INT0_ISR	;wreg free
  1783   001032                     i2l1268:
  1784                           
  1785                           ;MCAL_Layer/Interrupt/mcal_interrupt_manager.c: 45:     if((1 == INTCON3bits.INT1E) && (
      +                          1 == INTCON3bits.INT1F)){
  1786   001032  A6F0               	btfss	240,3,c	;volatile
  1787   001034  EF1E  F008         	goto	i2u221_41
  1788   001038  EF20  F008         	goto	i2u221_40
  1789   00103C                     i2u221_41:
  1790   00103C  EF29  F008         	goto	i2l1270
  1791   001040                     i2u221_40:
  1792   001040  A0F0               	btfss	240,0,c	;volatile
  1793   001042  EF25  F008         	goto	i2u222_41
  1794   001046  EF27  F008         	goto	i2u222_40
  1795   00104A                     i2u222_41:
  1796   00104A  EF29  F008         	goto	i2l1270
  1797   00104E                     i2u222_40:
  1798   00104E                     
  1799                           ;MCAL_Layer/Interrupt/mcal_interrupt_manager.c: 46:         INT1_ISR();
  1800   00104E  ECED  F00C         	call	_INT1_ISR	;wreg free
  1801   001052                     i2l1270:
  1802                           
  1803                           ;MCAL_Layer/Interrupt/mcal_interrupt_manager.c: 49:     if((1 == INTCON3bits.INT2IE) && 
      +                          (1 == INTCON3bits.INT2IF)){
  1804   001052  A8F0               	btfss	240,4,c	;volatile
  1805   001054  EF2E  F008         	goto	i2u223_41
  1806   001058  EF30  F008         	goto	i2u223_40
  1807   00105C                     i2u223_41:
  1808   00105C  EF39  F008         	goto	i2l1272
  1809   001060                     i2u223_40:
  1810   001060  A2F0               	btfss	240,1,c	;volatile
  1811   001062  EF35  F008         	goto	i2u224_41
  1812   001066  EF37  F008         	goto	i2u224_40
  1813   00106A                     i2u224_41:
  1814   00106A  EF39  F008         	goto	i2l1272
  1815   00106E                     i2u224_40:
  1816   00106E                     
  1817                           ;MCAL_Layer/Interrupt/mcal_interrupt_manager.c: 50:         INT2_ISR();
  1818   00106E  ECEB  F00C         	call	_INT2_ISR	;wreg free
  1819   001072                     i2l1272:
  1820                           
  1821                           ;MCAL_Layer/Interrupt/mcal_interrupt_manager.c: 53:     if((INTCONbits.RBIE == 1) && (IN
      +                          TCONbits.RBIF == 1) && (PORTBbits.RB4 == GPIO_HIGH) && (RB4_F == 1)){
  1822   001072  A6F2               	btfss	242,3,c	;volatile
  1823   001074  EF3E  F008         	goto	i2u225_41
  1824   001078  EF40  F008         	goto	i2u225_40
  1825   00107C                     i2u225_41:
  1826   00107C  EF5B  F008         	goto	i2l1274
  1827   001080                     i2u225_40:
  1828   001080  A0F2               	btfss	242,0,c	;volatile
  1829   001082  EF45  F008         	goto	i2u226_41
  1830   001086  EF47  F008         	goto	i2u226_40
  1831   00108A                     i2u226_41:
  1832   00108A  EF5B  F008         	goto	i2l1274
  1833   00108E                     i2u226_40:
  1834   00108E  A881               	btfss	129,4,c	;volatile
  1835   001090  EF4C  F008         	goto	i2u227_41
  1836   001094  EF4E  F008         	goto	i2u227_40
  1837   001098                     i2u227_41:
  1838   001098  EF5B  F008         	goto	i2l1274
  1839   00109C                     i2u227_40:
  1840   00109C  0474               	decf	_RB4_F^0,w,c	;volatile
  1841   00109E  A4D8               	btfss	status,2,c
  1842   0010A0  EF54  F008         	goto	i2u228_41
  1843   0010A4  EF56  F008         	goto	i2u228_40
  1844   0010A8                     i2u228_41:
  1845   0010A8  EF5B  F008         	goto	i2l1274
  1846   0010AC                     i2u228_40:
  1847   0010AC                     
  1848                           ;MCAL_Layer/Interrupt/mcal_interrupt_manager.c: 54:         RB4_F = 0;
  1849   0010AC  0E00               	movlw	0
  1850   0010AE  6E74               	movwf	_RB4_F^0,c	;volatile
  1851   0010B0                     
  1852                           ;MCAL_Layer/Interrupt/mcal_interrupt_manager.c: 55:         RB4_ISR(0);
  1853   0010B0  0E00               	movlw	0
  1854   0010B2  EC90  F00C         	call	_RB4_ISR
  1855   0010B6                     i2l1274:
  1856                           
  1857                           ;MCAL_Layer/Interrupt/mcal_interrupt_manager.c: 58:     if((INTCONbits.RBIE == 1) && (IN
      +                          TCONbits.RBIF == 1) && (PORTBbits.RB4 == GPIO_LOW) && (RB4_F == 0)){
  1858   0010B6  A6F2               	btfss	242,3,c	;volatile
  1859   0010B8  EF60  F008         	goto	i2u229_41
  1860   0010BC  EF62  F008         	goto	i2u229_40
  1861   0010C0                     i2u229_41:
  1862   0010C0  EF7D  F008         	goto	i2l1276
  1863   0010C4                     i2u229_40:
  1864   0010C4  A0F2               	btfss	242,0,c	;volatile
  1865   0010C6  EF67  F008         	goto	i2u230_41
  1866   0010CA  EF69  F008         	goto	i2u230_40
  1867   0010CE                     i2u230_41:
  1868   0010CE  EF7D  F008         	goto	i2l1276
  1869   0010D2                     i2u230_40:
  1870   0010D2  B881               	btfsc	129,4,c	;volatile
  1871   0010D4  EF6E  F008         	goto	i2u231_41
  1872   0010D8  EF70  F008         	goto	i2u231_40
  1873   0010DC                     i2u231_41:
  1874   0010DC  EF7D  F008         	goto	i2l1276
  1875   0010E0                     i2u231_40:
  1876   0010E0  5074               	movf	_RB4_F^0,w,c	;volatile
  1877   0010E2  A4D8               	btfss	status,2,c
  1878   0010E4  EF76  F008         	goto	i2u232_41
  1879   0010E8  EF78  F008         	goto	i2u232_40
  1880   0010EC                     i2u232_41:
  1881   0010EC  EF7D  F008         	goto	i2l1276
  1882   0010F0                     i2u232_40:
  1883   0010F0                     
  1884                           ;MCAL_Layer/Interrupt/mcal_interrupt_manager.c: 59:         RB4_F = 1;
  1885   0010F0  0E01               	movlw	1
  1886   0010F2  6E74               	movwf	_RB4_F^0,c	;volatile
  1887   0010F4                     
  1888                           ;MCAL_Layer/Interrupt/mcal_interrupt_manager.c: 60:         RB4_ISR(1);
  1889   0010F4  0E01               	movlw	1
  1890   0010F6  EC90  F00C         	call	_RB4_ISR
  1891   0010FA                     i2l1276:
  1892                           
  1893                           ;MCAL_Layer/Interrupt/mcal_interrupt_manager.c: 63:     if((INTCONbits.RBIE == 1) && (IN
      +                          TCONbits.RBIF == 1) && (PORTBbits.RB5 == GPIO_HIGH) && (RB5_F == 1)){
  1894   0010FA  A6F2               	btfss	242,3,c	;volatile
  1895   0010FC  EF82  F008         	goto	i2u233_41
  1896   001100  EF84  F008         	goto	i2u233_40
  1897   001104                     i2u233_41:
  1898   001104  EF9F  F008         	goto	i2l1278
  1899   001108                     i2u233_40:
  1900   001108  A0F2               	btfss	242,0,c	;volatile
  1901   00110A  EF89  F008         	goto	i2u234_41
  1902   00110E  EF8B  F008         	goto	i2u234_40
  1903   001112                     i2u234_41:
  1904   001112  EF9F  F008         	goto	i2l1278
  1905   001116                     i2u234_40:
  1906   001116  AA81               	btfss	129,5,c	;volatile
  1907   001118  EF90  F008         	goto	i2u235_41
  1908   00111C  EF92  F008         	goto	i2u235_40
  1909   001120                     i2u235_41:
  1910   001120  EF9F  F008         	goto	i2l1278
  1911   001124                     i2u235_40:
  1912   001124  0473               	decf	_RB5_F^0,w,c	;volatile
  1913   001126  A4D8               	btfss	status,2,c
  1914   001128  EF98  F008         	goto	i2u236_41
  1915   00112C  EF9A  F008         	goto	i2u236_40
  1916   001130                     i2u236_41:
  1917   001130  EF9F  F008         	goto	i2l1278
  1918   001134                     i2u236_40:
  1919   001134                     
  1920                           ;MCAL_Layer/Interrupt/mcal_interrupt_manager.c: 64:         RB5_F = 0;
  1921   001134  0E00               	movlw	0
  1922   001136  6E73               	movwf	_RB5_F^0,c	;volatile
  1923   001138                     
  1924                           ;MCAL_Layer/Interrupt/mcal_interrupt_manager.c: 65:         RB5_ISR(0);
  1925   001138  0E00               	movlw	0
  1926   00113A  ECB8  F00C         	call	_RB5_ISR
  1927   00113E                     i2l1278:
  1928                           
  1929                           ;MCAL_Layer/Interrupt/mcal_interrupt_manager.c: 68:     if((INTCONbits.RBIE == 1) && (IN
      +                          TCONbits.RBIF == 1) && (PORTBbits.RB5 == GPIO_LOW) && (RB5_F == 0)){
  1930   00113E  A6F2               	btfss	242,3,c	;volatile
  1931   001140  EFA4  F008         	goto	i2u237_41
  1932   001144  EFA6  F008         	goto	i2u237_40
  1933   001148                     i2u237_41:
  1934   001148  EFC1  F008         	goto	i2l1280
  1935   00114C                     i2u237_40:
  1936   00114C  A0F2               	btfss	242,0,c	;volatile
  1937   00114E  EFAB  F008         	goto	i2u238_41
  1938   001152  EFAD  F008         	goto	i2u238_40
  1939   001156                     i2u238_41:
  1940   001156  EFC1  F008         	goto	i2l1280
  1941   00115A                     i2u238_40:
  1942   00115A  BA81               	btfsc	129,5,c	;volatile
  1943   00115C  EFB2  F008         	goto	i2u239_41
  1944   001160  EFB4  F008         	goto	i2u239_40
  1945   001164                     i2u239_41:
  1946   001164  EFC1  F008         	goto	i2l1280
  1947   001168                     i2u239_40:
  1948   001168  5073               	movf	_RB5_F^0,w,c	;volatile
  1949   00116A  A4D8               	btfss	status,2,c
  1950   00116C  EFBA  F008         	goto	i2u240_41
  1951   001170  EFBC  F008         	goto	i2u240_40
  1952   001174                     i2u240_41:
  1953   001174  EFC1  F008         	goto	i2l1280
  1954   001178                     i2u240_40:
  1955   001178                     
  1956                           ;MCAL_Layer/Interrupt/mcal_interrupt_manager.c: 69:         RB5_F = 1;
  1957   001178  0E01               	movlw	1
  1958   00117A  6E73               	movwf	_RB5_F^0,c	;volatile
  1959   00117C                     
  1960                           ;MCAL_Layer/Interrupt/mcal_interrupt_manager.c: 70:         RB5_ISR(1);
  1961   00117C  0E01               	movlw	1
  1962   00117E  ECB8  F00C         	call	_RB5_ISR
  1963   001182                     i2l1280:
  1964                           
  1965                           ;MCAL_Layer/Interrupt/mcal_interrupt_manager.c: 73:     if((INTCONbits.RBIE == 1) && (IN
      +                          TCONbits.RBIF == 1) && (PORTBbits.RB6 == GPIO_HIGH) && (RB6_F == 1)){
  1966   001182  A6F2               	btfss	242,3,c	;volatile
  1967   001184  EFC6  F008         	goto	i2u241_41
  1968   001188  EFC8  F008         	goto	i2u241_40
  1969   00118C                     i2u241_41:
  1970   00118C  EFE3  F008         	goto	i2l1282
  1971   001190                     i2u241_40:
  1972   001190  A0F2               	btfss	242,0,c	;volatile
  1973   001192  EFCD  F008         	goto	i2u242_41
  1974   001196  EFCF  F008         	goto	i2u242_40
  1975   00119A                     i2u242_41:
  1976   00119A  EFE3  F008         	goto	i2l1282
  1977   00119E                     i2u242_40:
  1978   00119E  AC81               	btfss	129,6,c	;volatile
  1979   0011A0  EFD4  F008         	goto	i2u243_41
  1980   0011A4  EFD6  F008         	goto	i2u243_40
  1981   0011A8                     i2u243_41:
  1982   0011A8  EFE3  F008         	goto	i2l1282
  1983   0011AC                     i2u243_40:
  1984   0011AC  0472               	decf	_RB6_F^0,w,c	;volatile
  1985   0011AE  A4D8               	btfss	status,2,c
  1986   0011B0  EFDC  F008         	goto	i2u244_41
  1987   0011B4  EFDE  F008         	goto	i2u244_40
  1988   0011B8                     i2u244_41:
  1989   0011B8  EFE3  F008         	goto	i2l1282
  1990   0011BC                     i2u244_40:
  1991   0011BC                     
  1992                           ;MCAL_Layer/Interrupt/mcal_interrupt_manager.c: 74:         RB6_F = 0;
  1993   0011BC  0E00               	movlw	0
  1994   0011BE  6E72               	movwf	_RB6_F^0,c	;volatile
  1995   0011C0                     
  1996                           ;MCAL_Layer/Interrupt/mcal_interrupt_manager.c: 75:         RB6_ISR(0);
  1997   0011C0  0E00               	movlw	0
  1998   0011C2  ECAB  F00C         	call	_RB6_ISR
  1999   0011C6                     i2l1282:
  2000                           
  2001                           ;MCAL_Layer/Interrupt/mcal_interrupt_manager.c: 78:     if((INTCONbits.RBIE == 1) && (IN
      +                          TCONbits.RBIF == 1) && (PORTBbits.RB6 == GPIO_LOW) && (RB6_F == 0)){
  2002   0011C6  A6F2               	btfss	242,3,c	;volatile
  2003   0011C8  EFE8  F008         	goto	i2u245_41
  2004   0011CC  EFEA  F008         	goto	i2u245_40
  2005   0011D0                     i2u245_41:
  2006   0011D0  EF05  F009         	goto	i2l1284
  2007   0011D4                     i2u245_40:
  2008   0011D4  A0F2               	btfss	242,0,c	;volatile
  2009   0011D6  EFEF  F008         	goto	i2u246_41
  2010   0011DA  EFF1  F008         	goto	i2u246_40
  2011   0011DE                     i2u246_41:
  2012   0011DE  EF05  F009         	goto	i2l1284
  2013   0011E2                     i2u246_40:
  2014   0011E2  BC81               	btfsc	129,6,c	;volatile
  2015   0011E4  EFF6  F008         	goto	i2u247_41
  2016   0011E8  EFF8  F008         	goto	i2u247_40
  2017   0011EC                     i2u247_41:
  2018   0011EC  EF05  F009         	goto	i2l1284
  2019   0011F0                     i2u247_40:
  2020   0011F0  5072               	movf	_RB6_F^0,w,c	;volatile
  2021   0011F2  A4D8               	btfss	status,2,c
  2022   0011F4  EFFE  F008         	goto	i2u248_41
  2023   0011F8  EF00  F009         	goto	i2u248_40
  2024   0011FC                     i2u248_41:
  2025   0011FC  EF05  F009         	goto	i2l1284
  2026   001200                     i2u248_40:
  2027   001200                     
  2028                           ;MCAL_Layer/Interrupt/mcal_interrupt_manager.c: 79:         RB6_F = 1;
  2029   001200  0E01               	movlw	1
  2030   001202  6E72               	movwf	_RB6_F^0,c	;volatile
  2031   001204                     
  2032                           ;MCAL_Layer/Interrupt/mcal_interrupt_manager.c: 80:         RB4_ISR(1);
  2033   001204  0E01               	movlw	1
  2034   001206  EC90  F00C         	call	_RB4_ISR
  2035   00120A                     i2l1284:
  2036                           
  2037                           ;MCAL_Layer/Interrupt/mcal_interrupt_manager.c: 83:     if((INTCONbits.RBIE == 1) && (IN
      +                          TCONbits.RBIF == 1) && (PORTBbits.RB7 == GPIO_HIGH) && (RB7_F == 1)){
  2038   00120A  A6F2               	btfss	242,3,c	;volatile
  2039   00120C  EF0A  F009         	goto	i2u249_41
  2040   001210  EF0C  F009         	goto	i2u249_40
  2041   001214                     i2u249_41:
  2042   001214  EF27  F009         	goto	i2l1286
  2043   001218                     i2u249_40:
  2044   001218  A0F2               	btfss	242,0,c	;volatile
  2045   00121A  EF11  F009         	goto	i2u250_41
  2046   00121E  EF13  F009         	goto	i2u250_40
  2047   001222                     i2u250_41:
  2048   001222  EF27  F009         	goto	i2l1286
  2049   001226                     i2u250_40:
  2050   001226  AE81               	btfss	129,7,c	;volatile
  2051   001228  EF18  F009         	goto	i2u251_41
  2052   00122C  EF1A  F009         	goto	i2u251_40
  2053   001230                     i2u251_41:
  2054   001230  EF27  F009         	goto	i2l1286
  2055   001234                     i2u251_40:
  2056   001234  0471               	decf	_RB7_F^0,w,c	;volatile
  2057   001236  A4D8               	btfss	status,2,c
  2058   001238  EF20  F009         	goto	i2u252_41
  2059   00123C  EF22  F009         	goto	i2u252_40
  2060   001240                     i2u252_41:
  2061   001240  EF27  F009         	goto	i2l1286
  2062   001244                     i2u252_40:
  2063   001244                     
  2064                           ;MCAL_Layer/Interrupt/mcal_interrupt_manager.c: 84:         RB7_F = 0;
  2065   001244  0E00               	movlw	0
  2066   001246  6E71               	movwf	_RB7_F^0,c	;volatile
  2067   001248                     
  2068                           ;MCAL_Layer/Interrupt/mcal_interrupt_manager.c: 85:         RB7_ISR(0);
  2069   001248  0E00               	movlw	0
  2070   00124A  EC9E  F00C         	call	_RB7_ISR
  2071   00124E                     i2l1286:
  2072   00124E  A6F2               	btfss	242,3,c	;volatile
  2073   001250  EF2C  F009         	goto	i2u253_41
  2074   001254  EF2E  F009         	goto	i2u253_40
  2075   001258                     i2u253_41:
  2076   001258  EF49  F009         	goto	i2l1288
  2077   00125C                     i2u253_40:
  2078   00125C  A0F2               	btfss	242,0,c	;volatile
  2079   00125E  EF33  F009         	goto	i2u254_41
  2080   001262  EF35  F009         	goto	i2u254_40
  2081   001266                     i2u254_41:
  2082   001266  EF49  F009         	goto	i2l1288
  2083   00126A                     i2u254_40:
  2084   00126A  AE81               	btfss	129,7,c	;volatile
  2085   00126C  EF3A  F009         	goto	i2u255_41
  2086   001270  EF3C  F009         	goto	i2u255_40
  2087   001274                     i2u255_41:
  2088   001274  EF49  F009         	goto	i2l1288
  2089   001278                     i2u255_40:
  2090   001278  5071               	movf	_RB7_F^0,w,c	;volatile
  2091   00127A  A4D8               	btfss	status,2,c
  2092   00127C  EF42  F009         	goto	i2u256_41
  2093   001280  EF44  F009         	goto	i2u256_40
  2094   001284                     i2u256_41:
  2095   001284  EF49  F009         	goto	i2l1288
  2096   001288                     i2u256_40:
  2097   001288                     
  2098                           ;MCAL_Layer/Interrupt/mcal_interrupt_manager.c: 88:         RB7_F = 0;
  2099   001288  0E00               	movlw	0
  2100   00128A  6E71               	movwf	_RB7_F^0,c	;volatile
  2101   00128C                     
  2102                           ;MCAL_Layer/Interrupt/mcal_interrupt_manager.c: 89:         RB7_ISR(1);
  2103   00128C  0E01               	movlw	1
  2104   00128E  EC9E  F00C         	call	_RB7_ISR
  2105   001292                     i2l1288:
  2106                           
  2107                           ;MCAL_Layer/Interrupt/mcal_interrupt_manager.c: 92:     if((INTCONbits.TMR0IE == 1) && (
      +                          INTCONbits.TMR0IF == 1)){
  2108   001292  AAF2               	btfss	242,5,c	;volatile
  2109   001294  EF4E  F009         	goto	i2u257_41
  2110   001298  EF50  F009         	goto	i2u257_40
  2111   00129C                     i2u257_41:
  2112   00129C  EF59  F009         	goto	i2l1290
  2113   0012A0                     i2u257_40:
  2114   0012A0  A4F2               	btfss	242,2,c	;volatile
  2115   0012A2  EF55  F009         	goto	i2u258_41
  2116   0012A6  EF57  F009         	goto	i2u258_40
  2117   0012AA                     i2u258_41:
  2118   0012AA  EF59  F009         	goto	i2l1290
  2119   0012AE                     i2u258_40:
  2120   0012AE                     
  2121                           ;MCAL_Layer/Interrupt/mcal_interrupt_manager.c: 93:         TMR0_ISR();
  2122   0012AE  ECDA  F00C         	call	_TMR0_ISR	;wreg free
  2123   0012B2                     i2l1290:
  2124                           
  2125                           ;MCAL_Layer/Interrupt/mcal_interrupt_manager.c: 96:     if((PIE1bits.TMR1IE == 1) && (PI
      +                          R1bits.TMR1IF == 1)){
  2126   0012B2  A09D               	btfss	157,0,c	;volatile
  2127   0012B4  EF5E  F009         	goto	i2u259_41
  2128   0012B8  EF60  F009         	goto	i2u259_40
  2129   0012BC                     i2u259_41:
  2130   0012BC  EF69  F009         	goto	i2l1292
  2131   0012C0                     i2u259_40:
  2132   0012C0  A09E               	btfss	158,0,c	;volatile
  2133   0012C2  EF65  F009         	goto	i2u260_41
  2134   0012C6  EF67  F009         	goto	i2u260_40
  2135   0012CA                     i2u260_41:
  2136   0012CA  EF69  F009         	goto	i2l1292
  2137   0012CE                     i2u260_40:
  2138   0012CE                     
  2139                           ;MCAL_Layer/Interrupt/mcal_interrupt_manager.c: 97:         TMR1_ISR();
  2140   0012CE  ECD4  F00C         	call	_TMR1_ISR	;wreg free
  2141   0012D2                     i2l1292:
  2142                           
  2143                           ;MCAL_Layer/Interrupt/mcal_interrupt_manager.c: 101:     if((T2CONbits.TMR2ON == 1) && (
      +                          PIR1bits.TMR2IF == 1)){
  2144   0012D2  A4CA               	btfss	202,2,c	;volatile
  2145   0012D4  EF6E  F009         	goto	i2u261_41
  2146   0012D8  EF70  F009         	goto	i2u261_40
  2147   0012DC                     i2u261_41:
  2148   0012DC  EF79  F009         	goto	i2l1294
  2149   0012E0                     i2u261_40:
  2150   0012E0  A29E               	btfss	158,1,c	;volatile
  2151   0012E2  EF75  F009         	goto	i2u262_41
  2152   0012E6  EF77  F009         	goto	i2u262_40
  2153   0012EA                     i2u262_41:
  2154   0012EA  EF79  F009         	goto	i2l1294
  2155   0012EE                     i2u262_40:
  2156   0012EE                     
  2157                           ;MCAL_Layer/Interrupt/mcal_interrupt_manager.c: 102:         TMR2_ISR();
  2158   0012EE  ECE4  F00C         	call	_TMR2_ISR	;wreg free
  2159   0012F2                     i2l1294:
  2160                           
  2161                           ;MCAL_Layer/Interrupt/mcal_interrupt_manager.c: 105:     if((T3CONbits.TMR3ON == 1) && (
      +                          PIR2bits.TMR3IF == 1)){
  2162   0012F2  A0B1               	btfss	177,0,c	;volatile
  2163   0012F4  EF7E  F009         	goto	i2u263_41
  2164   0012F8  EF80  F009         	goto	i2u263_40
  2165   0012FC                     i2u263_41:
  2166   0012FC  EF89  F009         	goto	i2l1296
  2167   001300                     i2u263_40:
  2168   001300  A2A1               	btfss	161,1,c	;volatile
  2169   001302  EF85  F009         	goto	i2u264_41
  2170   001306  EF87  F009         	goto	i2u264_40
  2171   00130A                     i2u264_41:
  2172   00130A  EF89  F009         	goto	i2l1296
  2173   00130E                     i2u264_40:
  2174   00130E                     
  2175                           ;MCAL_Layer/Interrupt/mcal_interrupt_manager.c: 106:         TMR3_ISR();
  2176   00130E  ECCE  F00C         	call	_TMR3_ISR	;wreg free
  2177   001312                     i2l1296:
  2178                           
  2179                           ;MCAL_Layer/Interrupt/mcal_interrupt_manager.c: 110:     if((PIE1bits.CCP1IE == 1) && (P
      +                          IR1bits.CCP1IF == 1)){
  2180   001312  A49D               	btfss	157,2,c	;volatile
  2181   001314  EF8E  F009         	goto	i2u265_41
  2182   001318  EF90  F009         	goto	i2u265_40
  2183   00131C                     i2u265_41:
  2184   00131C  EF99  F009         	goto	i2l1298
  2185   001320                     i2u265_40:
  2186   001320  A49E               	btfss	158,2,c	;volatile
  2187   001322  EF95  F009         	goto	i2u266_41
  2188   001326  EF97  F009         	goto	i2u266_40
  2189   00132A                     i2u266_41:
  2190   00132A  EF99  F009         	goto	i2l1298
  2191   00132E                     i2u266_40:
  2192   00132E                     
  2193                           ;MCAL_Layer/Interrupt/mcal_interrupt_manager.c: 111:         CCP1_ISR();
  2194   00132E  ECF5  F00C         	call	_CCP1_ISR	;wreg free
  2195   001332                     i2l1298:
  2196                           
  2197                           ;MCAL_Layer/Interrupt/mcal_interrupt_manager.c: 115:     if((PIE2bits.CCP2IE == 1) && (P
      +                          IR2bits.CCP2IF == 1)){
  2198   001332  A0A0               	btfss	160,0,c	;volatile
  2199   001334  EF9E  F009         	goto	i2u267_41
  2200   001338  EFA0  F009         	goto	i2u267_40
  2201   00133C                     i2u267_41:
  2202   00133C  EFA9  F009         	goto	i2l1300
  2203   001340                     i2u267_40:
  2204   001340  A0A1               	btfss	161,0,c	;volatile
  2205   001342  EFA5  F009         	goto	i2u268_41
  2206   001346  EFA7  F009         	goto	i2u268_40
  2207   00134A                     i2u268_41:
  2208   00134A  EFA9  F009         	goto	i2l1300
  2209   00134E                     i2u268_40:
  2210   00134E                     
  2211                           ;MCAL_Layer/Interrupt/mcal_interrupt_manager.c: 116:         CCP2_ISR();
  2212   00134E  ECF3  F00C         	call	_CCP2_ISR	;wreg free
  2213   001352                     i2l1300:
  2214                           
  2215                           ;MCAL_Layer/Interrupt/mcal_interrupt_manager.c: 120:      if((1 == PIE1bits.TXIE) && (1 
      +                          == PIR1bits.TXIF)){
  2216   001352  A89D               	btfss	157,4,c	;volatile
  2217   001354  EFAE  F009         	goto	i2u269_41
  2218   001358  EFB0  F009         	goto	i2u269_40
  2219   00135C                     i2u269_41:
  2220   00135C  EFB9  F009         	goto	i2l1302
  2221   001360                     i2u269_40:
  2222   001360  A89E               	btfss	158,4,c	;volatile
  2223   001362  EFB5  F009         	goto	i2u270_41
  2224   001366  EFB7  F009         	goto	i2u270_40
  2225   00136A                     i2u270_41:
  2226   00136A  EFB9  F009         	goto	i2l1302
  2227   00136E                     i2u270_40:
  2228   00136E                     
  2229                           ;MCAL_Layer/Interrupt/mcal_interrupt_manager.c: 121:         EUSART_TX_ISR();
  2230   00136E  ECF1  F00C         	call	_EUSART_TX_ISR	;wreg free
  2231   001372                     i2l1302:
  2232                           
  2233                           ;MCAL_Layer/Interrupt/mcal_interrupt_manager.c: 124:     if((1 == PIE1bits.RCIE) && (1 =
      +                          = PIR1bits.RCIF)){
  2234   001372  AA9D               	btfss	157,5,c	;volatile
  2235   001374  EFBE  F009         	goto	i2u271_41
  2236   001378  EFC0  F009         	goto	i2u271_40
  2237   00137C                     i2u271_41:
  2238   00137C  EFC9  F009         	goto	i2l1304
  2239   001380                     i2u271_40:
  2240   001380  AA9E               	btfss	158,5,c	;volatile
  2241   001382  EFC5  F009         	goto	i2u272_41
  2242   001386  EFC7  F009         	goto	i2u272_40
  2243   00138A                     i2u272_41:
  2244   00138A  EFC9  F009         	goto	i2l1304
  2245   00138E                     i2u272_40:
  2246   00138E                     
  2247                           ;MCAL_Layer/Interrupt/mcal_interrupt_manager.c: 125:         EUSART_RX_ISR();
  2248   00138E  ECF8  F00C         	call	_EUSART_RX_ISR	;wreg free
  2249   001392                     i2l1304:
  2250                           
  2251                           ;MCAL_Layer/Interrupt/mcal_interrupt_manager.c: 128:     if((1 == PIE1bits.SSPIE) && (1 
      +                          == PIR1bits.SSPIF)){
  2252   001392  A69D               	btfss	157,3,c	;volatile
  2253   001394  EFCE  F009         	goto	i2u273_41
  2254   001398  EFD0  F009         	goto	i2u273_40
  2255   00139C                     i2u273_41:
  2256   00139C  EFD9  F009         	goto	i2l1307
  2257   0013A0                     i2u273_40:
  2258   0013A0  A69E               	btfss	158,3,c	;volatile
  2259   0013A2  EFD5  F009         	goto	i2u274_41
  2260   0013A6  EFD7  F009         	goto	i2u274_40
  2261   0013AA                     i2u274_41:
  2262   0013AA  EFD9  F009         	goto	i2l1307
  2263   0013AE                     i2u274_40:
  2264   0013AE                     
  2265                           ;MCAL_Layer/Interrupt/mcal_interrupt_manager.c: 129:         MSSP_I2C_ISR();
  2266   0013AE  EC67  F00C         	call	_MSSP_I2C_ISR	;wreg free
  2267   0013B2                     i2l1307:
  2268   0013B2  C052  FFFB         	movff	??_InterruptMangaer+1,pclatu
  2269   0013B6  C051  FFFA         	movff	??_InterruptMangaer,pclath
  2270   0013BA  9278               	bcf	int$flags,1,c	;clear compiler interrupt flag (level 2)
  2271   0013BC  0011               	retfie		f
  2272   0013BE                     __end_of_InterruptMangaer:
  2273                           	callstack 0
  2274                           
  2275 ;; *************** function _TMR3_ISR *****************
  2276 ;; Defined at:
  2277 ;;		line 142 in file "MCAL_Layer/TIMERS/TIMER3/hal_timer3.c"
  2278 ;; Parameters:    Size  Location     Type
  2279 ;;		None
  2280 ;; Auto vars:     Size  Location     Type
  2281 ;;		None
  2282 ;; Return value:  Size  Location     Type
  2283 ;;                  1    wreg      void 
  2284 ;; Registers used:
  2285 ;;		wreg, status,2
  2286 ;; Tracked objects:
  2287 ;;		On entry : 0/0
  2288 ;;		On exit  : 0/0
  2289 ;;		Unchanged: 0/0
  2290 ;; Data sizes:     COMRAM   BANK0   BANK1   BANK2   BANK3   BANK4   BANK5   BANK6   BANK7   BANK8   BANK9  BANK10  BANK1
      +1  BANK12  BANK13  BANK14  BANK15
  2291 ;;      Params:         0       0       0       0       0       0       0       0       0       0       0       0       
      +0       0       0       0       0
  2292 ;;      Locals:         0       0       0       0       0       0       0       0       0       0       0       0       
      +0       0       0       0       0
  2293 ;;      Temps:          0       0       0       0       0       0       0       0       0       0       0       0       
      +0       0       0       0       0
  2294 ;;      Totals:         0       0       0       0       0       0       0       0       0       0       0       0       
      +0       0       0       0       0
  2295 ;;Total ram usage:        0 bytes
  2296 ;; Hardware stack levels used: 1
  2297 ;; This function calls:
  2298 ;;		Nothing
  2299 ;; This function is called by:
  2300 ;;		_InterruptMangaer
  2301 ;; This function uses a non-reentrant model
  2302 ;;
  2303                           
  2304                           	psect	text11
  2305   00199C                     __ptext11:
  2306                           	callstack 0
  2307   00199C                     _TMR3_ISR:
  2308                           	callstack 27
  2309   00199C                     
  2310                           ;MCAL_Layer/TIMERS/TIMER3/hal_timer3.c: 143:     (PIR2bits.TMR3IF = 0);
  2311   00199C  92A1               	bcf	161,1,c	;volatile
  2312   00199E                     
  2313                           ;MCAL_Layer/TIMERS/TIMER3/hal_timer3.c: 144:     TMR3H = (uint8)(preval >> 8);
  2314   00199E  5008               	movf	(_preval@hal_timer3$F3849+1)^0,w,c
  2315   0019A0  6EB3               	movwf	179,c	;volatile
  2316   0019A2                     
  2317                           ;MCAL_Layer/TIMERS/TIMER3/hal_timer3.c: 145:     TMR3L = (uint8)preval;
  2318   0019A2  C007  FFB2         	movff	_preval@hal_timer3$F3849,4018	;volatile
  2319   0019A6  0012               	return		;funcret
  2320   0019A8                     __end_of_TMR3_ISR:
  2321                           	callstack 0
  2322                           
  2323 ;; *************** function _TMR2_ISR *****************
  2324 ;; Defined at:
  2325 ;;		line 82 in file "MCAL_Layer/TIMERS/TIMER2/hal_timer2.c"
  2326 ;; Parameters:    Size  Location     Type
  2327 ;;		None
  2328 ;; Auto vars:     Size  Location     Type
  2329 ;;		None
  2330 ;; Return value:  Size  Location     Type
  2331 ;;                  1    wreg      void 
  2332 ;; Registers used:
  2333 ;;		None
  2334 ;; Tracked objects:
  2335 ;;		On entry : 0/0
  2336 ;;		On exit  : 0/0
  2337 ;;		Unchanged: 0/0
  2338 ;; Data sizes:     COMRAM   BANK0   BANK1   BANK2   BANK3   BANK4   BANK5   BANK6   BANK7   BANK8   BANK9  BANK10  BANK1
      +1  BANK12  BANK13  BANK14  BANK15
  2339 ;;      Params:         0       0       0       0       0       0       0       0       0       0       0       0       
      +0       0       0       0       0
  2340 ;;      Locals:         0       0       0       0       0       0       0       0       0       0       0       0       
      +0       0       0       0       0
  2341 ;;      Temps:          0       0       0       0       0       0       0       0       0       0       0       0       
      +0       0       0       0       0
  2342 ;;      Totals:         0       0       0       0       0       0       0       0       0       0       0       0       
      +0       0       0       0       0
  2343 ;;Total ram usage:        0 bytes
  2344 ;; Hardware stack levels used: 1
  2345 ;; This function calls:
  2346 ;;		Nothing
  2347 ;; This function is called by:
  2348 ;;		_InterruptMangaer
  2349 ;; This function uses a non-reentrant model
  2350 ;;
  2351                           
  2352                           	psect	text12
  2353   0019C8                     __ptext12:
  2354                           	callstack 0
  2355   0019C8                     _TMR2_ISR:
  2356                           	callstack 27
  2357   0019C8                     
  2358                           ;MCAL_Layer/TIMERS/TIMER2/hal_timer2.c: 83:     (PIR1bits.TMR2IF = 0);
  2359   0019C8  929E               	bcf	158,1,c	;volatile
  2360                           
  2361                           ;MCAL_Layer/TIMERS/TIMER2/hal_timer2.c: 84:     TMR2 = preval;
  2362   0019CA  C03C  FFCC         	movff	_preval@hal_timer2$F3712,4044	;volatile
  2363   0019CE  0012               	return		;funcret
  2364   0019D0                     __end_of_TMR2_ISR:
  2365                           	callstack 0
  2366                           
  2367 ;; *************** function _TMR1_ISR *****************
  2368 ;; Defined at:
  2369 ;;		line 141 in file "MCAL_Layer/TIMERS/TIMER1/hal_timer1.c"
  2370 ;; Parameters:    Size  Location     Type
  2371 ;;		None
  2372 ;; Auto vars:     Size  Location     Type
  2373 ;;		None
  2374 ;; Return value:  Size  Location     Type
  2375 ;;                  1    wreg      void 
  2376 ;; Registers used:
  2377 ;;		wreg, status,2
  2378 ;; Tracked objects:
  2379 ;;		On entry : 0/0
  2380 ;;		On exit  : 0/0
  2381 ;;		Unchanged: 0/0
  2382 ;; Data sizes:     COMRAM   BANK0   BANK1   BANK2   BANK3   BANK4   BANK5   BANK6   BANK7   BANK8   BANK9  BANK10  BANK1
      +1  BANK12  BANK13  BANK14  BANK15
  2383 ;;      Params:         0       0       0       0       0       0       0       0       0       0       0       0       
      +0       0       0       0       0
  2384 ;;      Locals:         0       0       0       0       0       0       0       0       0       0       0       0       
      +0       0       0       0       0
  2385 ;;      Temps:          0       0       0       0       0       0       0       0       0       0       0       0       
      +0       0       0       0       0
  2386 ;;      Totals:         0       0       0       0       0       0       0       0       0       0       0       0       
      +0       0       0       0       0
  2387 ;;Total ram usage:        0 bytes
  2388 ;; Hardware stack levels used: 1
  2389 ;; This function calls:
  2390 ;;		Nothing
  2391 ;; This function is called by:
  2392 ;;		_InterruptMangaer
  2393 ;; This function uses a non-reentrant model
  2394 ;;
  2395                           
  2396                           	psect	text13
  2397   0019A8                     __ptext13:
  2398                           	callstack 0
  2399   0019A8                     _TMR1_ISR:
  2400                           	callstack 27
  2401   0019A8                     
  2402                           ;MCAL_Layer/TIMERS/TIMER1/hal_timer1.c: 142:     (PIR1bits.TMR1IF = 0);
  2403   0019A8  909E               	bcf	158,0,c	;volatile
  2404   0019AA                     
  2405                           ;MCAL_Layer/TIMERS/TIMER1/hal_timer1.c: 143:     TMR1H = (uint8)(preval >> 8);
  2406   0019AA  500E               	movf	(_preval+1)^0,w,c
  2407   0019AC  6ECF               	movwf	207,c	;volatile
  2408   0019AE                     
  2409                           ;MCAL_Layer/TIMERS/TIMER1/hal_timer1.c: 144:     TMR1L = (uint8)preval;
  2410   0019AE  C00D  FFCE         	movff	_preval,4046	;volatile
  2411   0019B2  0012               	return		;funcret
  2412   0019B4                     __end_of_TMR1_ISR:
  2413                           	callstack 0
  2414                           
  2415 ;; *************** function _TMR0_ISR *****************
  2416 ;; Defined at:
  2417 ;;		line 153 in file "MCAL_Layer/TIMERS/TIMER0/hal_timer0.c"
  2418 ;; Parameters:    Size  Location     Type
  2419 ;;		None
  2420 ;; Auto vars:     Size  Location     Type
  2421 ;;		None
  2422 ;; Return value:  Size  Location     Type
  2423 ;;                  1    wreg      void 
  2424 ;; Registers used:
  2425 ;;		wreg, status,2
  2426 ;; Tracked objects:
  2427 ;;		On entry : 0/0
  2428 ;;		On exit  : 0/0
  2429 ;;		Unchanged: 0/0
  2430 ;; Data sizes:     COMRAM   BANK0   BANK1   BANK2   BANK3   BANK4   BANK5   BANK6   BANK7   BANK8   BANK9  BANK10  BANK1
      +1  BANK12  BANK13  BANK14  BANK15
  2431 ;;      Params:         0       0       0       0       0       0       0       0       0       0       0       0       
      +0       0       0       0       0
  2432 ;;      Locals:         0       0       0       0       0       0       0       0       0       0       0       0       
      +0       0       0       0       0
  2433 ;;      Temps:          0       0       0       0       0       0       0       0       0       0       0       0       
      +0       0       0       0       0
  2434 ;;      Totals:         0       0       0       0       0       0       0       0       0       0       0       0       
      +0       0       0       0       0
  2435 ;;Total ram usage:        0 bytes
  2436 ;; Hardware stack levels used: 1
  2437 ;; This function calls:
  2438 ;;		Nothing
  2439 ;; This function is called by:
  2440 ;;		_InterruptMangaer
  2441 ;; This function uses a non-reentrant model
  2442 ;;
  2443                           
  2444                           	psect	text14
  2445   0019B4                     __ptext14:
  2446                           	callstack 0
  2447   0019B4                     _TMR0_ISR:
  2448                           	callstack 27
  2449   0019B4                     
  2450                           ;MCAL_Layer/TIMERS/TIMER0/hal_timer0.c: 154:     (INTCONbits.TMR0IF = 0);
  2451   0019B4  94F2               	bcf	242,2,c	;volatile
  2452   0019B6                     
  2453                           ;MCAL_Layer/TIMERS/TIMER0/hal_timer0.c: 155:     TMR0H = (preload >> 8);
  2454   0019B6  5010               	movf	(_preload+1)^0,w,c
  2455   0019B8  6ED7               	movwf	215,c	;volatile
  2456   0019BA                     
  2457                           ;MCAL_Layer/TIMERS/TIMER0/hal_timer0.c: 156:     TMR0L = (uint8)(preload);
  2458   0019BA  C00F  FFD6         	movff	_preload,4054	;volatile
  2459   0019BE  0012               	return		;funcret
  2460   0019C0                     __end_of_TMR0_ISR:
  2461                           	callstack 0
  2462                           
  2463 ;; *************** function _RB7_ISR *****************
  2464 ;; Defined at:
  2465 ;;		line 170 in file "MCAL_Layer/Interrupt/mcal_external_interrupt.c"
  2466 ;; Parameters:    Size  Location     Type
  2467 ;;  n               1    wreg     unsigned char 
  2468 ;; Auto vars:     Size  Location     Type
  2469 ;;  n               1    0[COMRAM] unsigned char 
  2470 ;; Return value:  Size  Location     Type
  2471 ;;                  1    wreg      void 
  2472 ;; Registers used:
  2473 ;;		wreg, status,2
  2474 ;; Tracked objects:
  2475 ;;		On entry : 0/0
  2476 ;;		On exit  : 0/0
  2477 ;;		Unchanged: 0/0
  2478 ;; Data sizes:     COMRAM   BANK0   BANK1   BANK2   BANK3   BANK4   BANK5   BANK6   BANK7   BANK8   BANK9  BANK10  BANK1
      +1  BANK12  BANK13  BANK14  BANK15
  2479 ;;      Params:         0       0       0       0       0       0       0       0       0       0       0       0       
      +0       0       0       0       0
  2480 ;;      Locals:         1       0       0       0       0       0       0       0       0       0       0       0       
      +0       0       0       0       0
  2481 ;;      Temps:          0       0       0       0       0       0       0       0       0       0       0       0       
      +0       0       0       0       0
  2482 ;;      Totals:         1       0       0       0       0       0       0       0       0       0       0       0       
      +0       0       0       0       0
  2483 ;;Total ram usage:        1 bytes
  2484 ;; Hardware stack levels used: 1
  2485 ;; This function calls:
  2486 ;;		Nothing
  2487 ;; This function is called by:
  2488 ;;		_InterruptMangaer
  2489 ;; This function uses a non-reentrant model
  2490 ;;
  2491                           
  2492                           	psect	text15
  2493   00193C                     __ptext15:
  2494                           	callstack 0
  2495   00193C                     _RB7_ISR:
  2496                           	callstack 27
  2497                           
  2498                           ;incstack = 0
  2499                           ;RB7_ISR@n stored from wreg
  2500   00193C  6E50               	movwf	RB7_ISR@n^0,c
  2501   00193E                     
  2502                           ;MCAL_Layer/Interrupt/mcal_external_interrupt.c: 172:     (INTCONbits.RBIF = 0);
  2503   00193E  90F2               	bcf	242,0,c	;volatile
  2504   001940                     
  2505                           ;MCAL_Layer/Interrupt/mcal_external_interrupt.c: 176:    if(!n){
  2506   001940  5050               	movf	RB7_ISR@n^0,w,c
  2507   001942  A4D8               	btfss	status,2,c
  2508   001944  EFA6  F00C         	goto	i2u64_41
  2509   001948  EFA8  F00C         	goto	i2u64_40
  2510   00194C                     i2u64_41:
  2511   00194C  EFAA  F00C         	goto	i2l2799
  2512   001950                     i2u64_40:
  2513   001950  EFAA  F00C         	goto	i2l1101
  2514   001954                     i2l2799:
  2515   001954                     i2l1101:
  2516   001954  0012               	return		;funcret
  2517   001956                     __end_of_RB7_ISR:
  2518                           	callstack 0
  2519                           
  2520 ;; *************** function _RB6_ISR *****************
  2521 ;; Defined at:
  2522 ;;		line 145 in file "MCAL_Layer/Interrupt/mcal_external_interrupt.c"
  2523 ;; Parameters:    Size  Location     Type
  2524 ;;  n               1    wreg     unsigned char 
  2525 ;; Auto vars:     Size  Location     Type
  2526 ;;  n               1    0[COMRAM] unsigned char 
  2527 ;; Return value:  Size  Location     Type
  2528 ;;                  1    wreg      void 
  2529 ;; Registers used:
  2530 ;;		wreg, status,2
  2531 ;; Tracked objects:
  2532 ;;		On entry : 0/0
  2533 ;;		On exit  : 0/0
  2534 ;;		Unchanged: 0/0
  2535 ;; Data sizes:     COMRAM   BANK0   BANK1   BANK2   BANK3   BANK4   BANK5   BANK6   BANK7   BANK8   BANK9  BANK10  BANK1
      +1  BANK12  BANK13  BANK14  BANK15
  2536 ;;      Params:         0       0       0       0       0       0       0       0       0       0       0       0       
      +0       0       0       0       0
  2537 ;;      Locals:         1       0       0       0       0       0       0       0       0       0       0       0       
      +0       0       0       0       0
  2538 ;;      Temps:          0       0       0       0       0       0       0       0       0       0       0       0       
      +0       0       0       0       0
  2539 ;;      Totals:         1       0       0       0       0       0       0       0       0       0       0       0       
      +0       0       0       0       0
  2540 ;;Total ram usage:        1 bytes
  2541 ;; Hardware stack levels used: 1
  2542 ;; This function calls:
  2543 ;;		Nothing
  2544 ;; This function is called by:
  2545 ;;		_InterruptMangaer
  2546 ;; This function uses a non-reentrant model
  2547 ;;
  2548                           
  2549                           	psect	text16
  2550   001956                     __ptext16:
  2551                           	callstack 0
  2552   001956                     _RB6_ISR:
  2553                           	callstack 27
  2554                           
  2555                           ;incstack = 0
  2556                           ;RB6_ISR@n stored from wreg
  2557   001956  6E50               	movwf	RB6_ISR@n^0,c
  2558   001958                     
  2559                           ;MCAL_Layer/Interrupt/mcal_external_interrupt.c: 147:     (INTCONbits.RBIF = 0);
  2560   001958  90F2               	bcf	242,0,c	;volatile
  2561   00195A                     
  2562                           ;MCAL_Layer/Interrupt/mcal_external_interrupt.c: 151:     if(!n){
  2563   00195A  5050               	movf	RB6_ISR@n^0,w,c
  2564   00195C  A4D8               	btfss	status,2,c
  2565   00195E  EFB3  F00C         	goto	i2u63_41
  2566   001962  EFB5  F00C         	goto	i2u63_40
  2567   001966                     i2u63_41:
  2568   001966  EFB7  F00C         	goto	i2l2785
  2569   00196A                     i2u63_40:
  2570   00196A  EFB7  F00C         	goto	i2l1090
  2571   00196E                     i2l2785:
  2572   00196E                     i2l1090:
  2573   00196E  0012               	return		;funcret
  2574   001970                     __end_of_RB6_ISR:
  2575                           	callstack 0
  2576                           
  2577 ;; *************** function _RB5_ISR *****************
  2578 ;; Defined at:
  2579 ;;		line 121 in file "MCAL_Layer/Interrupt/mcal_external_interrupt.c"
  2580 ;; Parameters:    Size  Location     Type
  2581 ;;  n               1    wreg     unsigned char 
  2582 ;; Auto vars:     Size  Location     Type
  2583 ;;  n               1    0[COMRAM] unsigned char 
  2584 ;; Return value:  Size  Location     Type
  2585 ;;                  1    wreg      void 
  2586 ;; Registers used:
  2587 ;;		wreg, status,2
  2588 ;; Tracked objects:
  2589 ;;		On entry : 0/0
  2590 ;;		On exit  : 0/0
  2591 ;;		Unchanged: 0/0
  2592 ;; Data sizes:     COMRAM   BANK0   BANK1   BANK2   BANK3   BANK4   BANK5   BANK6   BANK7   BANK8   BANK9  BANK10  BANK1
      +1  BANK12  BANK13  BANK14  BANK15
  2593 ;;      Params:         0       0       0       0       0       0       0       0       0       0       0       0       
      +0       0       0       0       0
  2594 ;;      Locals:         1       0       0       0       0       0       0       0       0       0       0       0       
      +0       0       0       0       0
  2595 ;;      Temps:          0       0       0       0       0       0       0       0       0       0       0       0       
      +0       0       0       0       0
  2596 ;;      Totals:         1       0       0       0       0       0       0       0       0       0       0       0       
      +0       0       0       0       0
  2597 ;;Total ram usage:        1 bytes
  2598 ;; Hardware stack levels used: 1
  2599 ;; This function calls:
  2600 ;;		Nothing
  2601 ;; This function is called by:
  2602 ;;		_InterruptMangaer
  2603 ;; This function uses a non-reentrant model
  2604 ;;
  2605                           
  2606                           	psect	text17
  2607   001970                     __ptext17:
  2608                           	callstack 0
  2609   001970                     _RB5_ISR:
  2610                           	callstack 27
  2611                           
  2612                           ;incstack = 0
  2613                           ;RB5_ISR@n stored from wreg
  2614   001970  6E50               	movwf	RB5_ISR@n^0,c
  2615   001972                     
  2616                           ;MCAL_Layer/Interrupt/mcal_external_interrupt.c: 123:     (INTCONbits.RBIF = 0);
  2617   001972  90F2               	bcf	242,0,c	;volatile
  2618   001974                     
  2619                           ;MCAL_Layer/Interrupt/mcal_external_interrupt.c: 127:     if(!n){
  2620   001974  5050               	movf	RB5_ISR@n^0,w,c
  2621   001976  A4D8               	btfss	status,2,c
  2622   001978  EFC0  F00C         	goto	i2u62_41
  2623   00197C  EFC2  F00C         	goto	i2u62_40
  2624   001980                     i2u62_41:
  2625   001980  EFC4  F00C         	goto	i2l2771
  2626   001984                     i2u62_40:
  2627   001984  EFC4  F00C         	goto	i2l1079
  2628   001988                     i2l2771:
  2629   001988                     i2l1079:
  2630   001988  0012               	return		;funcret
  2631   00198A                     __end_of_RB5_ISR:
  2632                           	callstack 0
  2633                           
  2634 ;; *************** function _RB4_ISR *****************
  2635 ;; Defined at:
  2636 ;;		line 95 in file "MCAL_Layer/Interrupt/mcal_external_interrupt.c"
  2637 ;; Parameters:    Size  Location     Type
  2638 ;;  n               1    wreg     unsigned char 
  2639 ;; Auto vars:     Size  Location     Type
  2640 ;;  n               1    0[COMRAM] unsigned char 
  2641 ;; Return value:  Size  Location     Type
  2642 ;;                  1    wreg      void 
  2643 ;; Registers used:
  2644 ;;		wreg, status,2
  2645 ;; Tracked objects:
  2646 ;;		On entry : 0/0
  2647 ;;		On exit  : 0/0
  2648 ;;		Unchanged: 0/0
  2649 ;; Data sizes:     COMRAM   BANK0   BANK1   BANK2   BANK3   BANK4   BANK5   BANK6   BANK7   BANK8   BANK9  BANK10  BANK1
      +1  BANK12  BANK13  BANK14  BANK15
  2650 ;;      Params:         0       0       0       0       0       0       0       0       0       0       0       0       
      +0       0       0       0       0
  2651 ;;      Locals:         1       0       0       0       0       0       0       0       0       0       0       0       
      +0       0       0       0       0
  2652 ;;      Temps:          0       0       0       0       0       0       0       0       0       0       0       0       
      +0       0       0       0       0
  2653 ;;      Totals:         1       0       0       0       0       0       0       0       0       0       0       0       
      +0       0       0       0       0
  2654 ;;Total ram usage:        1 bytes
  2655 ;; Hardware stack levels used: 1
  2656 ;; This function calls:
  2657 ;;		Nothing
  2658 ;; This function is called by:
  2659 ;;		_InterruptMangaer
  2660 ;; This function uses a non-reentrant model
  2661 ;;
  2662                           
  2663                           	psect	text18
  2664   001920                     __ptext18:
  2665                           	callstack 0
  2666   001920                     _RB4_ISR:
  2667                           	callstack 27
  2668                           
  2669                           ;incstack = 0
  2670                           ;RB4_ISR@n stored from wreg
  2671   001920  6E50               	movwf	RB4_ISR@n^0,c
  2672   001922                     
  2673                           ;MCAL_Layer/Interrupt/mcal_external_interrupt.c: 97:     (INTCONbits.RBIF = 0);
  2674   001922  90F2               	bcf	242,0,c	;volatile
  2675   001924                     
  2676                           ;MCAL_Layer/Interrupt/mcal_external_interrupt.c: 101:     if(!n){
  2677   001924  5050               	movf	RB4_ISR@n^0,w,c
  2678   001926  A4D8               	btfss	status,2,c
  2679   001928  EF98  F00C         	goto	i2u61_41
  2680   00192C  EF9A  F00C         	goto	i2u61_40
  2681   001930                     i2u61_41:
  2682   001930  EF9C  F00C         	goto	i2l2757
  2683   001934                     i2u61_40:
  2684   001934  EF9C  F00C         	goto	i2l1063
  2685   001938                     i2l2757:
  2686   001938                     i2l1063:
  2687                           
  2688                           ;MCAL_Layer/Interrupt/mcal_external_interrupt.c: 118:         (INTCONbits.RBIF = 0);
  2689   001938  90F2               	bcf	242,0,c	;volatile
  2690   00193A  0012               	return		;funcret
  2691   00193C                     __end_of_RB4_ISR:
  2692                           	callstack 0
  2693                           
  2694 ;; *************** function _MSSP_I2C_ISR *****************
  2695 ;; Defined at:
  2696 ;;		line 175 in file "MCAL_Layer/I2C/hal_i2c.c"
  2697 ;; Parameters:    Size  Location     Type
  2698 ;;		None
  2699 ;; Auto vars:     Size  Location     Type
  2700 ;;		None
  2701 ;; Return value:  Size  Location     Type
  2702 ;;                  1    wreg      void 
  2703 ;; Registers used:
  2704 ;;		wreg, status,2, status,0, pcl, pclath, pclatu, tosl, cstack
  2705 ;; Tracked objects:
  2706 ;;		On entry : 0/0
  2707 ;;		On exit  : 0/0
  2708 ;;		Unchanged: 0/0
  2709 ;; Data sizes:     COMRAM   BANK0   BANK1   BANK2   BANK3   BANK4   BANK5   BANK6   BANK7   BANK8   BANK9  BANK10  BANK1
      +1  BANK12  BANK13  BANK14  BANK15
  2710 ;;      Params:         0       0       0       0       0       0       0       0       0       0       0       0       
      +0       0       0       0       0
  2711 ;;      Locals:         0       0       0       0       0       0       0       0       0       0       0       0       
      +0       0       0       0       0
  2712 ;;      Temps:          0       0       0       0       0       0       0       0       0       0       0       0       
      +0       0       0       0       0
  2713 ;;      Totals:         0       0       0       0       0       0       0       0       0       0       0       0       
      +0       0       0       0       0
  2714 ;;Total ram usage:        0 bytes
  2715 ;; Hardware stack levels used: 1
  2716 ;; Hardware stack levels required when called: 1
  2717 ;; This function calls:
  2718 ;;		NULL
  2719 ;;		_isr
  2720 ;; This function is called by:
  2721 ;;		_InterruptMangaer
  2722 ;; This function uses a non-reentrant model
  2723 ;;
  2724                           
  2725                           	psect	text19
  2726   0018CE                     __ptext19:
  2727                           	callstack 0
  2728   0018CE                     _MSSP_I2C_ISR:
  2729                           	callstack 26
  2730   0018CE                     
  2731                           ;MCAL_Layer/I2C/hal_i2c.c: 177:     (PIR1bits.SSPIF = 0);
  2732   0018CE  969E               	bcf	158,3,c	;volatile
  2733   0018D0                     
  2734                           ;MCAL_Layer/I2C/hal_i2c.c: 178:     if(I2C_DefaultInterruptHandle){
  2735   0018D0  502B               	movf	_I2C_DefaultInterruptHandle^0,w,c
  2736   0018D2  102C               	iorwf	(_I2C_DefaultInterruptHandle+1)^0,w,c
  2737   0018D4  B4D8               	btfsc	status,2,c
  2738   0018D6  EF6F  F00C         	goto	i2u59_41
  2739   0018DA  EF71  F00C         	goto	i2u59_40
  2740   0018DE                     i2u59_41:
  2741   0018DE  EF7D  F00C         	goto	i2l988
  2742   0018E2                     i2u59_40:
  2743   0018E2                     
  2744                           ;MCAL_Layer/I2C/hal_i2c.c: 179:         I2C_DefaultInterruptHandle();
  2745   0018E2  D802               	call	i2u60_48
  2746   0018E4  EF7D  F00C         	goto	i2u60_49
  2747   0018E8                     i2u60_48:
  2748   0018E8  0005               	push	
  2749   0018EA  6EFA               	movwf	pclath,c
  2750   0018EC  502B               	movf	_I2C_DefaultInterruptHandle^0,w,c
  2751   0018EE  6EFD               	movwf	tosl,c
  2752   0018F0  502C               	movf	(_I2C_DefaultInterruptHandle+1)^0,w,c
  2753   0018F2  6EFE               	movwf	tosh,c
  2754   0018F4  6AFF               	clrf	tosu,c
  2755   0018F6  50FA               	movf	pclath,w,c
  2756   0018F8  0012               	return		;indir
  2757   0018FA                     i2u60_49:
  2758   0018FA                     i2l988:
  2759   0018FA  0012               	return		;funcret
  2760   0018FC                     __end_of_MSSP_I2C_ISR:
  2761                           	callstack 0
  2762                           
  2763 ;; *************** function _isr *****************
  2764 ;; Defined at:
  2765 ;;		line 15 in file "application.c"
  2766 ;; Parameters:    Size  Location     Type
  2767 ;;		None
  2768 ;; Auto vars:     Size  Location     Type
  2769 ;;		None
  2770 ;; Return value:  Size  Location     Type
  2771 ;;                  1    wreg      void 
  2772 ;; Registers used:
  2773 ;;		status,2, status,0
  2774 ;; Tracked objects:
  2775 ;;		On entry : 0/0
  2776 ;;		On exit  : 0/0
  2777 ;;		Unchanged: 0/0
  2778 ;; Data sizes:     COMRAM   BANK0   BANK1   BANK2   BANK3   BANK4   BANK5   BANK6   BANK7   BANK8   BANK9  BANK10  BANK1
      +1  BANK12  BANK13  BANK14  BANK15
  2779 ;;      Params:         0       0       0       0       0       0       0       0       0       0       0       0       
      +0       0       0       0       0
  2780 ;;      Locals:         0       0       0       0       0       0       0       0       0       0       0       0       
      +0       0       0       0       0
  2781 ;;      Temps:          0       0       0       0       0       0       0       0       0       0       0       0       
      +0       0       0       0       0
  2782 ;;      Totals:         0       0       0       0       0       0       0       0       0       0       0       0       
      +0       0       0       0       0
  2783 ;;Total ram usage:        0 bytes
  2784 ;; Hardware stack levels used: 1
  2785 ;; This function calls:
  2786 ;;		Nothing
  2787 ;; This function is called by:
  2788 ;;		_main
  2789 ;;		_MSSP_I2C_ISR
  2790 ;; This function uses a non-reentrant model
  2791 ;;
  2792                           
  2793                           	psect	text20
  2794   0019D0                     __ptext20:
  2795                           	callstack 0
  2796   0019D0                     _isr:
  2797                           	callstack 26
  2798   0019D0                     
  2799                           ;application.c: 16:     slave1++;
  2800   0019D0  4A01               	infsnz	_slave1^0,f,c	;volatile
  2801   0019D2  2A02               	incf	(_slave1+1)^0,f,c	;volatile
  2802   0019D4  0012               	return		;funcret
  2803   0019D6                     __end_of_isr:
  2804                           	callstack 0
  2805                           
  2806 ;; *************** function _INT2_ISR *****************
  2807 ;; Defined at:
  2808 ;;		line 81 in file "MCAL_Layer/Interrupt/mcal_external_interrupt.c"
  2809 ;; Parameters:    Size  Location     Type
  2810 ;;		None
  2811 ;; Auto vars:     Size  Location     Type
  2812 ;;		None
  2813 ;; Return value:  Size  Location     Type
  2814 ;;                  1    wreg      void 
  2815 ;; Registers used:
  2816 ;;		None
  2817 ;; Tracked objects:
  2818 ;;		On entry : 0/0
  2819 ;;		On exit  : 0/0
  2820 ;;		Unchanged: 0/0
  2821 ;; Data sizes:     COMRAM   BANK0   BANK1   BANK2   BANK3   BANK4   BANK5   BANK6   BANK7   BANK8   BANK9  BANK10  BANK1
      +1  BANK12  BANK13  BANK14  BANK15
  2822 ;;      Params:         0       0       0       0       0       0       0       0       0       0       0       0       
      +0       0       0       0       0
  2823 ;;      Locals:         0       0       0       0       0       0       0       0       0       0       0       0       
      +0       0       0       0       0
  2824 ;;      Temps:          0       0       0       0       0       0       0       0       0       0       0       0       
      +0       0       0       0       0
  2825 ;;      Totals:         0       0       0       0       0       0       0       0       0       0       0       0       
      +0       0       0       0       0
  2826 ;;Total ram usage:        0 bytes
  2827 ;; Hardware stack levels used: 1
  2828 ;; This function calls:
  2829 ;;		Nothing
  2830 ;; This function is called by:
  2831 ;;		_InterruptMangaer
  2832 ;; This function uses a non-reentrant model
  2833 ;;
  2834                           
  2835                           	psect	text21
  2836   0019D6                     __ptext21:
  2837                           	callstack 0
  2838   0019D6                     _INT2_ISR:
  2839                           	callstack 27
  2840   0019D6                     
  2841                           ;MCAL_Layer/Interrupt/mcal_external_interrupt.c: 83:     (INTCON3bits.INT2IF = 0);
  2842   0019D6  92F0               	bcf	240,1,c	;volatile
  2843   0019D8  0012               	return		;funcret
  2844   0019DA                     __end_of_INT2_ISR:
  2845                           	callstack 0
  2846                           
  2847 ;; *************** function _INT1_ISR *****************
  2848 ;; Defined at:
  2849 ;;		line 67 in file "MCAL_Layer/Interrupt/mcal_external_interrupt.c"
  2850 ;; Parameters:    Size  Location     Type
  2851 ;;		None
  2852 ;; Auto vars:     Size  Location     Type
  2853 ;;		None
  2854 ;; Return value:  Size  Location     Type
  2855 ;;                  1    wreg      void 
  2856 ;; Registers used:
  2857 ;;		None
  2858 ;; Tracked objects:
  2859 ;;		On entry : 0/0
  2860 ;;		On exit  : 0/0
  2861 ;;		Unchanged: 0/0
  2862 ;; Data sizes:     COMRAM   BANK0   BANK1   BANK2   BANK3   BANK4   BANK5   BANK6   BANK7   BANK8   BANK9  BANK10  BANK1
      +1  BANK12  BANK13  BANK14  BANK15
  2863 ;;      Params:         0       0       0       0       0       0       0       0       0       0       0       0       
      +0       0       0       0       0
  2864 ;;      Locals:         0       0       0       0       0       0       0       0       0       0       0       0       
      +0       0       0       0       0
  2865 ;;      Temps:          0       0       0       0       0       0       0       0       0       0       0       0       
      +0       0       0       0       0
  2866 ;;      Totals:         0       0       0       0       0       0       0       0       0       0       0       0       
      +0       0       0       0       0
  2867 ;;Total ram usage:        0 bytes
  2868 ;; Hardware stack levels used: 1
  2869 ;; This function calls:
  2870 ;;		Nothing
  2871 ;; This function is called by:
  2872 ;;		_InterruptMangaer
  2873 ;; This function uses a non-reentrant model
  2874 ;;
  2875                           
  2876                           	psect	text22
  2877   0019DA                     __ptext22:
  2878                           	callstack 0
  2879   0019DA                     _INT1_ISR:
  2880                           	callstack 27
  2881   0019DA                     
  2882                           ;MCAL_Layer/Interrupt/mcal_external_interrupt.c: 69:     (INTCON3bits.INT1IF = 0);
  2883   0019DA  90F0               	bcf	240,0,c	;volatile
  2884   0019DC  0012               	return		;funcret
  2885   0019DE                     __end_of_INT1_ISR:
  2886                           	callstack 0
  2887                           
  2888 ;; *************** function _INT0_ISR *****************
  2889 ;; Defined at:
  2890 ;;		line 53 in file "MCAL_Layer/Interrupt/mcal_external_interrupt.c"
  2891 ;; Parameters:    Size  Location     Type
  2892 ;;		None
  2893 ;; Auto vars:     Size  Location     Type
  2894 ;;		None
  2895 ;; Return value:  Size  Location     Type
  2896 ;;                  1    wreg      void 
  2897 ;; Registers used:
  2898 ;;		None
  2899 ;; Tracked objects:
  2900 ;;		On entry : 0/0
  2901 ;;		On exit  : 0/0
  2902 ;;		Unchanged: 0/0
  2903 ;; Data sizes:     COMRAM   BANK0   BANK1   BANK2   BANK3   BANK4   BANK5   BANK6   BANK7   BANK8   BANK9  BANK10  BANK1
      +1  BANK12  BANK13  BANK14  BANK15
  2904 ;;      Params:         0       0       0       0       0       0       0       0       0       0       0       0       
      +0       0       0       0       0
  2905 ;;      Locals:         0       0       0       0       0       0       0       0       0       0       0       0       
      +0       0       0       0       0
  2906 ;;      Temps:          0       0       0       0       0       0       0       0       0       0       0       0       
      +0       0       0       0       0
  2907 ;;      Totals:         0       0       0       0       0       0       0       0       0       0       0       0       
      +0       0       0       0       0
  2908 ;;Total ram usage:        0 bytes
  2909 ;; Hardware stack levels used: 1
  2910 ;; This function calls:
  2911 ;;		Nothing
  2912 ;; This function is called by:
  2913 ;;		_InterruptMangaer
  2914 ;; This function uses a non-reentrant model
  2915 ;;
  2916                           
  2917                           	psect	text23
  2918   0019DE                     __ptext23:
  2919                           	callstack 0
  2920   0019DE                     _INT0_ISR:
  2921                           	callstack 27
  2922   0019DE                     
  2923                           ;MCAL_Layer/Interrupt/mcal_external_interrupt.c: 55:     (INTCONbits.INT0IF = 0);
  2924   0019DE  92F2               	bcf	242,1,c	;volatile
  2925   0019E0  0012               	return		;funcret
  2926   0019E2                     __end_of_INT0_ISR:
  2927                           	callstack 0
  2928                           
  2929 ;; *************** function _EUSART_TX_ISR *****************
  2930 ;; Defined at:
  2931 ;;		line 255 in file "MCAL_Layer/ESUART/hal_usart.c"
  2932 ;; Parameters:    Size  Location     Type
  2933 ;;		None
  2934 ;; Auto vars:     Size  Location     Type
  2935 ;;		None
  2936 ;; Return value:  Size  Location     Type
  2937 ;;                  1    wreg      void 
  2938 ;; Registers used:
  2939 ;;		None
  2940 ;; Tracked objects:
  2941 ;;		On entry : 0/0
  2942 ;;		On exit  : 0/0
  2943 ;;		Unchanged: 0/0
  2944 ;; Data sizes:     COMRAM   BANK0   BANK1   BANK2   BANK3   BANK4   BANK5   BANK6   BANK7   BANK8   BANK9  BANK10  BANK1
      +1  BANK12  BANK13  BANK14  BANK15
  2945 ;;      Params:         0       0       0       0       0       0       0       0       0       0       0       0       
      +0       0       0       0       0
  2946 ;;      Locals:         0       0       0       0       0       0       0       0       0       0       0       0       
      +0       0       0       0       0
  2947 ;;      Temps:          0       0       0       0       0       0       0       0       0       0       0       0       
      +0       0       0       0       0
  2948 ;;      Totals:         0       0       0       0       0       0       0       0       0       0       0       0       
      +0       0       0       0       0
  2949 ;;Total ram usage:        0 bytes
  2950 ;; Hardware stack levels used: 1
  2951 ;; This function calls:
  2952 ;;		Nothing
  2953 ;; This function is called by:
  2954 ;;		_InterruptMangaer
  2955 ;; This function uses a non-reentrant model
  2956 ;;
  2957                           
  2958                           	psect	text24
  2959   0019E2                     __ptext24:
  2960                           	callstack 0
  2961   0019E2                     _EUSART_TX_ISR:
  2962                           	callstack 27
  2963   0019E2                     
  2964                           ;MCAL_Layer/ESUART/hal_usart.c: 256:     (PIE1bits.TXIE = 0);
  2965   0019E2  989D               	bcf	157,4,c	;volatile
  2966   0019E4  0012               	return		;funcret
  2967   0019E6                     __end_of_EUSART_TX_ISR:
  2968                           	callstack 0
  2969                           
  2970 ;; *************** function _EUSART_RX_ISR *****************
  2971 ;; Defined at:
  2972 ;;		line 268 in file "MCAL_Layer/ESUART/hal_usart.c"
  2973 ;; Parameters:    Size  Location     Type
  2974 ;;		None
  2975 ;; Auto vars:     Size  Location     Type
  2976 ;;		None
  2977 ;; Return value:  Size  Location     Type
  2978 ;;                  1    wreg      void 
  2979 ;; Registers used:
  2980 ;;		wreg, status,2, status,0
  2981 ;; Tracked objects:
  2982 ;;		On entry : 0/0
  2983 ;;		On exit  : 0/0
  2984 ;;		Unchanged: 0/0
  2985 ;; Data sizes:     COMRAM   BANK0   BANK1   BANK2   BANK3   BANK4   BANK5   BANK6   BANK7   BANK8   BANK9  BANK10  BANK1
      +1  BANK12  BANK13  BANK14  BANK15
  2986 ;;      Params:         0       0       0       0       0       0       0       0       0       0       0       0       
      +0       0       0       0       0
  2987 ;;      Locals:         0       0       0       0       0       0       0       0       0       0       0       0       
      +0       0       0       0       0
  2988 ;;      Temps:          0       0       0       0       0       0       0       0       0       0       0       0       
      +0       0       0       0       0
  2989 ;;      Totals:         0       0       0       0       0       0       0       0       0       0       0       0       
      +0       0       0       0       0
  2990 ;;Total ram usage:        0 bytes
  2991 ;; Hardware stack levels used: 1
  2992 ;; This function calls:
  2993 ;;		Nothing
  2994 ;; This function is called by:
  2995 ;;		_InterruptMangaer
  2996 ;; This function uses a non-reentrant model
  2997 ;;
  2998                           
  2999                           	psect	text25
  3000   0019F0                     __ptext25:
  3001                           	callstack 0
  3002   0019F0                     _EUSART_RX_ISR:
  3003                           	callstack 27
  3004   0019F0  0012               	return		;funcret
  3005   0019F2                     __end_of_EUSART_RX_ISR:
  3006                           	callstack 0
  3007                           
  3008 ;; *************** function _CCP2_ISR *****************
  3009 ;; Defined at:
  3010 ;;		line 346 in file "MCAL_Layer/CCP/hal_cpp.c"
  3011 ;; Parameters:    Size  Location     Type
  3012 ;;		None
  3013 ;; Auto vars:     Size  Location     Type
  3014 ;;		None
  3015 ;; Return value:  Size  Location     Type
  3016 ;;                  1    wreg      void 
  3017 ;; Registers used:
  3018 ;;		None
  3019 ;; Tracked objects:
  3020 ;;		On entry : 0/0
  3021 ;;		On exit  : 0/0
  3022 ;;		Unchanged: 0/0
  3023 ;; Data sizes:     COMRAM   BANK0   BANK1   BANK2   BANK3   BANK4   BANK5   BANK6   BANK7   BANK8   BANK9  BANK10  BANK1
      +1  BANK12  BANK13  BANK14  BANK15
  3024 ;;      Params:         0       0       0       0       0       0       0       0       0       0       0       0       
      +0       0       0       0       0
  3025 ;;      Locals:         0       0       0       0       0       0       0       0       0       0       0       0       
      +0       0       0       0       0
  3026 ;;      Temps:          0       0       0       0       0       0       0       0       0       0       0       0       
      +0       0       0       0       0
  3027 ;;      Totals:         0       0       0       0       0       0       0       0       0       0       0       0       
      +0       0       0       0       0
  3028 ;;Total ram usage:        0 bytes
  3029 ;; Hardware stack levels used: 1
  3030 ;; This function calls:
  3031 ;;		Nothing
  3032 ;; This function is called by:
  3033 ;;		_InterruptMangaer
  3034 ;; This function uses a non-reentrant model
  3035 ;;
  3036                           
  3037                           	psect	text26
  3038   0019E6                     __ptext26:
  3039                           	callstack 0
  3040   0019E6                     _CCP2_ISR:
  3041                           	callstack 27
  3042   0019E6                     
  3043                           ;MCAL_Layer/CCP/hal_cpp.c: 347:     (PIR2bits.CCP2IF = 0);
  3044   0019E6  90A1               	bcf	161,0,c	;volatile
  3045   0019E8  0012               	return		;funcret
  3046   0019EA                     __end_of_CCP2_ISR:
  3047                           	callstack 0
  3048                           
  3049 ;; *************** function _CCP1_ISR *****************
  3050 ;; Defined at:
  3051 ;;		line 338 in file "MCAL_Layer/CCP/hal_cpp.c"
  3052 ;; Parameters:    Size  Location     Type
  3053 ;;		None
  3054 ;; Auto vars:     Size  Location     Type
  3055 ;;		None
  3056 ;; Return value:  Size  Location     Type
  3057 ;;                  1    wreg      void 
  3058 ;; Registers used:
  3059 ;;		None
  3060 ;; Tracked objects:
  3061 ;;		On entry : 0/0
  3062 ;;		On exit  : 0/0
  3063 ;;		Unchanged: 0/0
  3064 ;; Data sizes:     COMRAM   BANK0   BANK1   BANK2   BANK3   BANK4   BANK5   BANK6   BANK7   BANK8   BANK9  BANK10  BANK1
      +1  BANK12  BANK13  BANK14  BANK15
  3065 ;;      Params:         0       0       0       0       0       0       0       0       0       0       0       0       
      +0       0       0       0       0
  3066 ;;      Locals:         0       0       0       0       0       0       0       0       0       0       0       0       
      +0       0       0       0       0
  3067 ;;      Temps:          0       0       0       0       0       0       0       0       0       0       0       0       
      +0       0       0       0       0
  3068 ;;      Totals:         0       0       0       0       0       0       0       0       0       0       0       0       
      +0       0       0       0       0
  3069 ;;Total ram usage:        0 bytes
  3070 ;; Hardware stack levels used: 1
  3071 ;; This function calls:
  3072 ;;		Nothing
  3073 ;; This function is called by:
  3074 ;;		_InterruptMangaer
  3075 ;; This function uses a non-reentrant model
  3076 ;;
  3077                           
  3078                           	psect	text27
  3079   0019EA                     __ptext27:
  3080                           	callstack 0
  3081   0019EA                     _CCP1_ISR:
  3082                           	callstack 27
  3083   0019EA                     
  3084                           ;MCAL_Layer/CCP/hal_cpp.c: 339:     (PIR1bits.CCP1IF = 0);
  3085   0019EA  949E               	bcf	158,2,c	;volatile
  3086   0019EC  0012               	return		;funcret
  3087   0019EE                     __end_of_CCP1_ISR:
  3088                           	callstack 0
  3089                           
  3090                           	psect	rparam
  3091   000000                     
  3092                           	psect	temp
  3093   000078                     btemp:
  3094                           	callstack 0
  3095   000078                     	ds	1
  3096   000000                     int$flags	set	btemp
  3097   000000                     wtemp8	set	btemp+1
  3098   000000                     ttemp5	set	btemp+1
  3099   000000                     ttemp6	set	btemp+4
  3100   000000                     ttemp7	set	btemp+8
  3101                           
  3102                           	psect	config
  3103                           
  3104                           ; Padding undefined space
  3105   300000                     	org	3145728
  3106   300000  FF                 	db	255
  3107                           
  3108                           ;Config register CONFIG1H @ 0x300001
  3109                           ;	Oscillator Selection bits
  3110                           ;	OSC = HS, HS oscillator
  3111                           ;	Fail-Safe Clock Monitor Enable bit
  3112                           ;	FCMEN = OFF, Fail-Safe Clock Monitor disabled
  3113                           ;	Internal/External Oscillator Switchover bit
  3114                           ;	IESO = OFF, Oscillator Switchover mode disabled
  3115   300001                     	org	3145729
  3116   300001  02                 	db	2
  3117                           
  3118                           ;Config register CONFIG2L @ 0x300002
  3119                           ;	Power-up Timer Enable bit
  3120                           ;	PWRT = OFF, PWRT disabled
  3121                           ;	Brown-out Reset Enable bits
  3122                           ;	BOREN = OFF, Brown-out Reset disabled in hardware and software
  3123                           ;	Brown Out Reset Voltage bits
  3124                           ;	BORV = 1, 
  3125   300002                     	org	3145730
  3126   300002  09                 	db	9
  3127                           
  3128                           ;Config register CONFIG2H @ 0x300003
  3129                           ;	Watchdog Timer Enable bit
  3130                           ;	WDT = OFF, WDT disabled (control is placed on the SWDTEN bit)
  3131                           ;	Watchdog Timer Postscale Select bits
  3132                           ;	WDTPS = 32768, 1:32768
  3133   300003                     	org	3145731
  3134   300003  1E                 	db	30
  3135                           
  3136                           ; Padding undefined space
  3137   300004                     	org	3145732
  3138   300004  FF                 	db	255
  3139                           
  3140                           ;Config register CONFIG3H @ 0x300005
  3141                           ;	CCP2 MUX bit
  3142                           ;	CCP2MX = PORTC, CCP2 input/output is multiplexed with RC1
  3143                           ;	PORTB A/D Enable bit
  3144                           ;	PBADEN = OFF, PORTB<4:0> pins are configured as digital I/O on Reset
  3145                           ;	Low-Power Timer1 Oscillator Enable bit
  3146                           ;	LPT1OSC = OFF, Timer1 configured for higher power operation
  3147                           ;	MCLR Pin Enable bit
  3148                           ;	MCLRE = ON, MCLR pin enabled; RE3 input pin disabled
  3149   300005                     	org	3145733
  3150   300005  81                 	db	129
  3151                           
  3152                           ;Config register CONFIG4L @ 0x300006
  3153                           ;	Stack Full/Underflow Reset Enable bit
  3154                           ;	STVREN = ON, Stack full/underflow will cause Reset
  3155                           ;	Single-Supply ICSP Enable bit
  3156                           ;	LVP = OFF, Single-Supply ICSP disabled
  3157                           ;	Extended Instruction Set Enable bit
  3158                           ;	XINST = OFF, Instruction set extension and Indexed Addressing mode disabled (Legacy mo
      +                          de)
  3159                           ;	Background Debugger Enable bit
  3160                           ;	DEBUG = 0x1, unprogrammed default
  3161   300006                     	org	3145734
  3162   300006  81                 	db	129
  3163                           
  3164                           ; Padding undefined space
  3165   300007                     	org	3145735
  3166   300007  FF                 	db	255
  3167                           
  3168                           ;Config register CONFIG5L @ 0x300008
  3169                           ;	Code Protection bit
  3170                           ;	CP0 = OFF, Block 0 (000800-003FFFh) not code-protected
  3171                           ;	Code Protection bit
  3172                           ;	CP1 = OFF, Block 1 (004000-007FFFh) not code-protected
  3173                           ;	Code Protection bit
  3174                           ;	CP2 = OFF, Block 2 (008000-00BFFFh) not code-protected
  3175                           ;	Code Protection bit
  3176                           ;	CP3 = OFF, Block 3 (00C000-00FFFFh) not code-protected
  3177   300008                     	org	3145736
  3178   300008  0F                 	db	15
  3179                           
  3180                           ;Config register CONFIG5H @ 0x300009
  3181                           ;	Boot Block Code Protection bit
  3182                           ;	CPB = OFF, Boot block (000000-0007FFh) not code-protected
  3183                           ;	Data EEPROM Code Protection bit
  3184                           ;	CPD = OFF, Data EEPROM not code-protected
  3185   300009                     	org	3145737
  3186   300009  C0                 	db	192
  3187                           
  3188                           ;Config register CONFIG6L @ 0x30000A
  3189                           ;	Write Protection bit
  3190                           ;	WRT0 = OFF, Block 0 (000800-003FFFh) not write-protected
  3191                           ;	Write Protection bit
  3192                           ;	WRT1 = OFF, Block 1 (004000-007FFFh) not write-protected
  3193                           ;	Write Protection bit
  3194                           ;	WRT2 = OFF, Block 2 (008000-00BFFFh) not write-protected
  3195                           ;	Write Protection bit
  3196                           ;	WRT3 = OFF, Block 3 (00C000-00FFFFh) not write-protected
  3197   30000A                     	org	3145738
  3198   30000A  0F                 	db	15
  3199                           
  3200                           ;Config register CONFIG6H @ 0x30000B
  3201                           ;	Configuration Register Write Protection bit
  3202                           ;	WRTC = OFF, Configuration registers (300000-3000FFh) not write-protected
  3203                           ;	Boot Block Write Protection bit
  3204                           ;	WRTB = OFF, Boot Block (000000-0007FFh) not write-protected
  3205                           ;	Data EEPROM Write Protection bit
  3206                           ;	WRTD = OFF, Data EEPROM not write-protected
  3207   30000B                     	org	3145739
  3208   30000B  E0                 	db	224
  3209                           
  3210                           ;Config register CONFIG7L @ 0x30000C
  3211                           ;	Table Read Protection bit
  3212                           ;	EBTR0 = OFF, Block 0 (000800-003FFFh) not protected from table reads executed in other
      +                           blocks
  3213                           ;	Table Read Protection bit
  3214                           ;	EBTR1 = OFF, Block 1 (004000-007FFFh) not protected from table reads executed in other
      +                           blocks
  3215                           ;	Table Read Protection bit
  3216                           ;	EBTR2 = OFF, Block 2 (008000-00BFFFh) not protected from table reads executed in other
      +                           blocks
  3217                           ;	Table Read Protection bit
  3218                           ;	EBTR3 = OFF, Block 3 (00C000-00FFFFh) not protected from table reads executed in other
      +                           blocks
  3219   30000C                     	org	3145740
  3220   30000C  0F                 	db	15
  3221                           
  3222                           ;Config register CONFIG7H @ 0x30000D
  3223                           ;	Boot Block Table Read Protection bit
  3224                           ;	EBTRB = OFF, Boot Block (000000-0007FFh) not protected from table reads executed in ot
      +                          her blocks
  3225   30000D                     	org	3145741
  3226   30000D  40                 	db	64
  3227                           tosu	equ	0xFFF
  3228                           tosh	equ	0xFFE
  3229                           tosl	equ	0xFFD
  3230                           stkptr	equ	0xFFC
  3231                           pclatu	equ	0xFFB
  3232                           pclath	equ	0xFFA
  3233                           pcl	equ	0xFF9
  3234                           tblptru	equ	0xFF8
  3235                           tblptrh	equ	0xFF7
  3236                           tblptrl	equ	0xFF6
  3237                           tablat	equ	0xFF5
  3238                           prodh	equ	0xFF4
  3239                           prodl	equ	0xFF3
  3240                           indf0	equ	0xFEF
  3241                           postinc0	equ	0xFEE
  3242                           postdec0	equ	0xFED
  3243                           preinc0	equ	0xFEC
  3244                           plusw0	equ	0xFEB
  3245                           fsr0h	equ	0xFEA
  3246                           fsr0l	equ	0xFE9
  3247                           wreg	equ	0xFE8
  3248                           indf1	equ	0xFE7
  3249                           postinc1	equ	0xFE6
  3250                           postdec1	equ	0xFE5
  3251                           preinc1	equ	0xFE4
  3252                           plusw1	equ	0xFE3
  3253                           fsr1h	equ	0xFE2
  3254                           fsr1l	equ	0xFE1
  3255                           bsr	equ	0xFE0
  3256                           indf2	equ	0xFDF
  3257                           postinc2	equ	0xFDE
  3258                           postdec2	equ	0xFDD
  3259                           preinc2	equ	0xFDC
  3260                           plusw2	equ	0xFDB
  3261                           fsr2h	equ	0xFDA
  3262                           fsr2l	equ	0xFD9
  3263                           status	equ	0xFD8

Data Sizes:
    Strings     6
    Constant    0
    Data        53
    BSS         79
    Persistent  1
    Stack       0

Auto Spaces:
    Space          Size  Autos    Used
    COMRAM          126     22     119
    BANK0           128      0      36
    BANK1           256      0       0
    BANK2           256      0       0
    BANK3           256      0       0
    BANK4           256      0       0
    BANK5           256      0       0
    BANK6           256      0       0
    BANK7           256      0       0
    BANK8           256      0       0
    BANK9           256      0       0
    BANK10          256      0       0
    BANK11          256      0       0
    BANK12          256      0       0
    BANK13          256      0       0
    BANK14          256      0       0
    BANK15          128      0       0

Pointer List with Targets:

    ADC_Get_Conversion_Result@adc$adc_isr	PTR FTN()void  size(2) Largest target is 0

    ADC_Init@adc$adc_isr	PTR FTN()void  size(2) Largest target is 0

    ADC_Select_Channel@adc$adc_isr	PTR FTN()void  size(2) Largest target is 0

    CCP_Capture_Config@ccp$Interrupt_CCP1_Handler	PTR FTN()void  size(2) Largest target is 0

    CCP_Capture_Config@ccp$Interrupt_CCP2_Handler	PTR FTN()void  size(2) Largest target is 0

    CCP_Compare_Config@ccp$Interrupt_CCP1_Handler	PTR FTN()void  size(2) Largest target is 0

    CCP_Compare_Config@ccp$Interrupt_CCP2_Handler	PTR FTN()void  size(2) Largest target is 0

    CCP_DeInit@ccp$Interrupt_CCP1_Handler	PTR FTN()void  size(2) Largest target is 0

    CCP_DeInit@ccp$Interrupt_CCP2_Handler	PTR FTN()void  size(2) Largest target is 0

    CCP_Init@ccp$Interrupt_CCP1_Handler	PTR FTN()void  size(2) Largest target is 0

    CCP_Init@ccp$Interrupt_CCP2_Handler	PTR FTN()void  size(2) Largest target is 0

    CCP_Interrupt_Config@ccp$Interrupt_CCP1_Handler	PTR FTN()void  size(2) Largest target is 0

    CCP_Interrupt_Config@ccp$Interrupt_CCP2_Handler	PTR FTN()void  size(2) Largest target is 0

    CCP_PWM_Config@ccp$Interrupt_CCP1_Handler	PTR FTN()void  size(2) Largest target is 0

    CCP_PWM_Config@ccp$Interrupt_CCP2_Handler	PTR FTN()void  size(2) Largest target is 0

    CCP_PWM_Set_Duty@ccp$Interrupt_CCP1_Handler	PTR FTN()void  size(2) Largest target is 0

    CCP_PWM_Set_Duty@ccp$Interrupt_CCP2_Handler	PTR FTN()void  size(2) Largest target is 0

    CCP_PWM_Start@ccp$Interrupt_CCP1_Handler	PTR FTN()void  size(2) Largest target is 0

    CCP_PWM_Start@ccp$Interrupt_CCP2_Handler	PTR FTN()void  size(2) Largest target is 0

    CCP_PWM_Stop@ccp$Interrupt_CCP1_Handler	PTR FTN()void  size(2) Largest target is 0

    CCP_PWM_Stop@ccp$Interrupt_CCP2_Handler	PTR FTN()void  size(2) Largest target is 0

    ESUART_ASYNC_BAUD_RATE@usart$EUSART_FramingErrorHandler	PTR FTN()void  size(2) Largest target is 0

    ESUART_ASYNC_BAUD_RATE@usart$EUSART_OverrunErrorHandler	PTR FTN()void  size(2) Largest target is 0

    ESUART_ASYNC_BAUD_RATE@usart$EUSART_RxDefaultInterruptHandler	PTR FTN()void  size(2) Largest target is 0

    ESUART_ASYNC_BAUD_RATE@usart$EUSART_TxDefaultInterruptHandler	PTR FTN()void  size(2) Largest target is 0

    ESUART_ASYNC_RX_INIT@usart$EUSART_FramingErrorHandler	PTR FTN()void  size(2) Largest target is 0

    ESUART_ASYNC_RX_INIT@usart$EUSART_OverrunErrorHandler	PTR FTN()void  size(2) Largest target is 0

    ESUART_ASYNC_RX_INIT@usart$EUSART_RxDefaultInterruptHandler	PTR FTN()void  size(2) Largest target is 0

    ESUART_ASYNC_RX_INIT@usart$EUSART_TxDefaultInterruptHandler	PTR FTN()void  size(2) Largest target is 0

    ESUART_ASYNC_TX_INIT@usart$EUSART_FramingErrorHandler	PTR FTN()void  size(2) Largest target is 0

    ESUART_ASYNC_TX_INIT@usart$EUSART_OverrunErrorHandler	PTR FTN()void  size(2) Largest target is 0

    ESUART_ASYNC_TX_INIT@usart$EUSART_RxDefaultInterruptHandler	PTR FTN()void  size(2) Largest target is 0

    ESUART_ASYNC_TX_INIT@usart$EUSART_TxDefaultInterruptHandler	PTR FTN()void  size(2) Largest target is 0

    EUSART_FramingErrorHandler	PTR FTN()void  size(2) Largest target is 1
		 -> NULL(), 

    EUSART_OverrunErrorHandler	PTR FTN()void  size(2) Largest target is 1
		 -> NULL(), 

    EUSART_RxInterruptHandler	PTR FTN()void  size(2) Largest target is 1
		 -> NULL(), 

    EUSART_TxInterruptHandler	PTR FTN()void  size(2) Largest target is 1
		 -> NULL(), 

    f$.$buffer	PTR unsigned char  size(2) Largest target is 0

    f$.$source	PTR const unsigned char  size(2) Largest target is 0

    i2c$I2C_DefaultInterruptHandler	PTR FTN()void  size(2) Largest target is 1
		 -> isr(), 

    i2c$I2C_Report_Receive_Overflow	PTR FTN()void  size(2) Largest target is 0

    i2c$I2C_Report_Write_Collision	PTR FTN()void  size(2) Largest target is 0

    I2C_DefaultInterruptHandle	PTR FTN()void  size(2) Largest target is 1
		 -> isr(), NULL(), 

    I2C_Report_Receive_Overflow_InterruptHandle	PTR FTN()void  size(2) Largest target is 2
		 -> i2c$I2C_Report_Receive_Overflow(COMRAM[2]), NULL(), 

    I2C_Report_Write_Collision_InterruptHandler	PTR FTN()void  size(2) Largest target is 2
		 -> i2c$I2C_Report_Write_Collision(COMRAM[2]), NULL(), 

    INT0_INTERRUPTHANDLER	PTR FTN()void  size(2) Largest target is 1
		 -> NULL(), 

    INT1_INTERRUPTHANDLER	PTR FTN()void  size(2) Largest target is 1
		 -> NULL(), 

    INT2_INTERRUPTHANDLER	PTR FTN()void  size(2) Largest target is 1
		 -> NULL(), 

    Interrupt_Handler_CCP1	PTR FTN()void  size(2) Largest target is 1
		 -> NULL(), 

    Interrupt_Handler_CCP2	PTR FTN()void  size(2) Largest target is 1
		 -> NULL(), 

    Interrupt_INTx_Clear_Flag@int_obj$EXT_INTERRUPT_HANDLER	PTR FTN()void  size(2) Largest target is 0

    Interrupt_INTx_Disable@int_obj$EXT_INTERRUPT_HANDLER	PTR FTN()void  size(2) Largest target is 0

    Interrupt_INTx_Edge_Src@int_obj$EXT_INTERRUPT_HANDLER	PTR FTN()void  size(2) Largest target is 0

    Interrupt_INTx_Enable@int_obj$EXT_INTERRUPT_HANDLER	PTR FTN()void  size(2) Largest target is 0

    Interrupt_INTx_Pin_Init@int_obj$EXT_INTERRUPT_HANDLER	PTR FTN()void  size(2) Largest target is 0

    Interrupt_RBx_Init@int_obj$EXT_INTERRUPT_HANDLER_HIGH	PTR FTN()void  size(2) Largest target is 0

    Interrupt_RBx_Init@int_obj$EXT_INTERRUPT_HANDLER_LOW	PTR FTN()void  size(2) Largest target is 0

    ISR_TIMER0	PTR FTN()void  size(2) Largest target is 1
		 -> NULL(), 

    lat_registers	PTR volatile unsigned char [5] size(2) Largest target is 1
		 -> LATA(BITBIGSFRllll[1]), LATB(BITBIGSFRlllh[1]), LATC(BITBIGSFRlllh[1]), LATD(BITBIGSFRlllh[1]), 
		 -> LATE(BITBIGSFRlllh[1]), 

    MSSP_I2C_INIT@i2c	PTR const struct . size(1) Largest target is 11
		 -> i2c(COMRAM[11]), 

    MSSP_I2C_INIT@i2c$I2C_DefaultInterruptHandler	PTR FTN()void  size(2) Largest target is 1
		 -> isr(), 

    MSSP_I2C_INIT@i2c$I2C_Report_Receive_Overflow	PTR FTN()void  size(2) Largest target is 0

    MSSP_I2C_INIT@i2c$I2C_Report_Write_Collision	PTR FTN()void  size(2) Largest target is 0

    MSSP_I2C_Interrupt_Configurations@i2c	PTR const struct . size(1) Largest target is 11
		 -> i2c(COMRAM[11]), 

    MSSP_I2C_Interrupt_Configurations@i2c$I2C_DefaultInterruptHandler	PTR FTN()void  size(2) Largest target is 1
		 -> isr(), 

    MSSP_I2C_Interrupt_Configurations@i2c$I2C_Report_Receive_Overflow	PTR FTN()void  size(2) Largest target is 0

    MSSP_I2C_Interrupt_Configurations@i2c$I2C_Report_Write_Collision	PTR FTN()void  size(2) Largest target is 0

    MSSP_I2C_MASTER_WRITE_BLOCKING@ack	PTR unsigned char  size(1) Largest target is 1
		 -> ack(COMRAM[1]), 

    MSSP_I2C_MASTER_WRITE_BLOCKING@i2c	PTR const struct . size(1) Largest target is 11
		 -> i2c(COMRAM[11]), 

    MSSP_I2C_SEND_START@i2c	PTR const struct . size(1) Largest target is 11
		 -> i2c(COMRAM[11]), 

    MSSP_I2C_SEND_STOP@i2c	PTR const struct . size(1) Largest target is 11
		 -> i2c(COMRAM[11]), 

    port_registers	PTR volatile unsigned char [5] size(2) Largest target is 1
		 -> PORTA(BITBIGSFRllll[1]), PORTB(BITBIGSFRllll[1]), PORTC(BITBIGSFRllll[1]), PORTD(BITBIGSFRllll[1]), 
		 -> PORTE(BITBIGSFRllll[1]), 

    RB4_INTERRUPTHANDLERHIGH	PTR FTN()void  size(2) Largest target is 1
		 -> NULL(), 

    RB4_INTERRUPTHANDLERLOW	PTR FTN()void  size(2) Largest target is 1
		 -> NULL(), 

    RB5_INTERRUPTHANDLERHIGH	PTR FTN()void  size(2) Largest target is 1
		 -> NULL(), 

    RB5_INTERRUPTHANDLERLOW	PTR FTN()void  size(2) Largest target is 1
		 -> NULL(), 

    RB6_INTERRUPTHANDLERHIGH	PTR FTN()void  size(2) Largest target is 1
		 -> NULL(), 

    RB6_INTERRUPTHANDLERLOW	PTR FTN()void  size(2) Largest target is 1
		 -> NULL(), 

    RB7_INTERRUPTHANDLERHIGH	PTR FTN()void  size(2) Largest target is 1
		 -> NULL(), 

    RB7_INTERRUPTHANDLERLOW	PTR FTN()void  size(2) Largest target is 1
		 -> NULL(), 

    S1071$Interrupt_CCP1_Handler	PTR FTN()void  size(2) Largest target is 0

    S1071$Interrupt_CCP2_Handler	PTR FTN()void  size(2) Largest target is 0

    S1702$EUSART_FramingErrorHandler	PTR FTN()void  size(2) Largest target is 0

    S1702$EUSART_OverrunErrorHandler	PTR FTN()void  size(2) Largest target is 0

    S1702$EUSART_RxDefaultInterruptHandler	PTR FTN()void  size(2) Largest target is 0

    S1702$EUSART_TxDefaultInterruptHandler	PTR FTN()void  size(2) Largest target is 0

    S2229$I2C_DefaultInterruptHandler	PTR FTN()void  size(2) Largest target is 1
		 -> isr(), 

    S2229$I2C_Report_Receive_Overflow	PTR FTN()void  size(2) Largest target is 0

    S2229$I2C_Report_Write_Collision	PTR FTN()void  size(2) Largest target is 0

    S2639$EXT_INTERRUPT_HANDLER	PTR FTN()void  size(2) Largest target is 0

    S2755$EXT_INTERRUPT_HANDLER_HIGH	PTR FTN()void  size(2) Largest target is 0

    S2755$EXT_INTERRUPT_HANDLER_LOW	PTR FTN()void  size(2) Largest target is 0

    S3298$TIMER0_HANDLER	PTR FTN()void  size(2) Largest target is 0

    S3446$TIMER1_HANDLER	PTR FTN()void  size(2) Largest target is 0

    S3627$TIMER2_HANDLER	PTR FTN()void  size(2) Largest target is 0

    S3739$TIMER3_HANDLER	PTR FTN()void  size(2) Largest target is 0

    S4404$buffer	PTR unsigned char  size(2) Largest target is 0

    S4404$source	PTR const unsigned char  size(2) Largest target is 0

    S707$adc_isr	PTR FTN()void  size(2) Largest target is 0

    send_i2c@i2c	PTR struct . size(1) Largest target is 11
		 -> i2c(COMRAM[11]), 

    Set_Interrupt_Handler@int_obj$EXT_INTERRUPT_HANDLER	PTR FTN()void  size(2) Largest target is 0

    sp__memset	PTR void  size(2) Largest target is 0

    TIMER0_INIT@timer$TIMER0_HANDLER	PTR FTN()void  size(2) Largest target is 0

    TIMER0_MODE_SELECT@timer$TIMER0_HANDLER	PTR FTN()void  size(2) Largest target is 0

    TIMER0_PRESCALER_CFG@timer$TIMER0_HANDLER	PTR FTN()void  size(2) Largest target is 0

    TIMER0_Size_SELECT@timer$TIMER0_HANDLER	PTR FTN()void  size(2) Largest target is 0

    TIMER1_INIT@timer$TIMER1_HANDLER	PTR FTN()void  size(2) Largest target is 0

    TIMER1_MODE_SELECT@timer$TIMER1_HANDLER	PTR FTN()void  size(2) Largest target is 0

    TIMER1_SIZE_SELECT@timer$TIMER1_HANDLER	PTR FTN()void  size(2) Largest target is 0

    TIMER2_INIT@timer$TIMER2_HANDLER	PTR FTN()void  size(2) Largest target is 0

    TIMER2_Write_Value@timer$TIMER2_HANDLER	PTR FTN()void  size(2) Largest target is 0

    TIMER3_INIT@timer$TIMER3_HANDLER	PTR FTN()void  size(2) Largest target is 0

    TIMER3_MODE_SELECT@timer$TIMER3_HANDLER	PTR FTN()void  size(2) Largest target is 0

    TIMER3_SIZE_SELECT@timer$TIMER3_HANDLER	PTR FTN()void  size(2) Largest target is 0

    TMR1_HANDLER	PTR FTN()void  size(2) Largest target is 1
		 -> NULL(), 

    TMR2_HANDLER	PTR FTN()void  size(2) Largest target is 1
		 -> NULL(), 

    TMR3_HANDLER	PTR FTN()void  size(2) Largest target is 1
		 -> NULL(), 

    tris_registers	PTR volatile unsigned char [5] size(2) Largest target is 1
		 -> TRISA(BITBIGSFRllll[1]), TRISB(ABS[1]), TRISC(SFR[1]), TRISD(ABS[1]), 
		 -> TRISE(ABS[1]), 

    vfprintf$0	PTR struct _IO_FILE size(1) Largest target is 12
		 -> sprintf@f(COMRAM[12]), 

    vfprintf$1	PTR const unsigned char  size(1) Largest target is 3
		 -> STR_1(CODE[3]), STR_2(CODE[3]), STR_3(CODE[3]), 

    vfprintf$2	PTR PTR void  size(1) Largest target is 1
		 -> sprintf@ap(COMRAM[1]), 


Critical Paths under _main in COMRAM

    _main->_MSSP_I2C_INIT
    _send_i2c->_MSSP_I2C_MASTER_WRITE_BLOCKING
    _MSSP_I2C_INIT->___aldiv

Critical Paths under _InterruptMangaer in COMRAM

    _InterruptMangaer->_RB4_ISR
    _InterruptMangaer->_RB5_ISR
    _InterruptMangaer->_RB6_ISR
    _InterruptMangaer->_RB7_ISR

Critical Paths under _main in BANK0

    None.

Critical Paths under _InterruptMangaer in BANK0

    None.

Critical Paths under _main in BANK1

    None.

Critical Paths under _InterruptMangaer in BANK1

    None.

Critical Paths under _main in BANK2

    None.

Critical Paths under _InterruptMangaer in BANK2

    None.

Critical Paths under _main in BANK3

    None.

Critical Paths under _InterruptMangaer in BANK3

    None.

Critical Paths under _main in BANK4

    None.

Critical Paths under _InterruptMangaer in BANK4

    None.

Critical Paths under _main in BANK5

    None.

Critical Paths under _InterruptMangaer in BANK5

    None.

Critical Paths under _main in BANK6

    None.

Critical Paths under _InterruptMangaer in BANK6

    None.

Critical Paths under _main in BANK7

    None.

Critical Paths under _InterruptMangaer in BANK7

    None.

Critical Paths under _main in BANK8

    None.

Critical Paths under _InterruptMangaer in BANK8

    None.

Critical Paths under _main in BANK9

    None.

Critical Paths under _InterruptMangaer in BANK9

    None.

Critical Paths under _main in BANK10

    None.

Critical Paths under _InterruptMangaer in BANK10

    None.

Critical Paths under _main in BANK11

    None.

Critical Paths under _InterruptMangaer in BANK11

    None.

Critical Paths under _main in BANK12

    None.

Critical Paths under _InterruptMangaer in BANK12

    None.

Critical Paths under _main in BANK13

    None.

Critical Paths under _InterruptMangaer in BANK13

    None.

Critical Paths under _main in BANK14

    None.

Critical Paths under _InterruptMangaer in BANK14

    None.

Critical Paths under _main in BANK15

    None.

Critical Paths under _InterruptMangaer in BANK15

    None.

Call Graph Tables:

 ---------------------------------------------------------------------------------
 (Depth) Function   	        Calls       Base Space   Used Autos Params    Refs
 ---------------------------------------------------------------------------------
 (0) _main                                                 2     2      0    2744
                                             20 COMRAM     2     2      0
                      _MSSP_I2C_INIT
             _application_initialize
                           _send_i2c
 ---------------------------------------------------------------------------------
 (1) _send_i2c                                             4     1      3    1812
                                              6 COMRAM     4     1      3
     _MSSP_I2C_MASTER_WRITE_BLOCKING
                _MSSP_I2C_SEND_START
                 _MSSP_I2C_SEND_STOP
 ---------------------------------------------------------------------------------
 (2) _MSSP_I2C_SEND_STOP                                   2     1      1     108
                                              3 COMRAM     1     0      1
 ---------------------------------------------------------------------------------
 (2) _MSSP_I2C_SEND_START                                  2     1      1     108
                                              3 COMRAM     1     0      1
 ---------------------------------------------------------------------------------
 (2) _MSSP_I2C_MASTER_WRITE_BLOCKING                       4     1      3     552
                                              3 COMRAM     3     0      3
 ---------------------------------------------------------------------------------
 (1) _application_initialize                               0     0      0       0
                     _Ecu_initialize
 ---------------------------------------------------------------------------------
 (2) _Ecu_initialize                                       0     0      0       0
 ---------------------------------------------------------------------------------
 (1) _MSSP_I2C_INIT                                        4     3      1     932
                                             17 COMRAM     3     2      1
  _MSSP_I2C_Interrupt_Configurations
                            ___aldiv
 ---------------------------------------------------------------------------------
 (2) ___aldiv                                             14     6      8     398
                                              3 COMRAM    14     6      8
 ---------------------------------------------------------------------------------
 (2) _MSSP_I2C_Interrupt_Configurations                    1     0      1     142
                                              3 COMRAM     1     0      1
 ---------------------------------------------------------------------------------
 Estimated maximum stack depth 2
 ---------------------------------------------------------------------------------
 (Depth) Function   	        Calls       Base Space   Used Autos Params    Refs
 ---------------------------------------------------------------------------------
 (3) _InterruptMangaer                                     2     2      0     120
                                              1 COMRAM     2     2      0
                           _CCP1_ISR
                           _CCP2_ISR
                      _EUSART_RX_ISR
                      _EUSART_TX_ISR
                           _INT0_ISR
                           _INT1_ISR
                           _INT2_ISR
                       _MSSP_I2C_ISR
                            _RB4_ISR
                            _RB5_ISR
                            _RB6_ISR
                            _RB7_ISR
                           _TMR0_ISR
                           _TMR1_ISR
                           _TMR2_ISR
                           _TMR3_ISR
 ---------------------------------------------------------------------------------
 (4) _TMR3_ISR                                             0     0      0       0
 ---------------------------------------------------------------------------------
 (4) _TMR2_ISR                                             0     0      0       0
 ---------------------------------------------------------------------------------
 (4) _TMR1_ISR                                             0     0      0       0
 ---------------------------------------------------------------------------------
 (4) _TMR0_ISR                                             0     0      0       0
 ---------------------------------------------------------------------------------
 (4) _RB7_ISR                                              1     1      0      30
                                              0 COMRAM     1     1      0
 ---------------------------------------------------------------------------------
 (4) _RB6_ISR                                              1     1      0      30
                                              0 COMRAM     1     1      0
 ---------------------------------------------------------------------------------
 (4) _RB5_ISR                                              1     1      0      30
                                              0 COMRAM     1     1      0
 ---------------------------------------------------------------------------------
 (4) _RB4_ISR                                              1     1      0      30
                                              0 COMRAM     1     1      0
 ---------------------------------------------------------------------------------
 (4) _MSSP_I2C_ISR                                         0     0      0       0
                                NULL *
                                _isr *
 ---------------------------------------------------------------------------------
 (5) _isr                                                  0     0      0       0
 ---------------------------------------------------------------------------------
 (5) NULL(Fake)                                            0     0      0       0
 ---------------------------------------------------------------------------------
 (4) _INT2_ISR                                             0     0      0       0
 ---------------------------------------------------------------------------------
 (4) _INT1_ISR                                             0     0      0       0
 ---------------------------------------------------------------------------------
 (4) _INT0_ISR                                             0     0      0       0
 ---------------------------------------------------------------------------------
 (4) _EUSART_TX_ISR                                        0     0      0       0
 ---------------------------------------------------------------------------------
 (4) _EUSART_RX_ISR                                        0     0      0       0
 ---------------------------------------------------------------------------------
 (4) _CCP2_ISR                                             0     0      0       0
 ---------------------------------------------------------------------------------
 (4) _CCP1_ISR                                             0     0      0       0
 ---------------------------------------------------------------------------------
 Estimated maximum stack depth 5
 ---------------------------------------------------------------------------------

 Call Graph Graphs:

 _main (ROOT)
   _MSSP_I2C_INIT
     _MSSP_I2C_Interrupt_Configurations
     ___aldiv
   _application_initialize
     _Ecu_initialize
   _send_i2c
     _MSSP_I2C_MASTER_WRITE_BLOCKING
     _MSSP_I2C_SEND_START
     _MSSP_I2C_SEND_STOP

 _InterruptMangaer (ROOT)
   _CCP1_ISR
   _CCP2_ISR
   _EUSART_RX_ISR
   _EUSART_TX_ISR
   _INT0_ISR
   _INT1_ISR
   _INT2_ISR
   _MSSP_I2C_ISR
     NULL(Fake) *
     _isr *
   _RB4_ISR
   _RB5_ISR
   _RB6_ISR
   _RB7_ISR
   _TMR0_ISR
   _TMR1_ISR
   _TMR2_ISR
   _TMR3_ISR

 Address spaces:
Name               Size   Autos  Total    Cost      Usage
BIGRAM             F7F      0       0      49        0.0%
EEDATA             400      0       0       0        0.0%
BITBANK14          100      0       0      33        0.0%
BANK14             100      0       0      34        0.0%
BITBANK13          100      0       0      31        0.0%
BANK13             100      0       0      32        0.0%
BITBANK12          100      0       0      29        0.0%
BANK12             100      0       0      30        0.0%
BITBANK11          100      0       0      27        0.0%
BANK11             100      0       0      28        0.0%
BITBANK10          100      0       0      25        0.0%
BANK10             100      0       0      26        0.0%
BITBANK9           100      0       0      23        0.0%
BANK9              100      0       0      24        0.0%
BITBANK8           100      0       0      21        0.0%
BANK8              100      0       0      22        0.0%
BITBANK7           100      0       0      19        0.0%
BANK7              100      0       0      20        0.0%
BITBANK6           100      0       0      17        0.0%
BANK6              100      0       0      18        0.0%
BITBANK5           100      0       0      15        0.0%
BANK5              100      0       0      16        0.0%
BITBANK4           100      0       0      13        0.0%
BANK4              100      0       0      14        0.0%
BITBANK3           100      0       0      10        0.0%
BANK3              100      0       0      11        0.0%
BITBANK2           100      0       0       8        0.0%
BANK2              100      0       0       9        0.0%
BITBANK1           100      0       0       6        0.0%
BANK1              100      0       0       7        0.0%
BITBANK15           80      0       0      35        0.0%
BANK15              80      0       0      36        0.0%
BITBANK0            80      0       0       4        0.0%
BANK0               80      0      24       5       28.1%
BITCOMRAM           7E      0       0       0        0.0%
COMRAM              7E     16      77       1       94.4%
BITBIGSFRhlhlhh     18      0       0      38        0.0%
BITBIGSFRhh          D      0       0      37        0.0%
BITBIGSFRllhh        6      0       0      46        0.0%
BITBIGSFRhlhllh      5      0       0      39        0.0%
BITBIGSFRlhllhh      4      0       0      43        0.0%
BITBIGSFRlllh        4      0       0      47        0.0%
BITBIGSFRlhllhl      4      0       0      44        0.0%
BITBIGSFRllll        4      0       0      48        0.0%
BITBIGSFRlhllhh      1      0       0      42        0.0%
BITBIGSFRlhlh        1      0       0      41        0.0%
BITBIGSFRlhh         1      0       0      40        0.0%
BITBIGSFRlhlll       1      0       0      45        0.0%
BIGSFR               0      0       0     200        0.0%
BITSFR               0      0       0     200        0.0%
SFR                  0      0       0     200        0.0%
STACK                0      0       0       2        0.0%
NULL                 0      0       0       0        0.0%
ABS                  0      0      9B      12        0.0%
DATA                 0      0      9B       3        0.0%
CODE                 0      0       0       0        0.0%


Microchip Technology PIC18 Macro Assembler V2.46 build 20240104201356 
Symbol Table                                                                                   Sun Sep 15 08:22:24 2024

                         ??_InterruptMangaer 0051                                  _SSPSTATbits 0FC7  
                                         _ch 0070                        _INT0_INTERRUPTHANDLER 0027  
                                        l326 19EE                                          l912 14A8  
                                        l904 13D2                                          l907 1410  
                                        l923 154A                                          l931 18AC  
                                        l933 18AE                                          l935 18BC  
                                        l951 1878                                          l961 17EA  
                                        l953 1886                                          l938 18CC  
                                        l963 17F8                                          l956 1896  
                                        l949 1876                                          l966 181E  
                                        l959 17E6                                          l995 1860  
                                        _PR2 0FCB                                          _i2c 0044  
                                        _ack 004F                                          _isr 19D0  
                                        _ret 0077                          led_initialize@F3062 0043  
                                        tosl 0FFD                                          wreg 0FE8  
                            __end_of_RB4_ISR 193C                              __end_of_RB5_ISR 198A  
                            __end_of_RB6_ISR 1970                              __end_of_RB7_ISR 1956  
                                       l1583 17D0                                         l5111 17B8  
                                       l5103 1780                                         l5105 1788  
                                       l1594 19C6                                         l5051 13CE  
                                       l5107 1798                                         l1676 1656  
                                       l5061 1412                                         l5053 13D4  
                                       l5109 17A8                                         l5071 14A6  
                                       l5055 13EC                                         l5063 1458  
                                       l5081 14EE                                         l5073 14AC  
                                       l5065 1470                                         l5057 13F4  
                                       l5049 13BE                                         l5091 153A  
                                       l5083 1506                                         l5075 14BA  
                                       l5067 1488                                         l5093 153C  
                                       l5085 1508                                         l5069 148E  
                                       l5077 14D0                                         l5095 1544  
                                       l5087 1520                                         l5079 14E8  
                                       l5097 1546                                         l5089 1522  
                                       l5099 1548                                         l4901 1594  
                                       l4911 15DC                                         l4903 15A4  
                                       l2879 19C0                                         l5711 166E  
                                       l5703 1658                                         l4921 1620  
                                       l4913 15E6                                         l4905 15BA  
                                       l5721 16AA                                         l5713 1676  
                                       l5705 1660                                         l4851 185A  
                                       l4915 1604                                         l4907 15C2  
                                       l4923 1626                                         l5731 170A  
                                       l5723 16BA                                         l5715 167A  
                                       l5707 166A                                         l4853 185C  
                                       l4845 1820                                         l4925 1636  
                                       l4917 1614                                         l4909 15CE  
                                       l4861 18CC                                         l5725 16D2  
                                       l5717 1682                                         l5709 166C  
                                       l4855 185E                                         l4847 1856  
                                       l4927 1646                                         l4919 1616  
                                       l4871 1896                                         l5727 16E2  
                                       l5719 1692                                         l4849 1858  
                                       l4881 1808                                         l4857 1898  
                                       l5729 16FA                                         l4891 155E  
                                       l4883 1814                                         l4859 18A8  
                                       l4867 1862                                         ?_isr 0050  
                                       l4893 156E                                         l4877 17D2  
                                       l4869 1872                                         l4895 1572  
                                       l4887 154C                                         l4879 17E2  
                                       l4897 1580                                         l4889 1550  
                                       l4899 1590                                         STR_1 1004  
                                       STR_2 1001                                         _LATA 0F89  
                                       _LATB 0F8A                                         _LATC 0F8B  
                                       u3200 1872                                         _LATD 0F8C  
                                       u3201 186E                                         _LATE 0F8D  
                                       u3210 1886                                         u3211 1882  
                                       u3300 1604                                         u3220 1896  
                                       u3301 1600                                         u3221 1892  
                                       u3310 1636                                         u3230 17E2  
                                       u3311 1632                                         u3231 17DE  
                                       u3240 17F8                                         u3241 17F4  
                                       u3250 1808                                         u3170 18A8  
                                       u3251 1804                                         u3171 18A4  
                                       u3260 155E                                         u3500 14A6  
                                       u3180 18BC                                         u3261 155A  
                                       u3501 14A2                                         u3181 18B8  
                                       u3270 1580                                         u3510 14E8  
                                       u3190 18CC                                         u3271 157C  
                                       u3511 14E4                                         u3191 18C8  
                                       u4207 16C4                                         u3280 15BA  
                                       u3520 1506                                         u3281 15B6  
                                       u3521 1502                                         u4217 16EC  
                                       u3290 15DC                                         u3530 1520  
                                       u3450 13CE                                         u3291 15D8  
                                       u3531 151C                                         u3451 13CA  
                                       u4227 1714                                         u3540 153A  
                                       u3460 13EC                                         u3541 1536  
                                       u3461 13E8                                         u4237 179E  
                                       u3470 140C                                         u3471 1408  
                                       u4247 17BE                                         u3480 1470  
                                       u3481 146C                                         u3490 1488  
                                       u3491 1484                                         u4197 169C  
                                       _TMR2 0FCC                                         _led1 0076  
                                       _led2 0075                                         _main 1658  
                           __end_of_CCP1_ISR 19EE                             __end_of_CCP2_ISR 19EA  
                                       fsr2h 0FDA                                         indf2 0FDF  
                                       fsr1l 0FE1                                         fsr2l 0FD9  
                                       btemp 0078                                         start 000E  
                               ___param_bank 0000                                        ??_isr 0050  
                           __end_of_INT0_ISR 19E2                             __end_of_INT1_ISR 19DE  
                           __end_of_INT2_ISR 19DA                                _EUSART_RX_ISR 19F0  
                            __end_of___aldiv 1658                                _EUSART_TX_ISR 19E2  
                                      ?_main 0050                     ??_application_initialize 0053  
                                      _EEADR 0FA9                                        _RB4_F 0074  
                                      _RB5_F 0073                                        _RB6_F 0072  
                                      _RB7_F 0071                                        i2l604 19E8  
                                      i2l753 19E4                                        i2l762 19F0  
                                      i2l599 19EC                                        i2l988 18FA  
                                      _RCREG 0FAE                          relay_turn_off@F3065 003D  
                                      _TMR0H 0FD7                                        _TMR1H 0FCF  
                                      _TMR0L 0FD6                                        _TMR1L 0FCE  
                                      _TMR3H 0FB3                                        _TMR3L 0FB2  
                                      _SPBRG 0FAF                                        _PORTA 0F80  
                                      _PORTB 0F81                                        _PORTC 0F82  
                                      _PORTD 0F83                                        _PORTE 0F84  
                                      _TRISA 0F92                                        _TRISB 0F93  
                                      _TRISC 0F94                                        _TRISD 0F95  
                                      _TRISE 0F96                                        _TXREG 0FAD  
                           __end_of_TMR0_ISR 19C0                             __end_of_TMR1_ISR 19B4  
                           __end_of_TMR2_ISR 19D0                             __end_of_TMR3_ISR 19A8  
                                      _chara 003B                                        pclath 0FFA  
                                      pclatu 0FFB                                        tablat 0FF5  
                                      ttemp5 0079                                        ttemp6 007C  
                                      ttemp7 0080                                        status 0FD8  
                                      wtemp8 0079                      _RB4_INTERRUPTHANDLERLOW 001F  
                    _RB7_INTERRUPTHANDLERLOW 0013                              __initialization 172A  
                               __end_of_main 172A                               ?_EUSART_RX_ISR 0050  
                             ?_EUSART_TX_ISR 0050                                _lat_registers 009A  
                                     ??_main 0064                               _Ecu_initialize 19EE  
                              __activetblptr 0003                             led_turn_on@F3067 0042  
                                  ??_RB4_ISR 0050                                    ??_RB5_ISR 0050  
                                  ??_RB6_ISR 0050                                    ??_RB7_ISR 0050  
                         _MSSP_I2C_SEND_STOP 1862                   _EUSART_OverrunErrorHandler 002F  
                                     _ADRESH 0FC4                                       _EEADRH 0FAA  
                                     _ADRESL 0FC3                                       _EEDATA 0FA8  
                                     _CCPR1L 0FBE                                       _CCPR2L 0FBB  
                                     _EECON2 0FA7                                       i2l1101 1954  
                                     i2l1052 19DC                                       i2l1300 1352  
                                     i2l1302 1372                                       i2l1047 19E0  
                                     i2l1063 1938                                       i2l1304 1392  
                                     i2l1057 19D8                                       i2l1090 196E  
                                     i2l1307 13B2                                       i2l1068 193A  
                                     i2l1270 1052                                       i2l1079 1988  
                                     i2l1280 1182                                       i2l1272 1072  
                                     i2l1290 12B2                                       i2l1282 11C6  
                                     i2l1274 10B6                                       i2l1292 12D2  
                                     i2l1284 120A                                       i2l1276 10FA  
                                     i2l1268 1032                                       i2l1381 19BE  
                                     i2l1446 19B2                                       i2l1294 12F2  
                                     i2l1286 124E                                       i2l1278 113E  
                                     i2l1296 1312                                       i2l1288 1292  
                                     i2l1298 1332                                       i2l1572 19D4  
                                     i2l1484 19CE                                       i2l1549 19A6  
                                     i2l4301 10C4                                       i2l4311 1108  
                                     i2l4303 10D2                                       i2l4401 138E  
                                     i2l4321 114C                                       i2l4313 1116  
                                     i2l4305 10E0                                       i2l2635 19E6  
                                     i2l2731 19DE                                       i2l4403 13A0  
                                     i2l4331 1190                                       i2l4323 115A  
                                     i2l4315 1124                                       i2l4307 10F0  
                                     i2l2629 19EA                                       i2l2653 19E2  
                                     i2l2725 18CE                                       i2l4405 13AE  
                                     i2l4341 11D4                                       i2l4333 119E  
                                     i2l4325 1168                                       i2l4317 1134  
                                     i2l4309 10F4                                       i2l2743 19D6  
                                     i2l2399 19D0                                       i2l2727 18D0  
                                     i2l2751 1924                                       i2l4351 1218  
                                     i2l4343 11E2                                       i2l4335 11AC  
                                     i2l4327 1178                                       i2l4319 1138  
                                     i2l2737 19DA                                       i2l2729 18E2  
                                     i2l4361 125C                                       i2l4353 1226  
                                     i2l4345 11F0                                       i2l4337 11BC  
                                     i2l4329 117C                                       i2l4281 102E  
                                     i2l2659 19F0                                       i2l2771 1988  
                                     i2l2763 1972                                       i2l2835 19B4  
                                     i2l4371 12A0                                       i2l4363 126A  
                                     i2l4355 1234                                       i2l4347 1200  
                                     i2l4339 11C0                                       i2l4291 1080  
                                     i2l4283 1040                                       i2l2757 1938  
                                     i2l2749 1922                                       i2l2765 1974  
                                     i2l2837 19B6                                       i2l2845 19A8  
                                     i2l2861 199E                                       i2l4381 12EE  
                                     i2l4373 12AE                                       i2l4365 1278  
                                     i2l4357 1244                                       i2l4349 1204  
                                     i2l4293 108E                                       i2l4285 104E  
                                     i2l4277 1012                                       i2l2791 193E  
                                     i2l2839 19BA                                       i2l2847 19AA  
                                     i2l2855 19C8                                       i2l2863 19A2  
                                     i2l4391 1340                                       i2l4383 1300  
                                     i2l4375 12C0                                       i2l4367 1288  
                                     i2l4359 1248                                       i2l4295 109C  
                                     i2l4287 1060                                       i2l4279 1020  
                                     i2l2785 196E                                       i2l2777 1958  
                                     i2l2793 1940                                       i2l2849 19AE  
                                     i2l4393 134E                                       i2l4385 130E  
                                     i2l4377 12CE                                       i2l4369 128C  
                                     i2l4297 10AC                                       i2l4289 106E  
                                     i2l2779 195A                                       i2l2859 199C  
                                     i2l4395 1360                                       i2l4387 1320  
                                     i2l4379 12E0                                       i2l4299 10B0  
                                     i2l4397 136E                                       i2l4389 132E  
                                     i2l2799 1954                                       i2l4399 1380  
                        ?_MSSP_I2C_SEND_STOP 0053                                       _SPBRGH 0FB0  
                      _INT1_INTERRUPTHANDLER 0025                                       _SSPADD 0FC8  
                                     _SSPBUF 0FC9                        __end_of_MSSP_I2C_INIT 154C  
                                  ??___aldiv 005B                         ??_MSSP_I2C_SEND_STOP 0054  
                     __end_of_Ecu_initialize 19F0                                       clear_0 1770  
                                     _slave1 0001                                       _slave2 0003  
                                     isa$std 0001                                       _preval 000D  
                           __end_of_send_i2c 17D2  _I2C_Report_Receive_Overflow_InterruptHandle 0029  
                                  ?_CCP1_ISR 0050                                 __pdataCOMRAM 0066  
                                  ?_CCP2_ISR 0050                                 __mediumconst 0000  
                                     tblptrh 0FF7                                       tblptrl 0FF6  
                                     tblptru 0FF8                                   __accesstop 0080  
                    __end_of__initialization 1776                                    ?_INT0_ISR 0050  
                                  ?_INT1_ISR 0050                                    ?_INT2_ISR 0050  
                   _RB4_INTERRUPTHANDLERHIGH 0021                                ___rparam_used 0001  
                   _RB7_INTERRUPTHANDLERHIGH 0015                               __pcstackCOMRAM 0050  
                 _I2C_DefaultInterruptHandle 002B                                 __pidataBANK0 18FC  
                                  ?_TMR0_ISR 0050                              ??_EUSART_RX_ISR 0050  
                                  ?_TMR1_ISR 0050                                    ?_TMR2_ISR 0050  
                                  ?_TMR3_ISR 0050                              ??_EUSART_TX_ISR 0050  
                            ?_Ecu_initialize 0050                                   ??_CCP1_ISR 0050  
                                 ??_CCP2_ISR 0050                                   ??_INT0_ISR 0050  
                                 ??_INT1_ISR 0050                                   ??_INT2_ISR 0050  
                     _application_initialize 19C0                                   __pnvCOMRAM 0077  
                        _MSSP_I2C_SEND_START 1898                                   ??_TMR0_ISR 0050  
                                 ??_TMR1_ISR 0050                                   ??_TMR2_ISR 0050  
                                 ??_TMR3_ISR 0050                            led_turn_off@F3072 0041  
                                send_i2c@i2c 0056                                  send_i2c@add 0057  
                      _INT2_INTERRUPTHANDLER 0023                                      _RB4_ISR 1920  
                                    _RB5_ISR 1970                                      _RB6_ISR 1956  
                                    _RB7_ISR 193C                         ?_MSSP_I2C_SEND_START 0053  
                              ?_MSSP_I2C_ISR 0050                                _keypad_values 0080  
                       led_turn_toggle@F3077 0040                                      i2u60_48 18E8  
                                    i2u61_40 1934                                      i2u60_49 18FA  
                                    i2u61_41 1930                                      i2u62_40 1984  
                                    i2u62_41 1980                                      i2u63_40 196A  
                                    i2u63_41 1966                                      i2u64_40 1950  
                                    i2u64_41 194C                                      i2u59_40 18E2  
                                    i2u59_41 18DE                               _tris_registers 0066  
                                  ?_send_i2c 0056                                      __Hparam 0000  
                                    __Lparam 0000                                      ___aldiv 154C  
                               __psmallconst 1000                                      __pcinit 172A  
                                    __ramtop 1000                                      __ptext0 1658  
                                    __ptext1 1780                                      __ptext2 1862  
                                    __ptext3 1898                                      __ptext4 17D2  
                                    __ptext5 19C0                                      __ptext6 19EE  
                                    __ptext7 13BE                                      __ptext8 154C  
                                    __ptext9 1820                                    _T0CONbits 0FD5  
                                  _T1CONbits 0FCD                        ??_MSSP_I2C_SEND_START 0054  
                             ??_MSSP_I2C_ISR 0050                                    _T2CONbits 0FCA  
                                  _T3CONbits 0FB1                             ___aldiv@dividend 0053  
                                    _preload 000F                               __pintcode_body 1008  
                       end_of_initialization 1776                                      int_func 1008  
                                 ??_send_i2c 0059                      _RB5_INTERRUPTHANDLERLOW 001B  
                                  _RCSTAbits 0FAB                             ___aldiv@quotient 005D  
                                    postdec1 0FE5                                      postdec2 0FDD  
                                    postinc0 0FEE                                      postinc2 0FDE  
                                  _PORTBbits 0F81       __end_of_MSSP_I2C_MASTER_WRITE_BLOCKING 1820  
             _MSSP_I2C_MASTER_WRITE_BLOCKING 17D2                             _InterruptMangaer 0008  
                                  _TRISCbits 0F94                                  _CCP1CONbits 0FBD  
                                _CCP2CONbits 0FBA                                    _TXSTAbits 0FAC  
                           ??_Ecu_initialize 0053                           relay_turn_on@F3060 003E  
                     MSSP_I2C_SEND_START@i2c 0053                                  _BAUDCONbits 0FB8  
                              __pidataCOMRAM 198A                      _preval@hal_timer2$F3712 003C  
                        start_initialization 172A                      _preval@hal_timer3$F3849 0007  
                                __end_of_isr 19D6                      ?_application_initialize 0050  
                  _EUSART_RxInterruptHandler 0033                     _RB6_INTERRUPTHANDLERHIGH 0019  
                       __end_of_MSSP_I2C_ISR 18FC                       _Interrupt_Handler_CCP1 0039  
                     _Interrupt_Handler_CCP2 0037                   _EUSART_FramingErrorHandler 0031  
                                __pdataBANK0 0080                        __end_of_EUSART_RX_ISR 19F2  
                      __end_of_EUSART_TX_ISR 19E6                                     ?_RB4_ISR 0050  
                                   ?_RB5_ISR 0050                                     ?_RB6_ISR 0050  
                                   ?_RB7_ISR 0050                                  __pbssCOMRAM 0001  
_I2C_Report_Write_Collision_InterruptHandler 002D                                     RB4_ISR@n 0050  
                                   RB5_ISR@n 0050                                     RB6_ISR@n 0050  
             __end_of_application_initialize 19C8                                     RB7_ISR@n 0050  
                              _MSSP_I2C_INIT 13BE                                    __pintcode 0008  
                                   ?___aldiv 0053            MSSP_I2C_MASTER_WRITE_BLOCKING@i2c 0053  
          MSSP_I2C_MASTER_WRITE_BLOCKING@ack 0055                                 send_i2c@data 0058  
                                __smallconst 1000                                     _CCP1_ISR 19EA  
                                   _CCP2_ISR 19E6                              ___aldiv@divisor 0057  
                            ___aldiv@counter 005B                                     _INT0_ISR 19DE  
                                   _INT1_ISR 19DA                                     _INT2_ISR 19D6  
                             ?_MSSP_I2C_INIT 0061                     __end_of_InterruptMangaer 13BE  
                                   _PIE1bits 0F9D                                     _PIE2bits 0FA0  
                           MSSP_I2C_INIT@i2c 0061                                     i2u220_40 102E  
                                   i2u220_41 102A                                     i2u221_40 1040  
                                   i2u221_41 103C                                     i2u230_40 10D2  
                                   i2u222_40 104E                                     i2u230_41 10CE  
                                   i2u222_41 104A                                     i2u231_40 10E0  
                                   i2u223_40 1060                                     i2u231_41 10DC  
                                   i2u223_41 105C                                     i2u240_40 1178  
                                   i2u232_40 10F0                                     i2u224_40 106E  
                                   i2u240_41 1174                                     i2u232_41 10EC  
                                   i2u224_41 106A                                     i2u241_40 1190  
                                   i2u233_40 1108                                     i2u225_40 1080  
                                   i2u241_41 118C                                     i2u233_41 1104  
                                   i2u225_41 107C                                     i2u250_40 1226  
                                   i2u242_40 119E                                     i2u234_40 1116  
                                   i2u226_40 108E                                     i2u250_41 1222  
                                   i2u242_41 119A                                     i2u234_41 1112  
                                   i2u226_41 108A                                     i2u251_40 1234  
                                   i2u243_40 11AC                                     i2u235_40 1124  
                                   i2u227_40 109C                                     i2u219_40 1020  
                                   i2u251_41 1230                                     i2u243_41 11A8  
                                   i2u235_41 1120                                     i2u227_41 1098  
                                   i2u219_41 101C                                     i2u260_40 12CE  
                                   i2u252_40 1244                                     i2u244_40 11BC  
                                   i2u236_40 1134                                     i2u228_40 10AC  
                                   i2u260_41 12CA                                     i2u252_41 1240  
                                   i2u244_41 11B8                                     i2u236_41 1130  
                                   i2u228_41 10A8                                     i2u261_40 12E0  
                                   i2u253_40 125C                                     i2u245_40 11D4  
                                   i2u237_40 114C                                     i2u229_40 10C4  
                                   i2u261_41 12DC                                     i2u253_41 1258  
                                   i2u245_41 11D0                                     i2u237_41 1148  
                                   i2u229_41 10C0                                     i2u270_40 136E  
                                   i2u262_40 12EE                                     i2u254_40 126A  
                                   i2u246_40 11E2                                     i2u238_40 115A  
                                   i2u270_41 136A                                     i2u262_41 12EA  
                                   i2u254_41 1266                                     i2u246_41 11DE  
                                   i2u238_41 1156                                     i2u271_40 1380  
                                   i2u263_40 1300                                     i2u255_40 1278  
                                   i2u247_40 11F0                                     i2u239_40 1168  
                                   i2u271_41 137C                                     i2u263_41 12FC  
                                   i2u255_41 1274                                     i2u247_41 11EC  
                                   i2u239_41 1164                                     i2u272_40 138E  
                                   i2u264_40 130E                                     i2u256_40 1288  
                                   i2u248_40 1200                                     i2u272_41 138A  
                                   i2u264_41 130A                                     i2u256_41 1284  
                                   i2u248_41 11FC                                     i2u273_40 13A0  
                                   i2u265_40 1320                                     i2u257_40 12A0  
                                   i2u249_40 1218                                     i2u273_41 139C  
                                   i2u265_41 131C                                     i2u257_41 129C  
                                   i2u249_41 1214                                     _PIR1bits 0F9E  
                                   i2u274_40 13AE                                     i2u266_40 132E  
                                   i2u258_40 12AE                                     i2u274_41 13AA  
                                   i2u266_41 132A                                     i2u258_41 12AA  
                                   i2u267_40 1340                                     i2u259_40 12C0  
                                   i2u267_41 133C                                     i2u259_41 12BC  
                                   _PIR2bits 0FA1                                     i2u268_40 134E  
                                   i2u268_41 134A                                     i2u269_40 1360  
                                   i2u269_41 135C                                     _TMR0_ISR 19B4  
                                   _TMR1_ISR 19A8                                     _TMR2_ISR 19C8  
                                   _TMR3_ISR 199C                  __end_of_MSSP_I2C_SEND_START 18CE  
                                 _ADCON0bits 0FC2                                   _ADCON1bits 0FC1  
                                 _ADCON2bits 0FC0                        MSSP_I2C_SEND_STOP@i2c 0053  
                                _INTCON2bits 0FF1                                  _INTCON3bits 0FF0  
                                  copy_data0 173E                                    copy_data1 175E  
                  relay_initialization@F3055 003F             ??_MSSP_I2C_MASTER_WRITE_BLOCKING 0056  
            ?_MSSP_I2C_MASTER_WRITE_BLOCKING 0053                                   _EECON1bits 0FA6  
                                   __Hrparam 0000                      _RB6_INTERRUPTHANDLERLOW 0017  
                                   __Lrparam 0000                                 _MSSP_I2C_ISR 18CE  
                               _TMR1_HANDLER 000B                                 _TMR2_HANDLER 0009  
                                   __ptext11 199C                                     __ptext20 19D0  
                                   __ptext12 19C8                                     __ptext21 19D6  
                                   __ptext13 19A8                                     __ptext22 19DA  
                                   __ptext14 19B4                                     __ptext23 19DE  
                                   __ptext15 193C                                     __ptext24 19E2  
                                   __ptext16 1956                                     __ptext25 19F0  
                                   __ptext17 1970                                     __ptext26 19E6  
                                   __ptext18 1920                                     __ptext27 19EA  
                                   __ptext19 18CE                                 _TMR3_HANDLER 0005  
                            ??_MSSP_I2C_INIT 0062                                     _send_i2c 1780  
                                   isa$xinst 0000                   __end_of_MSSP_I2C_SEND_STOP 1898  
                                   int$flags 0078                                   _INTCONbits 0FF2  
                                   intlevel2 0000                    _EUSART_TxInterruptHandler 0035  
       MSSP_I2C_Interrupt_Configurations@i2c 0053                     _RB5_INTERRUPTHANDLERHIGH 001D  
                                 _ISR_TIMER0 0011           MSSP_I2C_MASTER_WRITE_BLOCKING@data 0054  
  __end_of_MSSP_I2C_Interrupt_Configurations 1862          ??_MSSP_I2C_Interrupt_Configurations 0054  
         ?_MSSP_I2C_Interrupt_Configurations 0053            _MSSP_I2C_Interrupt_Configurations 1820  
                             _port_registers 0090                                 ___aldiv@sign 005C  
                                _SSPCON1bits 0FC6                                  _SSPCON2bits 0FC5  
                          ?_InterruptMangaer 0050  
